
l6_3.elf:     file format elf32-avr

Sections:
Idx Name          Size      VMA       LMA       File off  Algn
  0 .data         00000002  00800100  00005444  000054d8  2**0
                  CONTENTS, ALLOC, LOAD, DATA
  1 .text         00005444  00000000  00000000  00000094  2**1
                  CONTENTS, ALLOC, LOAD, READONLY, CODE
  2 .bss          00000002  00800102  00800102  000054da  2**0
                  ALLOC
  3 .stab         000007d4  00000000  00000000  000054dc  2**2
                  CONTENTS, READONLY, DEBUGGING
  4 .stabstr      00000d9b  00000000  00000000  00005cb0  2**0
                  CONTENTS, READONLY, DEBUGGING
  5 .comment      00000011  00000000  00000000  00006a4b  2**0
                  CONTENTS, READONLY
  6 .note.gnu.avr.deviceinfo 00000040  00000000  00000000  00006a5c  2**2
                  CONTENTS, READONLY
  7 .debug_info   000005f4  00000000  00000000  00006a9c  2**0
                  CONTENTS, READONLY, DEBUGGING
  8 .debug_abbrev 000005a2  00000000  00000000  00007090  2**0
                  CONTENTS, READONLY, DEBUGGING
  9 .debug_line   0000001a  00000000  00000000  00007632  2**0
                  CONTENTS, READONLY, DEBUGGING
 10 .debug_str    00000208  00000000  00000000  0000764c  2**0
                  CONTENTS, READONLY, DEBUGGING

Disassembly of section .text:

00000000 <__vectors>:
       0:	0c 94 80 29 	jmp	0x5300	; 0x5300 <__ctors_end>
       4:	0c 94 9d 29 	jmp	0x533a	; 0x533a <__bad_interrupt>
       8:	0c 94 9d 29 	jmp	0x533a	; 0x533a <__bad_interrupt>
       c:	0c 94 9d 29 	jmp	0x533a	; 0x533a <__bad_interrupt>
      10:	0c 94 9d 29 	jmp	0x533a	; 0x533a <__bad_interrupt>
      14:	0c 94 9d 29 	jmp	0x533a	; 0x533a <__bad_interrupt>
      18:	0c 94 9d 29 	jmp	0x533a	; 0x533a <__bad_interrupt>
      1c:	0c 94 9d 29 	jmp	0x533a	; 0x533a <__bad_interrupt>
      20:	0c 94 9d 29 	jmp	0x533a	; 0x533a <__bad_interrupt>
      24:	0c 94 9d 29 	jmp	0x533a	; 0x533a <__bad_interrupt>
      28:	0c 94 9d 29 	jmp	0x533a	; 0x533a <__bad_interrupt>
      2c:	0c 94 9d 29 	jmp	0x533a	; 0x533a <__bad_interrupt>
      30:	0c 94 9d 29 	jmp	0x533a	; 0x533a <__bad_interrupt>
      34:	0c 94 9d 29 	jmp	0x533a	; 0x533a <__bad_interrupt>
      38:	0c 94 bc 29 	jmp	0x5378	; 0x5378 <__vector_14>
      3c:	0c 94 9d 29 	jmp	0x533a	; 0x533a <__bad_interrupt>
      40:	0c 94 9d 29 	jmp	0x533a	; 0x533a <__bad_interrupt>
      44:	0c 94 9d 29 	jmp	0x533a	; 0x533a <__bad_interrupt>
      48:	0c 94 9d 29 	jmp	0x533a	; 0x533a <__bad_interrupt>
      4c:	0c 94 9d 29 	jmp	0x533a	; 0x533a <__bad_interrupt>
      50:	0c 94 9d 29 	jmp	0x533a	; 0x533a <__bad_interrupt>
      54:	0c 94 9d 29 	jmp	0x533a	; 0x533a <__bad_interrupt>
      58:	0c 94 9d 29 	jmp	0x533a	; 0x533a <__bad_interrupt>
      5c:	0c 94 9d 29 	jmp	0x533a	; 0x533a <__bad_interrupt>
      60:	0c 94 9d 29 	jmp	0x533a	; 0x533a <__bad_interrupt>
      64:	0c 94 9d 29 	jmp	0x533a	; 0x533a <__bad_interrupt>

00000068 <__trampolines_end>:
      68:	80 80       	ld	r8, Z
      6a:	80 80       	ld	r8, Z
      6c:	80 7f       	andi	r24, 0xF0	; 240
      6e:	80 7f       	andi	r24, 0xF0	; 240
      70:	7f 7f       	andi	r23, 0xFF	; 255
      72:	80 80       	ld	r8, Z
      74:	80 80       	ld	r8, Z
      76:	7f 80       	ldd	r7, Y+7	; 0x07
      78:	80 7f       	andi	r24, 0xF0	; 240
      7a:	80 80       	ld	r8, Z
      7c:	80 7f       	andi	r24, 0xF0	; 240
      7e:	80 80       	ld	r8, Z
      80:	7f 7f       	andi	r23, 0xFF	; 255
      82:	80 80       	ld	r8, Z
      84:	80 80       	ld	r8, Z
      86:	80 80       	ld	r8, Z
      88:	7f 7f       	andi	r23, 0xFF	; 255
      8a:	80 7f       	andi	r24, 0xF0	; 240
      8c:	80 80       	ld	r8, Z
      8e:	7f 80       	ldd	r7, Y+7	; 0x07
      90:	7f 7f       	andi	r23, 0xFF	; 255
      92:	7f 7f       	andi	r23, 0xFF	; 255
      94:	80 80       	ld	r8, Z
      96:	80 7f       	andi	r24, 0xF0	; 240
      98:	7f 7f       	andi	r23, 0xFF	; 255
      9a:	80 7f       	andi	r24, 0xF0	; 240
      9c:	80 80       	ld	r8, Z
      9e:	80 80       	ld	r8, Z
      a0:	80 80       	ld	r8, Z
      a2:	7f 7f       	andi	r23, 0xFF	; 255
      a4:	80 7f       	andi	r24, 0xF0	; 240
      a6:	7f 7f       	andi	r23, 0xFF	; 255
      a8:	80 7f       	andi	r24, 0xF0	; 240
      aa:	7f 7f       	andi	r23, 0xFF	; 255
      ac:	80 80       	ld	r8, Z
      ae:	7f 80       	ldd	r7, Y+7	; 0x07
      b0:	7f 80       	ldd	r7, Y+7	; 0x07
      b2:	7f 80       	ldd	r7, Y+7	; 0x07
      b4:	7f 7f       	andi	r23, 0xFF	; 255
      b6:	80 80       	ld	r8, Z
      b8:	80 7f       	andi	r24, 0xF0	; 240
      ba:	7f 7f       	andi	r23, 0xFF	; 255
      bc:	80 80       	ld	r8, Z
      be:	80 80       	ld	r8, Z
      c0:	80 80       	ld	r8, Z
      c2:	80 80       	ld	r8, Z
      c4:	80 7f       	andi	r24, 0xF0	; 240
      c6:	80 80       	ld	r8, Z
      c8:	80 80       	ld	r8, Z
      ca:	80 7f       	andi	r24, 0xF0	; 240
      cc:	80 7f       	andi	r24, 0xF0	; 240
      ce:	80 80       	ld	r8, Z
      d0:	80 80       	ld	r8, Z
      d2:	80 80       	ld	r8, Z
      d4:	80 80       	ld	r8, Z
      d6:	7f 7f       	andi	r23, 0xFF	; 255
      d8:	7f 7f       	andi	r23, 0xFF	; 255
      da:	7f 80       	ldd	r7, Y+7	; 0x07
      dc:	80 80       	ld	r8, Z
      de:	80 7f       	andi	r24, 0xF0	; 240
      e0:	7f 80       	ldd	r7, Y+7	; 0x07
      e2:	7f 80       	ldd	r7, Y+7	; 0x07
      e4:	80 80       	ld	r8, Z
      e6:	7f 80       	ldd	r7, Y+7	; 0x07
      e8:	80 7f       	andi	r24, 0xF0	; 240
      ea:	7f 7f       	andi	r23, 0xFF	; 255
      ec:	80 7f       	andi	r24, 0xF0	; 240
      ee:	80 7f       	andi	r24, 0xF0	; 240
      f0:	80 80       	ld	r8, Z
      f2:	7f 80       	ldd	r7, Y+7	; 0x07
      f4:	7f 7f       	andi	r23, 0xFF	; 255
      f6:	7f 80       	ldd	r7, Y+7	; 0x07
      f8:	80 7f       	andi	r24, 0xF0	; 240
      fa:	80 80       	ld	r8, Z
      fc:	80 80       	ld	r8, Z
      fe:	80 81       	ld	r24, Z
     100:	80 80       	ld	r8, Z
     102:	80 7f       	andi	r24, 0xF0	; 240
     104:	80 7f       	andi	r24, 0xF0	; 240
     106:	80 7f       	andi	r24, 0xF0	; 240
     108:	80 7f       	andi	r24, 0xF0	; 240
     10a:	80 7f       	andi	r24, 0xF0	; 240
     10c:	7f 80       	ldd	r7, Y+7	; 0x07
     10e:	7f 7f       	andi	r23, 0xFF	; 255
     110:	7f 80       	ldd	r7, Y+7	; 0x07
     112:	80 7f       	andi	r24, 0xF0	; 240
     114:	80 80       	ld	r8, Z
     116:	80 80       	ld	r8, Z
     118:	80 7f       	andi	r24, 0xF0	; 240
     11a:	80 80       	ld	r8, Z
     11c:	7f 7f       	andi	r23, 0xFF	; 255
     11e:	7f 80       	ldd	r7, Y+7	; 0x07
     120:	80 80       	ld	r8, Z
     122:	80 7f       	andi	r24, 0xF0	; 240
     124:	7f 7f       	andi	r23, 0xFF	; 255
     126:	80 80       	ld	r8, Z
     128:	80 80       	ld	r8, Z
     12a:	80 7f       	andi	r24, 0xF0	; 240
     12c:	80 80       	ld	r8, Z
     12e:	80 80       	ld	r8, Z
     130:	80 7f       	andi	r24, 0xF0	; 240
     132:	7f 80       	ldd	r7, Y+7	; 0x07
     134:	80 80       	ld	r8, Z
     136:	80 7f       	andi	r24, 0xF0	; 240
     138:	80 80       	ld	r8, Z
     13a:	7f 7f       	andi	r23, 0xFF	; 255
     13c:	7f 80       	ldd	r7, Y+7	; 0x07
     13e:	80 7f       	andi	r24, 0xF0	; 240
     140:	80 80       	ld	r8, Z
     142:	7f 7f       	andi	r23, 0xFF	; 255
     144:	7f 7f       	andi	r23, 0xFF	; 255
     146:	80 80       	ld	r8, Z
     148:	80 7f       	andi	r24, 0xF0	; 240
     14a:	7f 7f       	andi	r23, 0xFF	; 255
     14c:	7f 80       	ldd	r7, Y+7	; 0x07
     14e:	7f 7f       	andi	r23, 0xFF	; 255
     150:	80 80       	ld	r8, Z
     152:	7f 80       	ldd	r7, Y+7	; 0x07
     154:	80 80       	ld	r8, Z
     156:	80 7f       	andi	r24, 0xF0	; 240
     158:	80 80       	ld	r8, Z
     15a:	7f 7f       	andi	r23, 0xFF	; 255
     15c:	7f 7f       	andi	r23, 0xFF	; 255
     15e:	80 80       	ld	r8, Z
     160:	80 80       	ld	r8, Z
     162:	80 80       	ld	r8, Z
     164:	80 80       	ld	r8, Z
     166:	7f 7f       	andi	r23, 0xFF	; 255
     168:	7f 7f       	andi	r23, 0xFF	; 255
     16a:	7f 7f       	andi	r23, 0xFF	; 255
     16c:	7f 7f       	andi	r23, 0xFF	; 255
     16e:	80 80       	ld	r8, Z
     170:	7f 80       	ldd	r7, Y+7	; 0x07
     172:	7f 80       	ldd	r7, Y+7	; 0x07
     174:	80 7f       	andi	r24, 0xF0	; 240
     176:	80 7f       	andi	r24, 0xF0	; 240
     178:	7f 7f       	andi	r23, 0xFF	; 255
     17a:	80 7f       	andi	r24, 0xF0	; 240
     17c:	80 7f       	andi	r24, 0xF0	; 240
     17e:	80 80       	ld	r8, Z
     180:	7f 80       	ldd	r7, Y+7	; 0x07
     182:	7f 7f       	andi	r23, 0xFF	; 255
     184:	80 7f       	andi	r24, 0xF0	; 240
     186:	7f 7f       	andi	r23, 0xFF	; 255
     188:	7f 7f       	andi	r23, 0xFF	; 255
     18a:	80 80       	ld	r8, Z
     18c:	7f 80       	ldd	r7, Y+7	; 0x07
     18e:	7f 80       	ldd	r7, Y+7	; 0x07
     190:	7f 7f       	andi	r23, 0xFF	; 255
     192:	7f 7f       	andi	r23, 0xFF	; 255
     194:	80 7f       	andi	r24, 0xF0	; 240
     196:	80 80       	ld	r8, Z
     198:	7f 80       	ldd	r7, Y+7	; 0x07
     19a:	80 80       	ld	r8, Z
     19c:	7f 80       	ldd	r7, Y+7	; 0x07
     19e:	80 80       	ld	r8, Z
     1a0:	7f 7f       	andi	r23, 0xFF	; 255
     1a2:	81 80       	ldd	r8, Z+1	; 0x01
     1a4:	7f 80       	ldd	r7, Y+7	; 0x07
     1a6:	7f 7f       	andi	r23, 0xFF	; 255
     1a8:	7f 7f       	andi	r23, 0xFF	; 255
     1aa:	80 80       	ld	r8, Z
     1ac:	80 7f       	andi	r24, 0xF0	; 240
     1ae:	80 80       	ld	r8, Z
     1b0:	7f 80       	ldd	r7, Y+7	; 0x07
     1b2:	7f 80       	ldd	r7, Y+7	; 0x07
     1b4:	80 80       	ld	r8, Z
     1b6:	7f 80       	ldd	r7, Y+7	; 0x07
     1b8:	80 80       	ld	r8, Z
     1ba:	80 80       	ld	r8, Z
     1bc:	80 80       	ld	r8, Z
     1be:	7f 80       	ldd	r7, Y+7	; 0x07
     1c0:	80 7f       	andi	r24, 0xF0	; 240
     1c2:	7f 80       	ldd	r7, Y+7	; 0x07
     1c4:	7f 7f       	andi	r23, 0xFF	; 255
     1c6:	7f 80       	ldd	r7, Y+7	; 0x07
     1c8:	80 7f       	andi	r24, 0xF0	; 240
     1ca:	7f 80       	ldd	r7, Y+7	; 0x07
     1cc:	80 7f       	andi	r24, 0xF0	; 240
     1ce:	80 80       	ld	r8, Z
     1d0:	80 80       	ld	r8, Z
     1d2:	7f 7f       	andi	r23, 0xFF	; 255
     1d4:	7f 7f       	andi	r23, 0xFF	; 255
     1d6:	7f 80       	ldd	r7, Y+7	; 0x07
     1d8:	7f 7f       	andi	r23, 0xFF	; 255
     1da:	7f 80       	ldd	r7, Y+7	; 0x07
     1dc:	7f 80       	ldd	r7, Y+7	; 0x07
     1de:	7f 7f       	andi	r23, 0xFF	; 255
     1e0:	80 80       	ld	r8, Z
     1e2:	7f 80       	ldd	r7, Y+7	; 0x07
     1e4:	7f 80       	ldd	r7, Y+7	; 0x07
     1e6:	7f 80       	ldd	r7, Y+7	; 0x07
     1e8:	7f 80       	ldd	r7, Y+7	; 0x07
     1ea:	80 80       	ld	r8, Z
     1ec:	80 7f       	andi	r24, 0xF0	; 240
     1ee:	80 80       	ld	r8, Z
     1f0:	81 80       	ldd	r8, Z+1	; 0x01
     1f2:	7f 7f       	andi	r23, 0xFF	; 255
     1f4:	81 80       	ldd	r8, Z+1	; 0x01
     1f6:	80 80       	ld	r8, Z
     1f8:	7f 7f       	andi	r23, 0xFF	; 255
     1fa:	80 80       	ld	r8, Z
     1fc:	80 80       	ld	r8, Z
     1fe:	7f 80       	ldd	r7, Y+7	; 0x07
     200:	80 7f       	andi	r24, 0xF0	; 240
     202:	7f 80       	ldd	r7, Y+7	; 0x07
     204:	80 80       	ld	r8, Z
     206:	7f 80       	ldd	r7, Y+7	; 0x07
     208:	80 80       	ld	r8, Z
     20a:	80 7f       	andi	r24, 0xF0	; 240
     20c:	7f 80       	ldd	r7, Y+7	; 0x07
     20e:	7f 7f       	andi	r23, 0xFF	; 255
     210:	80 80       	ld	r8, Z
     212:	80 80       	ld	r8, Z
     214:	80 80       	ld	r8, Z
     216:	80 7f       	andi	r24, 0xF0	; 240
     218:	7f 7f       	andi	r23, 0xFF	; 255
     21a:	7f 7f       	andi	r23, 0xFF	; 255
     21c:	7f 7f       	andi	r23, 0xFF	; 255
     21e:	80 7f       	andi	r24, 0xF0	; 240
     220:	80 80       	ld	r8, Z
     222:	7f 7f       	andi	r23, 0xFF	; 255
     224:	80 80       	ld	r8, Z
     226:	80 80       	ld	r8, Z
     228:	7f 7f       	andi	r23, 0xFF	; 255
     22a:	80 7f       	andi	r24, 0xF0	; 240
     22c:	80 7f       	andi	r24, 0xF0	; 240
     22e:	80 7f       	andi	r24, 0xF0	; 240
     230:	7f 81       	ldd	r23, Y+7	; 0x07
     232:	80 80       	ld	r8, Z
     234:	81 80       	ldd	r8, Z+1	; 0x01
     236:	80 7f       	andi	r24, 0xF0	; 240
     238:	80 80       	ld	r8, Z
     23a:	80 7f       	andi	r24, 0xF0	; 240
     23c:	80 7f       	andi	r24, 0xF0	; 240
     23e:	7f 80       	ldd	r7, Y+7	; 0x07
     240:	80 7f       	andi	r24, 0xF0	; 240
     242:	7f 7f       	andi	r23, 0xFF	; 255
     244:	80 80       	ld	r8, Z
     246:	80 7f       	andi	r24, 0xF0	; 240
     248:	80 7f       	andi	r24, 0xF0	; 240
     24a:	80 80       	ld	r8, Z
     24c:	81 80       	ldd	r8, Z+1	; 0x01
     24e:	7f 80       	ldd	r7, Y+7	; 0x07
     250:	80 7f       	andi	r24, 0xF0	; 240
     252:	80 80       	ld	r8, Z
     254:	7f 80       	ldd	r7, Y+7	; 0x07
     256:	7f 80       	ldd	r7, Y+7	; 0x07
     258:	7f 80       	ldd	r7, Y+7	; 0x07
     25a:	80 7f       	andi	r24, 0xF0	; 240
     25c:	7f 7f       	andi	r23, 0xFF	; 255
     25e:	80 80       	ld	r8, Z
     260:	80 80       	ld	r8, Z
     262:	80 7f       	andi	r24, 0xF0	; 240
     264:	80 80       	ld	r8, Z
     266:	80 7f       	andi	r24, 0xF0	; 240
     268:	80 7f       	andi	r24, 0xF0	; 240
     26a:	80 80       	ld	r8, Z
     26c:	7f 80       	ldd	r7, Y+7	; 0x07
     26e:	7f 7f       	andi	r23, 0xFF	; 255
     270:	80 7f       	andi	r24, 0xF0	; 240
     272:	7f 80       	ldd	r7, Y+7	; 0x07
     274:	80 80       	ld	r8, Z
     276:	80 80       	ld	r8, Z
     278:	7f 80       	ldd	r7, Y+7	; 0x07
     27a:	7f 80       	ldd	r7, Y+7	; 0x07
     27c:	7f 7f       	andi	r23, 0xFF	; 255
     27e:	81 7f       	andi	r24, 0xF1	; 241
     280:	7f 80       	ldd	r7, Y+7	; 0x07
     282:	7f 7f       	andi	r23, 0xFF	; 255
     284:	7f 80       	ldd	r7, Y+7	; 0x07
     286:	7f 7f       	andi	r23, 0xFF	; 255
     288:	80 80       	ld	r8, Z
     28a:	80 80       	ld	r8, Z
     28c:	80 7f       	andi	r24, 0xF0	; 240
     28e:	80 80       	ld	r8, Z
     290:	80 80       	ld	r8, Z
     292:	7f 80       	ldd	r7, Y+7	; 0x07
     294:	80 80       	ld	r8, Z
     296:	80 80       	ld	r8, Z
     298:	7f 80       	ldd	r7, Y+7	; 0x07
     29a:	80 80       	ld	r8, Z
     29c:	80 7f       	andi	r24, 0xF0	; 240
     29e:	80 7f       	andi	r24, 0xF0	; 240
     2a0:	80 7f       	andi	r24, 0xF0	; 240
     2a2:	80 7f       	andi	r24, 0xF0	; 240
     2a4:	80 7f       	andi	r24, 0xF0	; 240
     2a6:	80 80       	ld	r8, Z
     2a8:	7f 80       	ldd	r7, Y+7	; 0x07
     2aa:	80 80       	ld	r8, Z
     2ac:	80 80       	ld	r8, Z
     2ae:	80 7f       	andi	r24, 0xF0	; 240
     2b0:	81 80       	ldd	r8, Z+1	; 0x01
     2b2:	7f 7f       	andi	r23, 0xFF	; 255
     2b4:	7f 80       	ldd	r7, Y+7	; 0x07
     2b6:	7f 80       	ldd	r7, Y+7	; 0x07
     2b8:	80 7f       	andi	r24, 0xF0	; 240
     2ba:	7f 7f       	andi	r23, 0xFF	; 255
     2bc:	7f 80       	ldd	r7, Y+7	; 0x07
     2be:	80 80       	ld	r8, Z
     2c0:	80 80       	ld	r8, Z
     2c2:	7f 7f       	andi	r23, 0xFF	; 255
     2c4:	7f 80       	ldd	r7, Y+7	; 0x07
     2c6:	80 80       	ld	r8, Z
     2c8:	80 7f       	andi	r24, 0xF0	; 240
     2ca:	7f 7f       	andi	r23, 0xFF	; 255
     2cc:	80 80       	ld	r8, Z
     2ce:	7f 80       	ldd	r7, Y+7	; 0x07
     2d0:	80 80       	ld	r8, Z
     2d2:	80 7f       	andi	r24, 0xF0	; 240
     2d4:	80 80       	ld	r8, Z
     2d6:	80 7f       	andi	r24, 0xF0	; 240
     2d8:	7f 80       	ldd	r7, Y+7	; 0x07
     2da:	7f 80       	ldd	r7, Y+7	; 0x07
     2dc:	80 80       	ld	r8, Z
     2de:	80 80       	ld	r8, Z
     2e0:	80 80       	ld	r8, Z
     2e2:	7f 80       	ldd	r7, Y+7	; 0x07
     2e4:	7f 7f       	andi	r23, 0xFF	; 255
     2e6:	81 80       	ldd	r8, Z+1	; 0x01
     2e8:	80 80       	ld	r8, Z
     2ea:	80 80       	ld	r8, Z
     2ec:	80 80       	ld	r8, Z
     2ee:	7f 80       	ldd	r7, Y+7	; 0x07
     2f0:	80 80       	ld	r8, Z
     2f2:	7f 80       	ldd	r7, Y+7	; 0x07
     2f4:	7f 7f       	andi	r23, 0xFF	; 255
     2f6:	7f 7f       	andi	r23, 0xFF	; 255
     2f8:	80 80       	ld	r8, Z
     2fa:	80 80       	ld	r8, Z
     2fc:	80 80       	ld	r8, Z
     2fe:	80 7f       	andi	r24, 0xF0	; 240
     300:	7f 80       	ldd	r7, Y+7	; 0x07
     302:	7f 80       	ldd	r7, Y+7	; 0x07
     304:	80 80       	ld	r8, Z
     306:	7f 80       	ldd	r7, Y+7	; 0x07
     308:	80 7f       	andi	r24, 0xF0	; 240
     30a:	7f 7f       	andi	r23, 0xFF	; 255
     30c:	7f 80       	ldd	r7, Y+7	; 0x07
     30e:	7f 7f       	andi	r23, 0xFF	; 255
     310:	7f 80       	ldd	r7, Y+7	; 0x07
     312:	80 80       	ld	r8, Z
     314:	80 80       	ld	r8, Z
     316:	7f 80       	ldd	r7, Y+7	; 0x07
     318:	80 80       	ld	r8, Z
     31a:	80 80       	ld	r8, Z
     31c:	80 7f       	andi	r24, 0xF0	; 240
     31e:	7f 7f       	andi	r23, 0xFF	; 255
     320:	81 7f       	andi	r24, 0xF1	; 241
     322:	7f 80       	ldd	r7, Y+7	; 0x07
     324:	80 7f       	andi	r24, 0xF0	; 240
     326:	80 80       	ld	r8, Z
     328:	81 80       	ldd	r8, Z+1	; 0x01
     32a:	80 80       	ld	r8, Z
     32c:	7f 7f       	andi	r23, 0xFF	; 255
     32e:	80 80       	ld	r8, Z
     330:	7f 80       	ldd	r7, Y+7	; 0x07
     332:	7f 80       	ldd	r7, Y+7	; 0x07
     334:	7f 80       	ldd	r7, Y+7	; 0x07
     336:	80 7f       	andi	r24, 0xF0	; 240
     338:	80 80       	ld	r8, Z
     33a:	7f 80       	ldd	r7, Y+7	; 0x07
     33c:	7f 80       	ldd	r7, Y+7	; 0x07
     33e:	80 80       	ld	r8, Z
     340:	80 80       	ld	r8, Z
     342:	81 7f       	andi	r24, 0xF1	; 241
     344:	80 7f       	andi	r24, 0xF0	; 240
     346:	7f 80       	ldd	r7, Y+7	; 0x07
     348:	7f 80       	ldd	r7, Y+7	; 0x07
     34a:	80 80       	ld	r8, Z
     34c:	80 80       	ld	r8, Z
     34e:	7f 81       	ldd	r23, Y+7	; 0x07
     350:	7f 80       	ldd	r7, Y+7	; 0x07
     352:	80 80       	ld	r8, Z
     354:	80 80       	ld	r8, Z
     356:	80 80       	ld	r8, Z
     358:	80 80       	ld	r8, Z
     35a:	80 80       	ld	r8, Z
     35c:	80 80       	ld	r8, Z
     35e:	80 7f       	andi	r24, 0xF0	; 240
     360:	7f 80       	ldd	r7, Y+7	; 0x07
     362:	80 7f       	andi	r24, 0xF0	; 240
     364:	80 7f       	andi	r24, 0xF0	; 240
     366:	80 80       	ld	r8, Z
     368:	7f 7f       	andi	r23, 0xFF	; 255
     36a:	7f 80       	ldd	r7, Y+7	; 0x07
     36c:	7f 80       	ldd	r7, Y+7	; 0x07
     36e:	80 7f       	andi	r24, 0xF0	; 240
     370:	7f 7f       	andi	r23, 0xFF	; 255
     372:	7f 7f       	andi	r23, 0xFF	; 255
     374:	7f 80       	ldd	r7, Y+7	; 0x07
     376:	80 80       	ld	r8, Z
     378:	80 7f       	andi	r24, 0xF0	; 240
     37a:	7f 7f       	andi	r23, 0xFF	; 255
     37c:	80 7f       	andi	r24, 0xF0	; 240
     37e:	7f 80       	ldd	r7, Y+7	; 0x07
     380:	80 7f       	andi	r24, 0xF0	; 240
     382:	80 80       	ld	r8, Z
     384:	7f 80       	ldd	r7, Y+7	; 0x07
     386:	80 7f       	andi	r24, 0xF0	; 240
     388:	7f 80       	ldd	r7, Y+7	; 0x07
     38a:	80 80       	ld	r8, Z
     38c:	7f 7f       	andi	r23, 0xFF	; 255
     38e:	7f 7f       	andi	r23, 0xFF	; 255
     390:	7f 80       	ldd	r7, Y+7	; 0x07
     392:	7f 80       	ldd	r7, Y+7	; 0x07
     394:	7f 80       	ldd	r7, Y+7	; 0x07
     396:	7f 7f       	andi	r23, 0xFF	; 255
     398:	80 80       	ld	r8, Z
     39a:	80 80       	ld	r8, Z
     39c:	80 80       	ld	r8, Z
     39e:	80 7f       	andi	r24, 0xF0	; 240
     3a0:	80 80       	ld	r8, Z
     3a2:	80 7f       	andi	r24, 0xF0	; 240
     3a4:	7f 80       	ldd	r7, Y+7	; 0x07
     3a6:	80 7f       	andi	r24, 0xF0	; 240
     3a8:	7f 7f       	andi	r23, 0xFF	; 255
     3aa:	80 81       	ld	r24, Z
     3ac:	7f 80       	ldd	r7, Y+7	; 0x07
     3ae:	7f 7f       	andi	r23, 0xFF	; 255
     3b0:	80 80       	ld	r8, Z
     3b2:	7f 80       	ldd	r7, Y+7	; 0x07
     3b4:	80 80       	ld	r8, Z
     3b6:	7f 7f       	andi	r23, 0xFF	; 255
     3b8:	7f 7f       	andi	r23, 0xFF	; 255
     3ba:	80 80       	ld	r8, Z
     3bc:	7f 7f       	andi	r23, 0xFF	; 255
     3be:	7f 80       	ldd	r7, Y+7	; 0x07
     3c0:	7f 80       	ldd	r7, Y+7	; 0x07
     3c2:	80 7f       	andi	r24, 0xF0	; 240
     3c4:	80 7f       	andi	r24, 0xF0	; 240
     3c6:	80 80       	ld	r8, Z
     3c8:	7f 80       	ldd	r7, Y+7	; 0x07
     3ca:	80 80       	ld	r8, Z
     3cc:	80 80       	ld	r8, Z
     3ce:	80 7f       	andi	r24, 0xF0	; 240
     3d0:	80 80       	ld	r8, Z
     3d2:	80 80       	ld	r8, Z
     3d4:	7f 7f       	andi	r23, 0xFF	; 255
     3d6:	7f 80       	ldd	r7, Y+7	; 0x07
     3d8:	7f 80       	ldd	r7, Y+7	; 0x07
     3da:	80 80       	ld	r8, Z
     3dc:	80 7f       	andi	r24, 0xF0	; 240
     3de:	80 7f       	andi	r24, 0xF0	; 240
     3e0:	7f 7f       	andi	r23, 0xFF	; 255
     3e2:	80 80       	ld	r8, Z
     3e4:	80 80       	ld	r8, Z
     3e6:	7f 80       	ldd	r7, Y+7	; 0x07
     3e8:	7f 80       	ldd	r7, Y+7	; 0x07
     3ea:	7f 7f       	andi	r23, 0xFF	; 255
     3ec:	80 80       	ld	r8, Z
     3ee:	7f 80       	ldd	r7, Y+7	; 0x07
     3f0:	7f 7f       	andi	r23, 0xFF	; 255
     3f2:	7f 7f       	andi	r23, 0xFF	; 255
     3f4:	7f 7f       	andi	r23, 0xFF	; 255
     3f6:	80 7f       	andi	r24, 0xF0	; 240
     3f8:	80 80       	ld	r8, Z
     3fa:	80 80       	ld	r8, Z
     3fc:	7f 7f       	andi	r23, 0xFF	; 255
     3fe:	80 7f       	andi	r24, 0xF0	; 240
     400:	80 7f       	andi	r24, 0xF0	; 240
     402:	7f 7f       	andi	r23, 0xFF	; 255
     404:	80 7f       	andi	r24, 0xF0	; 240
     406:	80 80       	ld	r8, Z
     408:	80 7f       	andi	r24, 0xF0	; 240
     40a:	80 80       	ld	r8, Z
     40c:	7f 7f       	andi	r23, 0xFF	; 255
     40e:	7f 7f       	andi	r23, 0xFF	; 255
     410:	7f 80       	ldd	r7, Y+7	; 0x07
     412:	80 80       	ld	r8, Z
     414:	80 80       	ld	r8, Z
     416:	80 80       	ld	r8, Z
     418:	80 7f       	andi	r24, 0xF0	; 240
     41a:	80 7f       	andi	r24, 0xF0	; 240
     41c:	7f 7f       	andi	r23, 0xFF	; 255
     41e:	80 80       	ld	r8, Z
     420:	7f 80       	ldd	r7, Y+7	; 0x07
     422:	7f 7f       	andi	r23, 0xFF	; 255
     424:	80 7f       	andi	r24, 0xF0	; 240
     426:	80 81       	ld	r24, Z
     428:	80 81       	ld	r24, Z
     42a:	80 80       	ld	r8, Z
     42c:	80 80       	ld	r8, Z
     42e:	80 80       	ld	r8, Z
     430:	80 80       	ld	r8, Z
     432:	80 80       	ld	r8, Z
     434:	80 80       	ld	r8, Z
     436:	80 7f       	andi	r24, 0xF0	; 240
     438:	7f 80       	ldd	r7, Y+7	; 0x07
     43a:	7f 7f       	andi	r23, 0xFF	; 255
     43c:	80 7f       	andi	r24, 0xF0	; 240
     43e:	7f 80       	ldd	r7, Y+7	; 0x07
     440:	80 80       	ld	r8, Z
     442:	7f 80       	ldd	r7, Y+7	; 0x07
     444:	80 80       	ld	r8, Z
     446:	7f 80       	ldd	r7, Y+7	; 0x07
     448:	80 80       	ld	r8, Z
     44a:	80 80       	ld	r8, Z
     44c:	7f 7f       	andi	r23, 0xFF	; 255
     44e:	7f 80       	ldd	r7, Y+7	; 0x07
     450:	7f 80       	ldd	r7, Y+7	; 0x07
     452:	7f 80       	ldd	r7, Y+7	; 0x07
     454:	80 7f       	andi	r24, 0xF0	; 240
     456:	80 7f       	andi	r24, 0xF0	; 240
     458:	7f 80       	ldd	r7, Y+7	; 0x07
     45a:	80 7f       	andi	r24, 0xF0	; 240
     45c:	80 80       	ld	r8, Z
     45e:	80 80       	ld	r8, Z
     460:	80 7f       	andi	r24, 0xF0	; 240
     462:	80 7f       	andi	r24, 0xF0	; 240
     464:	80 80       	ld	r8, Z
     466:	7f 80       	ldd	r7, Y+7	; 0x07
     468:	80 80       	ld	r8, Z
     46a:	80 7f       	andi	r24, 0xF0	; 240
     46c:	80 80       	ld	r8, Z
     46e:	80 7f       	andi	r24, 0xF0	; 240
     470:	80 80       	ld	r8, Z
     472:	7f 80       	ldd	r7, Y+7	; 0x07
     474:	80 7f       	andi	r24, 0xF0	; 240
     476:	80 80       	ld	r8, Z
     478:	80 7f       	andi	r24, 0xF0	; 240
     47a:	80 80       	ld	r8, Z
     47c:	80 7f       	andi	r24, 0xF0	; 240
     47e:	80 80       	ld	r8, Z
     480:	80 7f       	andi	r24, 0xF0	; 240
     482:	7f 80       	ldd	r7, Y+7	; 0x07
     484:	7f 80       	ldd	r7, Y+7	; 0x07
     486:	80 80       	ld	r8, Z
     488:	80 80       	ld	r8, Z
     48a:	7f 80       	ldd	r7, Y+7	; 0x07
     48c:	7f 7f       	andi	r23, 0xFF	; 255
     48e:	80 80       	ld	r8, Z
     490:	80 7f       	andi	r24, 0xF0	; 240
     492:	7f 80       	ldd	r7, Y+7	; 0x07
     494:	80 80       	ld	r8, Z
     496:	80 80       	ld	r8, Z
     498:	7f 80       	ldd	r7, Y+7	; 0x07
     49a:	80 80       	ld	r8, Z
     49c:	80 7f       	andi	r24, 0xF0	; 240
     49e:	80 80       	ld	r8, Z
     4a0:	80 80       	ld	r8, Z
     4a2:	80 80       	ld	r8, Z
     4a4:	80 7f       	andi	r24, 0xF0	; 240
     4a6:	80 7f       	andi	r24, 0xF0	; 240
     4a8:	80 7f       	andi	r24, 0xF0	; 240
     4aa:	7f 80       	ldd	r7, Y+7	; 0x07
     4ac:	80 7f       	andi	r24, 0xF0	; 240
     4ae:	80 80       	ld	r8, Z
     4b0:	7f 80       	ldd	r7, Y+7	; 0x07
     4b2:	7f 7f       	andi	r23, 0xFF	; 255
     4b4:	7f 7f       	andi	r23, 0xFF	; 255
     4b6:	7f 80       	ldd	r7, Y+7	; 0x07
     4b8:	80 7f       	andi	r24, 0xF0	; 240
     4ba:	80 7f       	andi	r24, 0xF0	; 240
     4bc:	80 7f       	andi	r24, 0xF0	; 240
     4be:	80 80       	ld	r8, Z
     4c0:	7f 7f       	andi	r23, 0xFF	; 255
     4c2:	80 80       	ld	r8, Z
     4c4:	80 7f       	andi	r24, 0xF0	; 240
     4c6:	80 7f       	andi	r24, 0xF0	; 240
     4c8:	7f 80       	ldd	r7, Y+7	; 0x07
     4ca:	7f 7f       	andi	r23, 0xFF	; 255
     4cc:	80 80       	ld	r8, Z
     4ce:	80 7f       	andi	r24, 0xF0	; 240
     4d0:	80 7f       	andi	r24, 0xF0	; 240
     4d2:	7f 81       	ldd	r23, Y+7	; 0x07
     4d4:	80 7f       	andi	r24, 0xF0	; 240
     4d6:	80 80       	ld	r8, Z
     4d8:	80 80       	ld	r8, Z
     4da:	81 80       	ldd	r8, Z+1	; 0x01
     4dc:	80 7f       	andi	r24, 0xF0	; 240
     4de:	7f 7f       	andi	r23, 0xFF	; 255
     4e0:	80 80       	ld	r8, Z
     4e2:	7f 7f       	andi	r23, 0xFF	; 255
     4e4:	80 80       	ld	r8, Z
     4e6:	80 7f       	andi	r24, 0xF0	; 240
     4e8:	80 80       	ld	r8, Z
     4ea:	80 7f       	andi	r24, 0xF0	; 240
     4ec:	80 80       	ld	r8, Z
     4ee:	7f 80       	ldd	r7, Y+7	; 0x07
     4f0:	7f 7f       	andi	r23, 0xFF	; 255
     4f2:	80 80       	ld	r8, Z
     4f4:	80 80       	ld	r8, Z
     4f6:	80 7f       	andi	r24, 0xF0	; 240
     4f8:	80 7f       	andi	r24, 0xF0	; 240
     4fa:	7f 7f       	andi	r23, 0xFF	; 255
     4fc:	80 80       	ld	r8, Z
     4fe:	80 80       	ld	r8, Z
     500:	80 80       	ld	r8, Z
     502:	7f 7f       	andi	r23, 0xFF	; 255
     504:	80 80       	ld	r8, Z
     506:	7f 80       	ldd	r7, Y+7	; 0x07
     508:	80 7f       	andi	r24, 0xF0	; 240
     50a:	7f 80       	ldd	r7, Y+7	; 0x07
     50c:	80 7f       	andi	r24, 0xF0	; 240
     50e:	7f 7f       	andi	r23, 0xFF	; 255
     510:	80 7f       	andi	r24, 0xF0	; 240
     512:	80 7f       	andi	r24, 0xF0	; 240
     514:	7f 80       	ldd	r7, Y+7	; 0x07
     516:	80 80       	ld	r8, Z
     518:	80 7f       	andi	r24, 0xF0	; 240
     51a:	7f 7f       	andi	r23, 0xFF	; 255
     51c:	7f 80       	ldd	r7, Y+7	; 0x07
     51e:	80 7f       	andi	r24, 0xF0	; 240
     520:	80 7f       	andi	r24, 0xF0	; 240
     522:	80 80       	ld	r8, Z
     524:	80 7f       	andi	r24, 0xF0	; 240
     526:	7f 80       	ldd	r7, Y+7	; 0x07
     528:	80 80       	ld	r8, Z
     52a:	80 80       	ld	r8, Z
     52c:	80 7f       	andi	r24, 0xF0	; 240
     52e:	7f 7f       	andi	r23, 0xFF	; 255
     530:	80 7f       	andi	r24, 0xF0	; 240
     532:	80 7f       	andi	r24, 0xF0	; 240
     534:	80 7f       	andi	r24, 0xF0	; 240
     536:	7f 80       	ldd	r7, Y+7	; 0x07
     538:	80 80       	ld	r8, Z
     53a:	80 80       	ld	r8, Z
     53c:	80 7f       	andi	r24, 0xF0	; 240
     53e:	80 7f       	andi	r24, 0xF0	; 240
     540:	80 7f       	andi	r24, 0xF0	; 240
     542:	7f 80       	ldd	r7, Y+7	; 0x07
     544:	80 7f       	andi	r24, 0xF0	; 240
     546:	7f 80       	ldd	r7, Y+7	; 0x07
     548:	80 7f       	andi	r24, 0xF0	; 240
     54a:	80 7f       	andi	r24, 0xF0	; 240
     54c:	7f 80       	ldd	r7, Y+7	; 0x07
     54e:	7f 7f       	andi	r23, 0xFF	; 255
     550:	80 80       	ld	r8, Z
     552:	80 80       	ld	r8, Z
     554:	80 80       	ld	r8, Z
     556:	80 80       	ld	r8, Z
     558:	80 7f       	andi	r24, 0xF0	; 240
     55a:	80 7f       	andi	r24, 0xF0	; 240
     55c:	7f 7f       	andi	r23, 0xFF	; 255
     55e:	80 80       	ld	r8, Z
     560:	80 80       	ld	r8, Z
     562:	80 7f       	andi	r24, 0xF0	; 240
     564:	80 7f       	andi	r24, 0xF0	; 240
     566:	7f 7f       	andi	r23, 0xFF	; 255
     568:	80 7f       	andi	r24, 0xF0	; 240
     56a:	7f 7f       	andi	r23, 0xFF	; 255
     56c:	80 80       	ld	r8, Z
     56e:	80 80       	ld	r8, Z
     570:	80 80       	ld	r8, Z
     572:	80 80       	ld	r8, Z
     574:	7f 80       	ldd	r7, Y+7	; 0x07
     576:	7f 7f       	andi	r23, 0xFF	; 255
     578:	7f 7f       	andi	r23, 0xFF	; 255
     57a:	7f 80       	ldd	r7, Y+7	; 0x07
     57c:	80 80       	ld	r8, Z
     57e:	7f 80       	ldd	r7, Y+7	; 0x07
     580:	7f 80       	ldd	r7, Y+7	; 0x07
     582:	7f 7f       	andi	r23, 0xFF	; 255
     584:	80 80       	ld	r8, Z
     586:	7f 7f       	andi	r23, 0xFF	; 255
     588:	7f 80       	ldd	r7, Y+7	; 0x07
     58a:	7f 80       	ldd	r7, Y+7	; 0x07
     58c:	7f 80       	ldd	r7, Y+7	; 0x07
     58e:	80 80       	ld	r8, Z
     590:	80 7f       	andi	r24, 0xF0	; 240
     592:	80 80       	ld	r8, Z
     594:	80 80       	ld	r8, Z
     596:	7f 80       	ldd	r7, Y+7	; 0x07
     598:	7f 7f       	andi	r23, 0xFF	; 255
     59a:	80 7f       	andi	r24, 0xF0	; 240
     59c:	80 7f       	andi	r24, 0xF0	; 240
     59e:	80 80       	ld	r8, Z
     5a0:	80 80       	ld	r8, Z
     5a2:	80 80       	ld	r8, Z
     5a4:	80 7f       	andi	r24, 0xF0	; 240
     5a6:	80 7f       	andi	r24, 0xF0	; 240
     5a8:	7f 80       	ldd	r7, Y+7	; 0x07
     5aa:	7f 7f       	andi	r23, 0xFF	; 255
     5ac:	80 7f       	andi	r24, 0xF0	; 240
     5ae:	7f 7f       	andi	r23, 0xFF	; 255
     5b0:	7f 80       	ldd	r7, Y+7	; 0x07
     5b2:	7f 80       	ldd	r7, Y+7	; 0x07
     5b4:	80 80       	ld	r8, Z
     5b6:	80 80       	ld	r8, Z
     5b8:	80 7f       	andi	r24, 0xF0	; 240
     5ba:	80 80       	ld	r8, Z
     5bc:	7f 80       	ldd	r7, Y+7	; 0x07
     5be:	80 7f       	andi	r24, 0xF0	; 240
     5c0:	7f 80       	ldd	r7, Y+7	; 0x07
     5c2:	7f 7f       	andi	r23, 0xFF	; 255
     5c4:	80 80       	ld	r8, Z
     5c6:	80 7f       	andi	r24, 0xF0	; 240
     5c8:	7f 80       	ldd	r7, Y+7	; 0x07
     5ca:	80 7f       	andi	r24, 0xF0	; 240
     5cc:	80 7f       	andi	r24, 0xF0	; 240
     5ce:	80 80       	ld	r8, Z
     5d0:	80 7f       	andi	r24, 0xF0	; 240
     5d2:	80 80       	ld	r8, Z
     5d4:	7f 80       	ldd	r7, Y+7	; 0x07
     5d6:	80 80       	ld	r8, Z
     5d8:	7f 7f       	andi	r23, 0xFF	; 255
     5da:	80 7f       	andi	r24, 0xF0	; 240
     5dc:	7f 80       	ldd	r7, Y+7	; 0x07
     5de:	80 7f       	andi	r24, 0xF0	; 240
     5e0:	80 7f       	andi	r24, 0xF0	; 240
     5e2:	7f 7f       	andi	r23, 0xFF	; 255
     5e4:	80 7f       	andi	r24, 0xF0	; 240
     5e6:	80 80       	ld	r8, Z
     5e8:	80 80       	ld	r8, Z
     5ea:	80 80       	ld	r8, Z
     5ec:	7f 80       	ldd	r7, Y+7	; 0x07
     5ee:	7f 7f       	andi	r23, 0xFF	; 255
     5f0:	80 80       	ld	r8, Z
     5f2:	80 80       	ld	r8, Z
     5f4:	80 7f       	andi	r24, 0xF0	; 240
     5f6:	7f 80       	ldd	r7, Y+7	; 0x07
     5f8:	7f 80       	ldd	r7, Y+7	; 0x07
     5fa:	80 80       	ld	r8, Z
     5fc:	80 7f       	andi	r24, 0xF0	; 240
     5fe:	7f 7f       	andi	r23, 0xFF	; 255
     600:	80 80       	ld	r8, Z
     602:	7f 7f       	andi	r23, 0xFF	; 255
     604:	80 80       	ld	r8, Z
     606:	7f 80       	ldd	r7, Y+7	; 0x07
     608:	80 7f       	andi	r24, 0xF0	; 240
     60a:	7f 80       	ldd	r7, Y+7	; 0x07
     60c:	7f 80       	ldd	r7, Y+7	; 0x07
     60e:	80 80       	ld	r8, Z
     610:	80 7f       	andi	r24, 0xF0	; 240
     612:	80 80       	ld	r8, Z
     614:	80 7f       	andi	r24, 0xF0	; 240
     616:	80 80       	ld	r8, Z
     618:	80 80       	ld	r8, Z
     61a:	7f 7f       	andi	r23, 0xFF	; 255
     61c:	7f 80       	ldd	r7, Y+7	; 0x07
     61e:	80 7f       	andi	r24, 0xF0	; 240
     620:	80 7f       	andi	r24, 0xF0	; 240
     622:	7f 80       	ldd	r7, Y+7	; 0x07
     624:	80 80       	ld	r8, Z
     626:	80 80       	ld	r8, Z
     628:	80 7f       	andi	r24, 0xF0	; 240
     62a:	80 80       	ld	r8, Z
     62c:	80 7f       	andi	r24, 0xF0	; 240
     62e:	80 7f       	andi	r24, 0xF0	; 240
     630:	7f 7f       	andi	r23, 0xFF	; 255
     632:	7f 80       	ldd	r7, Y+7	; 0x07
     634:	7f 81       	ldd	r23, Y+7	; 0x07
     636:	80 80       	ld	r8, Z
     638:	80 80       	ld	r8, Z
     63a:	81 7f       	andi	r24, 0xF1	; 241
     63c:	7f 7f       	andi	r23, 0xFF	; 255
     63e:	80 7f       	andi	r24, 0xF0	; 240
     640:	80 7f       	andi	r24, 0xF0	; 240
     642:	80 80       	ld	r8, Z
     644:	80 80       	ld	r8, Z
     646:	80 80       	ld	r8, Z
     648:	80 7f       	andi	r24, 0xF0	; 240
     64a:	80 7f       	andi	r24, 0xF0	; 240
     64c:	7f 80       	ldd	r7, Y+7	; 0x07
     64e:	80 80       	ld	r8, Z
     650:	80 7f       	andi	r24, 0xF0	; 240
     652:	80 80       	ld	r8, Z
     654:	7f 80       	ldd	r7, Y+7	; 0x07
     656:	80 7f       	andi	r24, 0xF0	; 240
     658:	7f 80       	ldd	r7, Y+7	; 0x07
     65a:	80 80       	ld	r8, Z
     65c:	7f 7f       	andi	r23, 0xFF	; 255
     65e:	80 80       	ld	r8, Z
     660:	80 80       	ld	r8, Z
     662:	7f 7f       	andi	r23, 0xFF	; 255
     664:	7f 80       	ldd	r7, Y+7	; 0x07
     666:	80 7f       	andi	r24, 0xF0	; 240
     668:	7f 7f       	andi	r23, 0xFF	; 255
     66a:	80 7f       	andi	r24, 0xF0	; 240
     66c:	80 7f       	andi	r24, 0xF0	; 240
     66e:	7f 7f       	andi	r23, 0xFF	; 255
     670:	80 80       	ld	r8, Z
     672:	80 7f       	andi	r24, 0xF0	; 240
     674:	80 7f       	andi	r24, 0xF0	; 240
     676:	80 7f       	andi	r24, 0xF0	; 240
     678:	80 7f       	andi	r24, 0xF0	; 240
     67a:	7f 7f       	andi	r23, 0xFF	; 255
     67c:	7f 80       	ldd	r7, Y+7	; 0x07
     67e:	80 80       	ld	r8, Z
     680:	80 80       	ld	r8, Z
     682:	80 7f       	andi	r24, 0xF0	; 240
     684:	80 80       	ld	r8, Z
     686:	80 7f       	andi	r24, 0xF0	; 240
     688:	80 7f       	andi	r24, 0xF0	; 240
     68a:	80 80       	ld	r8, Z
     68c:	7f 80       	ldd	r7, Y+7	; 0x07
     68e:	7f 7f       	andi	r23, 0xFF	; 255
     690:	80 80       	ld	r8, Z
     692:	7f 80       	ldd	r7, Y+7	; 0x07
     694:	80 7f       	andi	r24, 0xF0	; 240
     696:	80 7f       	andi	r24, 0xF0	; 240
     698:	80 80       	ld	r8, Z
     69a:	7f 80       	ldd	r7, Y+7	; 0x07
     69c:	7f 80       	ldd	r7, Y+7	; 0x07
     69e:	80 7f       	andi	r24, 0xF0	; 240
     6a0:	81 7f       	andi	r24, 0xF1	; 241
     6a2:	7f 80       	ldd	r7, Y+7	; 0x07
     6a4:	80 80       	ld	r8, Z
     6a6:	7f 7f       	andi	r23, 0xFF	; 255
     6a8:	80 7f       	andi	r24, 0xF0	; 240
     6aa:	80 7f       	andi	r24, 0xF0	; 240
     6ac:	80 80       	ld	r8, Z
     6ae:	7f 80       	ldd	r7, Y+7	; 0x07
     6b0:	7f 80       	ldd	r7, Y+7	; 0x07
     6b2:	80 7f       	andi	r24, 0xF0	; 240
     6b4:	7f 80       	ldd	r7, Y+7	; 0x07
     6b6:	7f 7f       	andi	r23, 0xFF	; 255
     6b8:	80 80       	ld	r8, Z
     6ba:	80 7f       	andi	r24, 0xF0	; 240
     6bc:	80 80       	ld	r8, Z
     6be:	7f 7f       	andi	r23, 0xFF	; 255
     6c0:	7f 81       	ldd	r23, Y+7	; 0x07
     6c2:	80 7f       	andi	r24, 0xF0	; 240
     6c4:	7f 80       	ldd	r7, Y+7	; 0x07
     6c6:	80 7f       	andi	r24, 0xF0	; 240
     6c8:	7f 7f       	andi	r23, 0xFF	; 255
     6ca:	80 7f       	andi	r24, 0xF0	; 240
     6cc:	80 7f       	andi	r24, 0xF0	; 240
     6ce:	7f 7f       	andi	r23, 0xFF	; 255
     6d0:	80 7f       	andi	r24, 0xF0	; 240
     6d2:	80 80       	ld	r8, Z
     6d4:	80 7f       	andi	r24, 0xF0	; 240
     6d6:	7f 80       	ldd	r7, Y+7	; 0x07
     6d8:	80 80       	ld	r8, Z
     6da:	7f 7f       	andi	r23, 0xFF	; 255
     6dc:	7f 80       	ldd	r7, Y+7	; 0x07
     6de:	80 80       	ld	r8, Z
     6e0:	80 80       	ld	r8, Z
     6e2:	7f 7f       	andi	r23, 0xFF	; 255
     6e4:	7f 7f       	andi	r23, 0xFF	; 255
     6e6:	80 80       	ld	r8, Z
     6e8:	80 80       	ld	r8, Z
     6ea:	7f 80       	ldd	r7, Y+7	; 0x07
     6ec:	7f 80       	ldd	r7, Y+7	; 0x07
     6ee:	80 7f       	andi	r24, 0xF0	; 240
     6f0:	80 80       	ld	r8, Z
     6f2:	80 80       	ld	r8, Z
     6f4:	7f 80       	ldd	r7, Y+7	; 0x07
     6f6:	7f 7f       	andi	r23, 0xFF	; 255
     6f8:	7f 80       	ldd	r7, Y+7	; 0x07
     6fa:	80 80       	ld	r8, Z
     6fc:	80 7f       	andi	r24, 0xF0	; 240
     6fe:	80 80       	ld	r8, Z
     700:	80 80       	ld	r8, Z
     702:	7f 7f       	andi	r23, 0xFF	; 255
     704:	7f 80       	ldd	r7, Y+7	; 0x07
     706:	80 7f       	andi	r24, 0xF0	; 240
     708:	7f 80       	ldd	r7, Y+7	; 0x07
     70a:	80 7f       	andi	r24, 0xF0	; 240
     70c:	7f 80       	ldd	r7, Y+7	; 0x07
     70e:	7f 80       	ldd	r7, Y+7	; 0x07
     710:	7f 80       	ldd	r7, Y+7	; 0x07
     712:	80 80       	ld	r8, Z
     714:	7f 7f       	andi	r23, 0xFF	; 255
     716:	7f 80       	ldd	r7, Y+7	; 0x07
     718:	80 80       	ld	r8, Z
     71a:	7f 80       	ldd	r7, Y+7	; 0x07
     71c:	80 80       	ld	r8, Z
     71e:	80 80       	ld	r8, Z
     720:	7f 7f       	andi	r23, 0xFF	; 255
     722:	7f 80       	ldd	r7, Y+7	; 0x07
     724:	7f 7f       	andi	r23, 0xFF	; 255
     726:	80 80       	ld	r8, Z
     728:	80 7f       	andi	r24, 0xF0	; 240
     72a:	80 80       	ld	r8, Z
     72c:	81 7f       	andi	r24, 0xF1	; 241
     72e:	7f 7f       	andi	r23, 0xFF	; 255
     730:	7f 7f       	andi	r23, 0xFF	; 255
     732:	7f 7f       	andi	r23, 0xFF	; 255
     734:	7f 80       	ldd	r7, Y+7	; 0x07
     736:	80 80       	ld	r8, Z
     738:	7f 7f       	andi	r23, 0xFF	; 255
     73a:	7f 7f       	andi	r23, 0xFF	; 255
     73c:	80 7f       	andi	r24, 0xF0	; 240
     73e:	7f 7f       	andi	r23, 0xFF	; 255
     740:	7f 7f       	andi	r23, 0xFF	; 255
     742:	81 7f       	andi	r24, 0xF1	; 241
     744:	7f 80       	ldd	r7, Y+7	; 0x07
     746:	80 7f       	andi	r24, 0xF0	; 240
     748:	80 80       	ld	r8, Z
     74a:	80 80       	ld	r8, Z
     74c:	80 80       	ld	r8, Z
     74e:	80 80       	ld	r8, Z
     750:	7f 80       	ldd	r7, Y+7	; 0x07
     752:	80 7f       	andi	r24, 0xF0	; 240
     754:	80 80       	ld	r8, Z
     756:	80 7f       	andi	r24, 0xF0	; 240
     758:	80 80       	ld	r8, Z
     75a:	80 80       	ld	r8, Z
     75c:	7f 7f       	andi	r23, 0xFF	; 255
     75e:	80 7f       	andi	r24, 0xF0	; 240
     760:	80 80       	ld	r8, Z
     762:	7f 7f       	andi	r23, 0xFF	; 255
     764:	80 80       	ld	r8, Z
     766:	7f 80       	ldd	r7, Y+7	; 0x07
     768:	80 80       	ld	r8, Z
     76a:	80 80       	ld	r8, Z
     76c:	81 80       	ldd	r8, Z+1	; 0x01
     76e:	7f 7f       	andi	r23, 0xFF	; 255
     770:	80 81       	ld	r24, Z
     772:	80 80       	ld	r8, Z
     774:	80 80       	ld	r8, Z
     776:	80 80       	ld	r8, Z
     778:	7f 80       	ldd	r7, Y+7	; 0x07
     77a:	80 80       	ld	r8, Z
     77c:	80 80       	ld	r8, Z
     77e:	80 80       	ld	r8, Z
     780:	7f 80       	ldd	r7, Y+7	; 0x07
     782:	80 7f       	andi	r24, 0xF0	; 240
     784:	80 80       	ld	r8, Z
     786:	80 80       	ld	r8, Z
     788:	7f 80       	ldd	r7, Y+7	; 0x07
     78a:	7f 80       	ldd	r7, Y+7	; 0x07
     78c:	80 80       	ld	r8, Z
     78e:	80 80       	ld	r8, Z
     790:	80 80       	ld	r8, Z
     792:	7f 7f       	andi	r23, 0xFF	; 255
     794:	80 7f       	andi	r24, 0xF0	; 240
     796:	7f 80       	ldd	r7, Y+7	; 0x07
     798:	80 7f       	andi	r24, 0xF0	; 240
     79a:	80 7f       	andi	r24, 0xF0	; 240
     79c:	7f 7f       	andi	r23, 0xFF	; 255
     79e:	80 80       	ld	r8, Z
     7a0:	80 80       	ld	r8, Z
     7a2:	80 7f       	andi	r24, 0xF0	; 240
     7a4:	80 80       	ld	r8, Z
     7a6:	7f 80       	ldd	r7, Y+7	; 0x07
     7a8:	80 80       	ld	r8, Z
     7aa:	80 80       	ld	r8, Z
     7ac:	7f 80       	ldd	r7, Y+7	; 0x07
     7ae:	80 80       	ld	r8, Z
     7b0:	80 7f       	andi	r24, 0xF0	; 240
     7b2:	80 80       	ld	r8, Z
     7b4:	80 80       	ld	r8, Z
     7b6:	80 80       	ld	r8, Z
     7b8:	80 7f       	andi	r24, 0xF0	; 240
     7ba:	7f 7f       	andi	r23, 0xFF	; 255
     7bc:	7f 7f       	andi	r23, 0xFF	; 255
     7be:	80 7f       	andi	r24, 0xF0	; 240
     7c0:	7f 7f       	andi	r23, 0xFF	; 255
     7c2:	7f 7f       	andi	r23, 0xFF	; 255
     7c4:	7f 7f       	andi	r23, 0xFF	; 255
     7c6:	80 80       	ld	r8, Z
     7c8:	7f 7f       	andi	r23, 0xFF	; 255
     7ca:	7f 80       	ldd	r7, Y+7	; 0x07
     7cc:	7f 80       	ldd	r7, Y+7	; 0x07
     7ce:	80 7f       	andi	r24, 0xF0	; 240
     7d0:	80 7f       	andi	r24, 0xF0	; 240
     7d2:	80 80       	ld	r8, Z
     7d4:	80 80       	ld	r8, Z
     7d6:	7f 7f       	andi	r23, 0xFF	; 255
     7d8:	80 80       	ld	r8, Z
     7da:	80 80       	ld	r8, Z
     7dc:	80 7f       	andi	r24, 0xF0	; 240
     7de:	7f 80       	ldd	r7, Y+7	; 0x07
     7e0:	7f 80       	ldd	r7, Y+7	; 0x07
     7e2:	80 80       	ld	r8, Z
     7e4:	7f 80       	ldd	r7, Y+7	; 0x07
     7e6:	7f 80       	ldd	r7, Y+7	; 0x07
     7e8:	7f 80       	ldd	r7, Y+7	; 0x07
     7ea:	80 80       	ld	r8, Z
     7ec:	7f 80       	ldd	r7, Y+7	; 0x07
     7ee:	80 7f       	andi	r24, 0xF0	; 240
     7f0:	80 80       	ld	r8, Z
     7f2:	80 7f       	andi	r24, 0xF0	; 240
     7f4:	80 80       	ld	r8, Z
     7f6:	7f 7f       	andi	r23, 0xFF	; 255
     7f8:	80 7f       	andi	r24, 0xF0	; 240
     7fa:	80 7f       	andi	r24, 0xF0	; 240
     7fc:	7f 80       	ldd	r7, Y+7	; 0x07
     7fe:	7f 80       	ldd	r7, Y+7	; 0x07
     800:	7f 7f       	andi	r23, 0xFF	; 255
     802:	80 80       	ld	r8, Z
     804:	7f 80       	ldd	r7, Y+7	; 0x07
     806:	80 80       	ld	r8, Z
     808:	7f 7f       	andi	r23, 0xFF	; 255
     80a:	80 81       	ld	r24, Z
     80c:	80 80       	ld	r8, Z
     80e:	80 7f       	andi	r24, 0xF0	; 240
     810:	80 7f       	andi	r24, 0xF0	; 240
     812:	80 7f       	andi	r24, 0xF0	; 240
     814:	80 80       	ld	r8, Z
     816:	7f 7f       	andi	r23, 0xFF	; 255
     818:	80 80       	ld	r8, Z
     81a:	7f 80       	ldd	r7, Y+7	; 0x07
     81c:	80 80       	ld	r8, Z
     81e:	80 80       	ld	r8, Z
     820:	7f 80       	ldd	r7, Y+7	; 0x07
     822:	80 80       	ld	r8, Z
     824:	80 7f       	andi	r24, 0xF0	; 240
     826:	7f 80       	ldd	r7, Y+7	; 0x07
     828:	7f 80       	ldd	r7, Y+7	; 0x07
     82a:	7f 7f       	andi	r23, 0xFF	; 255
     82c:	7f 7f       	andi	r23, 0xFF	; 255
     82e:	81 80       	ldd	r8, Z+1	; 0x01
     830:	80 7f       	andi	r24, 0xF0	; 240
     832:	80 7f       	andi	r24, 0xF0	; 240
     834:	80 7f       	andi	r24, 0xF0	; 240
     836:	80 7f       	andi	r24, 0xF0	; 240
     838:	7f 80       	ldd	r7, Y+7	; 0x07
     83a:	80 7f       	andi	r24, 0xF0	; 240
     83c:	80 80       	ld	r8, Z
     83e:	80 7f       	andi	r24, 0xF0	; 240
     840:	80 80       	ld	r8, Z
     842:	7f 80       	ldd	r7, Y+7	; 0x07
     844:	80 7f       	andi	r24, 0xF0	; 240
     846:	80 7f       	andi	r24, 0xF0	; 240
     848:	7f 7f       	andi	r23, 0xFF	; 255
     84a:	7f 80       	ldd	r7, Y+7	; 0x07
     84c:	7f 7f       	andi	r23, 0xFF	; 255
     84e:	80 7f       	andi	r24, 0xF0	; 240
     850:	7f 7f       	andi	r23, 0xFF	; 255
     852:	7f 7f       	andi	r23, 0xFF	; 255
     854:	80 80       	ld	r8, Z
     856:	7f 80       	ldd	r7, Y+7	; 0x07
     858:	7f 80       	ldd	r7, Y+7	; 0x07
     85a:	80 80       	ld	r8, Z
     85c:	7f 81       	ldd	r23, Y+7	; 0x07
     85e:	80 7f       	andi	r24, 0xF0	; 240
     860:	80 7f       	andi	r24, 0xF0	; 240
     862:	80 80       	ld	r8, Z
     864:	80 80       	ld	r8, Z
     866:	7f 80       	ldd	r7, Y+7	; 0x07
     868:	80 80       	ld	r8, Z
     86a:	7f 7f       	andi	r23, 0xFF	; 255
     86c:	7f 80       	ldd	r7, Y+7	; 0x07
     86e:	80 80       	ld	r8, Z
     870:	80 80       	ld	r8, Z
     872:	80 80       	ld	r8, Z
     874:	80 7f       	andi	r24, 0xF0	; 240
     876:	7f 80       	ldd	r7, Y+7	; 0x07
     878:	80 7f       	andi	r24, 0xF0	; 240
     87a:	7f 80       	ldd	r7, Y+7	; 0x07
     87c:	80 7f       	andi	r24, 0xF0	; 240
     87e:	80 7f       	andi	r24, 0xF0	; 240
     880:	7f 80       	ldd	r7, Y+7	; 0x07
     882:	80 7f       	andi	r24, 0xF0	; 240
     884:	80 80       	ld	r8, Z
     886:	80 80       	ld	r8, Z
     888:	80 7f       	andi	r24, 0xF0	; 240
     88a:	80 7f       	andi	r24, 0xF0	; 240
     88c:	7f 7f       	andi	r23, 0xFF	; 255
     88e:	80 80       	ld	r8, Z
     890:	80 80       	ld	r8, Z
     892:	7f 80       	ldd	r7, Y+7	; 0x07
     894:	7f 7f       	andi	r23, 0xFF	; 255
     896:	80 7f       	andi	r24, 0xF0	; 240
     898:	7f 80       	ldd	r7, Y+7	; 0x07
     89a:	80 80       	ld	r8, Z
     89c:	80 80       	ld	r8, Z
     89e:	7f 80       	ldd	r7, Y+7	; 0x07
     8a0:	80 80       	ld	r8, Z
     8a2:	7f 80       	ldd	r7, Y+7	; 0x07
     8a4:	80 80       	ld	r8, Z
     8a6:	80 7f       	andi	r24, 0xF0	; 240
     8a8:	80 80       	ld	r8, Z
     8aa:	7f 7f       	andi	r23, 0xFF	; 255
     8ac:	80 80       	ld	r8, Z
     8ae:	80 80       	ld	r8, Z
     8b0:	7f 80       	ldd	r7, Y+7	; 0x07
     8b2:	7f 7f       	andi	r23, 0xFF	; 255
     8b4:	80 7f       	andi	r24, 0xF0	; 240
     8b6:	7f 80       	ldd	r7, Y+7	; 0x07
     8b8:	80 7f       	andi	r24, 0xF0	; 240
     8ba:	80 7f       	andi	r24, 0xF0	; 240
     8bc:	7f 80       	ldd	r7, Y+7	; 0x07
     8be:	7f 80       	ldd	r7, Y+7	; 0x07
     8c0:	80 80       	ld	r8, Z
     8c2:	7f 80       	ldd	r7, Y+7	; 0x07
     8c4:	7f 80       	ldd	r7, Y+7	; 0x07
     8c6:	7f 80       	ldd	r7, Y+7	; 0x07
     8c8:	80 7f       	andi	r24, 0xF0	; 240
     8ca:	80 80       	ld	r8, Z
     8cc:	80 80       	ld	r8, Z
     8ce:	80 7f       	andi	r24, 0xF0	; 240
     8d0:	80 7f       	andi	r24, 0xF0	; 240
     8d2:	7f 80       	ldd	r7, Y+7	; 0x07
     8d4:	7f 7f       	andi	r23, 0xFF	; 255
     8d6:	80 7f       	andi	r24, 0xF0	; 240
     8d8:	80 80       	ld	r8, Z
     8da:	80 80       	ld	r8, Z
     8dc:	80 7f       	andi	r24, 0xF0	; 240
     8de:	80 80       	ld	r8, Z
     8e0:	7f 80       	ldd	r7, Y+7	; 0x07
     8e2:	7f 80       	ldd	r7, Y+7	; 0x07
     8e4:	80 7f       	andi	r24, 0xF0	; 240
     8e6:	7f 7f       	andi	r23, 0xFF	; 255
     8e8:	7f 80       	ldd	r7, Y+7	; 0x07
     8ea:	80 7f       	andi	r24, 0xF0	; 240
     8ec:	7f 80       	ldd	r7, Y+7	; 0x07
     8ee:	7f 80       	ldd	r7, Y+7	; 0x07
     8f0:	80 80       	ld	r8, Z
     8f2:	80 80       	ld	r8, Z
     8f4:	7f 80       	ldd	r7, Y+7	; 0x07
     8f6:	7f 80       	ldd	r7, Y+7	; 0x07
     8f8:	7f 80       	ldd	r7, Y+7	; 0x07
     8fa:	80 80       	ld	r8, Z
     8fc:	80 7f       	andi	r24, 0xF0	; 240
     8fe:	80 7f       	andi	r24, 0xF0	; 240
     900:	7f 80       	ldd	r7, Y+7	; 0x07
     902:	80 7f       	andi	r24, 0xF0	; 240
     904:	80 80       	ld	r8, Z
     906:	7f 80       	ldd	r7, Y+7	; 0x07
     908:	80 7f       	andi	r24, 0xF0	; 240
     90a:	80 80       	ld	r8, Z
     90c:	80 80       	ld	r8, Z
     90e:	80 80       	ld	r8, Z
     910:	7f 7f       	andi	r23, 0xFF	; 255
     912:	80 80       	ld	r8, Z
     914:	7f 80       	ldd	r7, Y+7	; 0x07
     916:	7f 80       	ldd	r7, Y+7	; 0x07
     918:	7f 7f       	andi	r23, 0xFF	; 255
     91a:	7f 7f       	andi	r23, 0xFF	; 255
     91c:	7f 80       	ldd	r7, Y+7	; 0x07
     91e:	80 80       	ld	r8, Z
     920:	80 7f       	andi	r24, 0xF0	; 240
     922:	80 7f       	andi	r24, 0xF0	; 240
     924:	7f 80       	ldd	r7, Y+7	; 0x07
     926:	80 7f       	andi	r24, 0xF0	; 240
     928:	7f 80       	ldd	r7, Y+7	; 0x07
     92a:	7f 80       	ldd	r7, Y+7	; 0x07
     92c:	80 80       	ld	r8, Z
     92e:	7f 80       	ldd	r7, Y+7	; 0x07
     930:	80 7f       	andi	r24, 0xF0	; 240
     932:	80 7f       	andi	r24, 0xF0	; 240
     934:	80 80       	ld	r8, Z
     936:	80 7f       	andi	r24, 0xF0	; 240
     938:	7f 80       	ldd	r7, Y+7	; 0x07
     93a:	7f 7f       	andi	r23, 0xFF	; 255
     93c:	80 7f       	andi	r24, 0xF0	; 240
     93e:	80 7f       	andi	r24, 0xF0	; 240
     940:	7f 80       	ldd	r7, Y+7	; 0x07
     942:	80 80       	ld	r8, Z
     944:	80 7f       	andi	r24, 0xF0	; 240
     946:	7f 80       	ldd	r7, Y+7	; 0x07
     948:	80 80       	ld	r8, Z
     94a:	7f 80       	ldd	r7, Y+7	; 0x07
     94c:	80 7f       	andi	r24, 0xF0	; 240
     94e:	80 7f       	andi	r24, 0xF0	; 240
     950:	80 80       	ld	r8, Z
     952:	7f 80       	ldd	r7, Y+7	; 0x07
     954:	7f 7f       	andi	r23, 0xFF	; 255
     956:	80 81       	ld	r24, Z
     958:	80 7f       	andi	r24, 0xF0	; 240
     95a:	80 80       	ld	r8, Z
     95c:	7f 80       	ldd	r7, Y+7	; 0x07
     95e:	7f 80       	ldd	r7, Y+7	; 0x07
     960:	80 7f       	andi	r24, 0xF0	; 240
     962:	80 80       	ld	r8, Z
     964:	80 7f       	andi	r24, 0xF0	; 240
     966:	80 80       	ld	r8, Z
     968:	7f 80       	ldd	r7, Y+7	; 0x07
     96a:	7f 7f       	andi	r23, 0xFF	; 255
     96c:	80 7f       	andi	r24, 0xF0	; 240
     96e:	80 7f       	andi	r24, 0xF0	; 240
     970:	7f 80       	ldd	r7, Y+7	; 0x07
     972:	7f 7f       	andi	r23, 0xFF	; 255
     974:	7f 7f       	andi	r23, 0xFF	; 255
     976:	7f 7f       	andi	r23, 0xFF	; 255
     978:	80 80       	ld	r8, Z
     97a:	80 80       	ld	r8, Z
     97c:	80 80       	ld	r8, Z
     97e:	7f 7f       	andi	r23, 0xFF	; 255
     980:	7f 7f       	andi	r23, 0xFF	; 255
     982:	7f 80       	ldd	r7, Y+7	; 0x07
     984:	80 7f       	andi	r24, 0xF0	; 240
     986:	7f 80       	ldd	r7, Y+7	; 0x07
     988:	80 80       	ld	r8, Z
     98a:	80 7f       	andi	r24, 0xF0	; 240
     98c:	80 80       	ld	r8, Z
     98e:	7f 80       	ldd	r7, Y+7	; 0x07
     990:	7f 80       	ldd	r7, Y+7	; 0x07
     992:	80 80       	ld	r8, Z
     994:	7f 80       	ldd	r7, Y+7	; 0x07
     996:	7f 80       	ldd	r7, Y+7	; 0x07
     998:	7f 80       	ldd	r7, Y+7	; 0x07
     99a:	80 7f       	andi	r24, 0xF0	; 240
     99c:	7f 80       	ldd	r7, Y+7	; 0x07
     99e:	80 80       	ld	r8, Z
     9a0:	7f 80       	ldd	r7, Y+7	; 0x07
     9a2:	80 80       	ld	r8, Z
     9a4:	80 80       	ld	r8, Z
     9a6:	7f 7f       	andi	r23, 0xFF	; 255
     9a8:	80 7f       	andi	r24, 0xF0	; 240
     9aa:	7f 80       	ldd	r7, Y+7	; 0x07
     9ac:	80 80       	ld	r8, Z
     9ae:	7f 80       	ldd	r7, Y+7	; 0x07
     9b0:	7f 7f       	andi	r23, 0xFF	; 255
     9b2:	80 7f       	andi	r24, 0xF0	; 240
     9b4:	80 7f       	andi	r24, 0xF0	; 240
     9b6:	80 7f       	andi	r24, 0xF0	; 240
     9b8:	7f 80       	ldd	r7, Y+7	; 0x07
     9ba:	7f 80       	ldd	r7, Y+7	; 0x07
     9bc:	80 7f       	andi	r24, 0xF0	; 240
     9be:	7f 80       	ldd	r7, Y+7	; 0x07
     9c0:	80 7f       	andi	r24, 0xF0	; 240
     9c2:	80 7f       	andi	r24, 0xF0	; 240
     9c4:	80 7f       	andi	r24, 0xF0	; 240
     9c6:	80 80       	ld	r8, Z
     9c8:	80 80       	ld	r8, Z
     9ca:	80 7f       	andi	r24, 0xF0	; 240
     9cc:	80 80       	ld	r8, Z
     9ce:	80 80       	ld	r8, Z
     9d0:	80 80       	ld	r8, Z
     9d2:	80 80       	ld	r8, Z
     9d4:	80 80       	ld	r8, Z
     9d6:	80 80       	ld	r8, Z
     9d8:	7f 7f       	andi	r23, 0xFF	; 255
     9da:	80 80       	ld	r8, Z
     9dc:	80 80       	ld	r8, Z
     9de:	7f 80       	ldd	r7, Y+7	; 0x07
     9e0:	80 7f       	andi	r24, 0xF0	; 240
     9e2:	7f 7f       	andi	r23, 0xFF	; 255
     9e4:	7f 80       	ldd	r7, Y+7	; 0x07
     9e6:	80 80       	ld	r8, Z
     9e8:	7f 80       	ldd	r7, Y+7	; 0x07
     9ea:	7f 7f       	andi	r23, 0xFF	; 255
     9ec:	7f 80       	ldd	r7, Y+7	; 0x07
     9ee:	80 7f       	andi	r24, 0xF0	; 240
     9f0:	7f 80       	ldd	r7, Y+7	; 0x07
     9f2:	80 7f       	andi	r24, 0xF0	; 240
     9f4:	7f 7f       	andi	r23, 0xFF	; 255
     9f6:	7f 80       	ldd	r7, Y+7	; 0x07
     9f8:	7f 80       	ldd	r7, Y+7	; 0x07
     9fa:	7f 80       	ldd	r7, Y+7	; 0x07
     9fc:	80 80       	ld	r8, Z
     9fe:	7f 7f       	andi	r23, 0xFF	; 255
     a00:	7f 80       	ldd	r7, Y+7	; 0x07
     a02:	7f 80       	ldd	r7, Y+7	; 0x07
     a04:	7f 7f       	andi	r23, 0xFF	; 255
     a06:	7f 7f       	andi	r23, 0xFF	; 255
     a08:	7f 80       	ldd	r7, Y+7	; 0x07
     a0a:	7f 7f       	andi	r23, 0xFF	; 255
     a0c:	80 80       	ld	r8, Z
     a0e:	80 80       	ld	r8, Z
     a10:	80 80       	ld	r8, Z
     a12:	7f 80       	ldd	r7, Y+7	; 0x07
     a14:	7f 7f       	andi	r23, 0xFF	; 255
     a16:	80 81       	ld	r24, Z
     a18:	80 7f       	andi	r24, 0xF0	; 240
     a1a:	80 7f       	andi	r24, 0xF0	; 240
     a1c:	80 7f       	andi	r24, 0xF0	; 240
     a1e:	80 7f       	andi	r24, 0xF0	; 240
     a20:	7f 7f       	andi	r23, 0xFF	; 255
     a22:	80 7f       	andi	r24, 0xF0	; 240
     a24:	81 80       	ldd	r8, Z+1	; 0x01
     a26:	80 80       	ld	r8, Z
     a28:	80 7f       	andi	r24, 0xF0	; 240
     a2a:	7f 7f       	andi	r23, 0xFF	; 255
     a2c:	80 80       	ld	r8, Z
     a2e:	80 7f       	andi	r24, 0xF0	; 240
     a30:	80 80       	ld	r8, Z
     a32:	7f 7f       	andi	r23, 0xFF	; 255
     a34:	81 7f       	andi	r24, 0xF1	; 241
     a36:	7f 7f       	andi	r23, 0xFF	; 255
     a38:	80 7f       	andi	r24, 0xF0	; 240
     a3a:	80 80       	ld	r8, Z
     a3c:	7f 7f       	andi	r23, 0xFF	; 255
     a3e:	80 7f       	andi	r24, 0xF0	; 240
     a40:	80 80       	ld	r8, Z
     a42:	80 80       	ld	r8, Z
     a44:	80 80       	ld	r8, Z
     a46:	80 7f       	andi	r24, 0xF0	; 240
     a48:	80 80       	ld	r8, Z
     a4a:	80 80       	ld	r8, Z
     a4c:	7f 7f       	andi	r23, 0xFF	; 255
     a4e:	80 7f       	andi	r24, 0xF0	; 240
     a50:	80 7f       	andi	r24, 0xF0	; 240
     a52:	80 80       	ld	r8, Z
     a54:	7f 80       	ldd	r7, Y+7	; 0x07
     a56:	80 80       	ld	r8, Z
     a58:	80 80       	ld	r8, Z
     a5a:	80 7f       	andi	r24, 0xF0	; 240
     a5c:	7f 7f       	andi	r23, 0xFF	; 255
     a5e:	80 7f       	andi	r24, 0xF0	; 240
     a60:	80 80       	ld	r8, Z
     a62:	7f 80       	ldd	r7, Y+7	; 0x07
     a64:	80 80       	ld	r8, Z
     a66:	7f 80       	ldd	r7, Y+7	; 0x07
     a68:	80 80       	ld	r8, Z
     a6a:	80 81       	ld	r24, Z
     a6c:	80 80       	ld	r8, Z
     a6e:	80 80       	ld	r8, Z
     a70:	80 80       	ld	r8, Z
     a72:	80 80       	ld	r8, Z
     a74:	7f 80       	ldd	r7, Y+7	; 0x07
     a76:	7f 80       	ldd	r7, Y+7	; 0x07
     a78:	7f 80       	ldd	r7, Y+7	; 0x07
     a7a:	7f 7f       	andi	r23, 0xFF	; 255
     a7c:	7f 7f       	andi	r23, 0xFF	; 255
     a7e:	7f 7f       	andi	r23, 0xFF	; 255
     a80:	80 80       	ld	r8, Z
     a82:	7f 80       	ldd	r7, Y+7	; 0x07
     a84:	80 80       	ld	r8, Z
     a86:	80 7f       	andi	r24, 0xF0	; 240
     a88:	80 7f       	andi	r24, 0xF0	; 240
     a8a:	7f 80       	ldd	r7, Y+7	; 0x07
     a8c:	7f 80       	ldd	r7, Y+7	; 0x07
     a8e:	7f 80       	ldd	r7, Y+7	; 0x07
     a90:	80 80       	ld	r8, Z
     a92:	7f 80       	ldd	r7, Y+7	; 0x07
     a94:	7f 81       	ldd	r23, Y+7	; 0x07
     a96:	80 7f       	andi	r24, 0xF0	; 240
     a98:	80 7f       	andi	r24, 0xF0	; 240
     a9a:	7f 80       	ldd	r7, Y+7	; 0x07
     a9c:	80 80       	ld	r8, Z
     a9e:	7f 80       	ldd	r7, Y+7	; 0x07
     aa0:	80 80       	ld	r8, Z
     aa2:	80 80       	ld	r8, Z
     aa4:	7f 80       	ldd	r7, Y+7	; 0x07
     aa6:	7f 80       	ldd	r7, Y+7	; 0x07
     aa8:	80 80       	ld	r8, Z
     aaa:	80 7f       	andi	r24, 0xF0	; 240
     aac:	7f 7f       	andi	r23, 0xFF	; 255
     aae:	7f 7f       	andi	r23, 0xFF	; 255
     ab0:	80 7f       	andi	r24, 0xF0	; 240
     ab2:	80 80       	ld	r8, Z
     ab4:	80 80       	ld	r8, Z
     ab6:	80 7f       	andi	r24, 0xF0	; 240
     ab8:	7f 80       	ldd	r7, Y+7	; 0x07
     aba:	80 7f       	andi	r24, 0xF0	; 240
     abc:	80 7f       	andi	r24, 0xF0	; 240
     abe:	7f 80       	ldd	r7, Y+7	; 0x07
     ac0:	80 80       	ld	r8, Z
     ac2:	80 7f       	andi	r24, 0xF0	; 240
     ac4:	80 80       	ld	r8, Z
     ac6:	80 80       	ld	r8, Z
     ac8:	7f 80       	ldd	r7, Y+7	; 0x07
     aca:	80 80       	ld	r8, Z
     acc:	80 80       	ld	r8, Z
     ace:	7f 7f       	andi	r23, 0xFF	; 255
     ad0:	7f 80       	ldd	r7, Y+7	; 0x07
     ad2:	7f 80       	ldd	r7, Y+7	; 0x07
     ad4:	80 7f       	andi	r24, 0xF0	; 240
     ad6:	80 7f       	andi	r24, 0xF0	; 240
     ad8:	81 80       	ldd	r8, Z+1	; 0x01
     ada:	80 7f       	andi	r24, 0xF0	; 240
     adc:	80 80       	ld	r8, Z
     ade:	80 7f       	andi	r24, 0xF0	; 240
     ae0:	80 80       	ld	r8, Z
     ae2:	7f 80       	ldd	r7, Y+7	; 0x07
     ae4:	7f 7f       	andi	r23, 0xFF	; 255
     ae6:	80 80       	ld	r8, Z
     ae8:	7f 80       	ldd	r7, Y+7	; 0x07
     aea:	80 80       	ld	r8, Z
     aec:	7f 7f       	andi	r23, 0xFF	; 255
     aee:	80 7f       	andi	r24, 0xF0	; 240
     af0:	7f 80       	ldd	r7, Y+7	; 0x07
     af2:	80 80       	ld	r8, Z
     af4:	80 7f       	andi	r24, 0xF0	; 240
     af6:	80 7f       	andi	r24, 0xF0	; 240
     af8:	80 80       	ld	r8, Z
     afa:	80 7f       	andi	r24, 0xF0	; 240
     afc:	80 80       	ld	r8, Z
     afe:	7f 7f       	andi	r23, 0xFF	; 255
     b00:	80 80       	ld	r8, Z
     b02:	7f 7f       	andi	r23, 0xFF	; 255
     b04:	80 80       	ld	r8, Z
     b06:	80 80       	ld	r8, Z
     b08:	80 80       	ld	r8, Z
     b0a:	7f 7f       	andi	r23, 0xFF	; 255
     b0c:	7f 80       	ldd	r7, Y+7	; 0x07
     b0e:	80 80       	ld	r8, Z
     b10:	80 80       	ld	r8, Z
     b12:	80 80       	ld	r8, Z
     b14:	80 80       	ld	r8, Z
     b16:	80 7f       	andi	r24, 0xF0	; 240
     b18:	7f 80       	ldd	r7, Y+7	; 0x07
     b1a:	7f 80       	ldd	r7, Y+7	; 0x07
     b1c:	80 7f       	andi	r24, 0xF0	; 240
     b1e:	7f 7f       	andi	r23, 0xFF	; 255
     b20:	80 80       	ld	r8, Z
     b22:	7f 7f       	andi	r23, 0xFF	; 255
     b24:	80 7e       	andi	r24, 0xE0	; 224
     b26:	7f 7f       	andi	r23, 0xFF	; 255
     b28:	7f 7f       	andi	r23, 0xFF	; 255
     b2a:	80 7f       	andi	r24, 0xF0	; 240
     b2c:	80 80       	ld	r8, Z
     b2e:	7f 80       	ldd	r7, Y+7	; 0x07
     b30:	80 80       	ld	r8, Z
     b32:	80 7f       	andi	r24, 0xF0	; 240
     b34:	7f 80       	ldd	r7, Y+7	; 0x07
     b36:	80 80       	ld	r8, Z
     b38:	80 7f       	andi	r24, 0xF0	; 240
     b3a:	80 80       	ld	r8, Z
     b3c:	80 80       	ld	r8, Z
     b3e:	7f 80       	ldd	r7, Y+7	; 0x07
     b40:	80 7f       	andi	r24, 0xF0	; 240
     b42:	80 80       	ld	r8, Z
     b44:	80 7f       	andi	r24, 0xF0	; 240
     b46:	7f 7f       	andi	r23, 0xFF	; 255
     b48:	7f 80       	ldd	r7, Y+7	; 0x07
     b4a:	7f 80       	ldd	r7, Y+7	; 0x07
     b4c:	80 7f       	andi	r24, 0xF0	; 240
     b4e:	7f 80       	ldd	r7, Y+7	; 0x07
     b50:	7f 7f       	andi	r23, 0xFF	; 255
     b52:	7f 80       	ldd	r7, Y+7	; 0x07
     b54:	80 80       	ld	r8, Z
     b56:	7f 80       	ldd	r7, Y+7	; 0x07
     b58:	7f 7f       	andi	r23, 0xFF	; 255
     b5a:	80 80       	ld	r8, Z
     b5c:	80 7f       	andi	r24, 0xF0	; 240
     b5e:	80 7f       	andi	r24, 0xF0	; 240
     b60:	7f 7f       	andi	r23, 0xFF	; 255
     b62:	80 7f       	andi	r24, 0xF0	; 240
     b64:	80 80       	ld	r8, Z
     b66:	80 80       	ld	r8, Z
     b68:	80 80       	ld	r8, Z
     b6a:	7f 80       	ldd	r7, Y+7	; 0x07
     b6c:	80 7f       	andi	r24, 0xF0	; 240
     b6e:	7f 7f       	andi	r23, 0xFF	; 255
     b70:	80 7f       	andi	r24, 0xF0	; 240
     b72:	80 80       	ld	r8, Z
     b74:	7f 80       	ldd	r7, Y+7	; 0x07
     b76:	80 80       	ld	r8, Z
     b78:	7f 80       	ldd	r7, Y+7	; 0x07
     b7a:	7f 7f       	andi	r23, 0xFF	; 255
     b7c:	80 7f       	andi	r24, 0xF0	; 240
     b7e:	7f 80       	ldd	r7, Y+7	; 0x07
     b80:	7f 7f       	andi	r23, 0xFF	; 255
     b82:	80 80       	ld	r8, Z
     b84:	7f 80       	ldd	r7, Y+7	; 0x07
     b86:	80 7f       	andi	r24, 0xF0	; 240
     b88:	80 7f       	andi	r24, 0xF0	; 240
     b8a:	80 80       	ld	r8, Z
     b8c:	80 7f       	andi	r24, 0xF0	; 240
     b8e:	80 7f       	andi	r24, 0xF0	; 240
     b90:	7f 7f       	andi	r23, 0xFF	; 255
     b92:	7f 80       	ldd	r7, Y+7	; 0x07
     b94:	7f 80       	ldd	r7, Y+7	; 0x07
     b96:	7f 7f       	andi	r23, 0xFF	; 255
     b98:	7f 80       	ldd	r7, Y+7	; 0x07
     b9a:	80 80       	ld	r8, Z
     b9c:	7f 7f       	andi	r23, 0xFF	; 255
     b9e:	80 80       	ld	r8, Z
     ba0:	7f 80       	ldd	r7, Y+7	; 0x07
     ba2:	7f 80       	ldd	r7, Y+7	; 0x07
     ba4:	7f 7f       	andi	r23, 0xFF	; 255
     ba6:	80 80       	ld	r8, Z
     ba8:	80 7f       	andi	r24, 0xF0	; 240
     baa:	80 80       	ld	r8, Z
     bac:	7f 80       	ldd	r7, Y+7	; 0x07
     bae:	80 80       	ld	r8, Z
     bb0:	7f 7f       	andi	r23, 0xFF	; 255
     bb2:	80 80       	ld	r8, Z
     bb4:	7f 7f       	andi	r23, 0xFF	; 255
     bb6:	80 80       	ld	r8, Z
     bb8:	80 81       	ld	r24, Z
     bba:	80 7f       	andi	r24, 0xF0	; 240
     bbc:	7f 7f       	andi	r23, 0xFF	; 255
     bbe:	7f 80       	ldd	r7, Y+7	; 0x07
     bc0:	80 7f       	andi	r24, 0xF0	; 240
     bc2:	80 80       	ld	r8, Z
     bc4:	7f 7f       	andi	r23, 0xFF	; 255
     bc6:	7f 80       	ldd	r7, Y+7	; 0x07
     bc8:	80 80       	ld	r8, Z
     bca:	7f 7f       	andi	r23, 0xFF	; 255
     bcc:	7f 7f       	andi	r23, 0xFF	; 255
     bce:	80 7f       	andi	r24, 0xF0	; 240
     bd0:	80 80       	ld	r8, Z
     bd2:	7f 80       	ldd	r7, Y+7	; 0x07
     bd4:	80 80       	ld	r8, Z
     bd6:	80 80       	ld	r8, Z
     bd8:	7f 80       	ldd	r7, Y+7	; 0x07
     bda:	7f 80       	ldd	r7, Y+7	; 0x07
     bdc:	80 80       	ld	r8, Z
     bde:	80 7f       	andi	r24, 0xF0	; 240
     be0:	80 80       	ld	r8, Z
     be2:	80 80       	ld	r8, Z
     be4:	80 80       	ld	r8, Z
     be6:	7f 80       	ldd	r7, Y+7	; 0x07
     be8:	7f 80       	ldd	r7, Y+7	; 0x07
     bea:	80 80       	ld	r8, Z
     bec:	80 80       	ld	r8, Z
     bee:	7f 80       	ldd	r7, Y+7	; 0x07
     bf0:	80 80       	ld	r8, Z
     bf2:	7f 7f       	andi	r23, 0xFF	; 255
     bf4:	80 80       	ld	r8, Z
     bf6:	7f 7f       	andi	r23, 0xFF	; 255
     bf8:	7f 7f       	andi	r23, 0xFF	; 255
     bfa:	7f 80       	ldd	r7, Y+7	; 0x07
     bfc:	7f 80       	ldd	r7, Y+7	; 0x07
     bfe:	80 80       	ld	r8, Z
     c00:	80 7f       	andi	r24, 0xF0	; 240
     c02:	7f 7f       	andi	r23, 0xFF	; 255
     c04:	7f 80       	ldd	r7, Y+7	; 0x07
     c06:	80 80       	ld	r8, Z
     c08:	80 7f       	andi	r24, 0xF0	; 240
     c0a:	80 80       	ld	r8, Z
     c0c:	80 80       	ld	r8, Z
     c0e:	80 7f       	andi	r24, 0xF0	; 240
     c10:	80 7f       	andi	r24, 0xF0	; 240
     c12:	7f 7f       	andi	r23, 0xFF	; 255
     c14:	80 7f       	andi	r24, 0xF0	; 240
     c16:	80 7f       	andi	r24, 0xF0	; 240
     c18:	80 80       	ld	r8, Z
     c1a:	80 7f       	andi	r24, 0xF0	; 240
     c1c:	80 80       	ld	r8, Z
     c1e:	80 80       	ld	r8, Z
     c20:	80 80       	ld	r8, Z
     c22:	80 80       	ld	r8, Z
     c24:	80 7f       	andi	r24, 0xF0	; 240
     c26:	80 7f       	andi	r24, 0xF0	; 240
     c28:	7f 80       	ldd	r7, Y+7	; 0x07
     c2a:	7f 80       	ldd	r7, Y+7	; 0x07
     c2c:	80 7f       	andi	r24, 0xF0	; 240
     c2e:	7f 7f       	andi	r23, 0xFF	; 255
     c30:	80 80       	ld	r8, Z
     c32:	80 80       	ld	r8, Z
     c34:	7f 80       	ldd	r7, Y+7	; 0x07
     c36:	7f 7f       	andi	r23, 0xFF	; 255
     c38:	80 80       	ld	r8, Z
     c3a:	80 80       	ld	r8, Z
     c3c:	7f 7f       	andi	r23, 0xFF	; 255
     c3e:	80 7f       	andi	r24, 0xF0	; 240
     c40:	80 7f       	andi	r24, 0xF0	; 240
     c42:	7f 7f       	andi	r23, 0xFF	; 255
     c44:	7f 7f       	andi	r23, 0xFF	; 255
     c46:	81 80       	ldd	r8, Z+1	; 0x01
     c48:	80 7f       	andi	r24, 0xF0	; 240
     c4a:	80 80       	ld	r8, Z
     c4c:	7f 7f       	andi	r23, 0xFF	; 255
     c4e:	7f 80       	ldd	r7, Y+7	; 0x07
     c50:	80 80       	ld	r8, Z
     c52:	7f 7f       	andi	r23, 0xFF	; 255
     c54:	7f 7f       	andi	r23, 0xFF	; 255
     c56:	7f 80       	ldd	r7, Y+7	; 0x07
     c58:	80 80       	ld	r8, Z
     c5a:	7f 80       	ldd	r7, Y+7	; 0x07
     c5c:	80 7f       	andi	r24, 0xF0	; 240
     c5e:	80 7f       	andi	r24, 0xF0	; 240
     c60:	80 80       	ld	r8, Z
     c62:	80 7f       	andi	r24, 0xF0	; 240
     c64:	80 80       	ld	r8, Z
     c66:	80 80       	ld	r8, Z
     c68:	80 7f       	andi	r24, 0xF0	; 240
     c6a:	7f 7f       	andi	r23, 0xFF	; 255
     c6c:	80 7f       	andi	r24, 0xF0	; 240
     c6e:	7f 80       	ldd	r7, Y+7	; 0x07
     c70:	80 80       	ld	r8, Z
     c72:	80 7f       	andi	r24, 0xF0	; 240
     c74:	7f 80       	ldd	r7, Y+7	; 0x07
     c76:	7f 80       	ldd	r7, Y+7	; 0x07
     c78:	7f 7f       	andi	r23, 0xFF	; 255
     c7a:	7f 80       	ldd	r7, Y+7	; 0x07
     c7c:	80 80       	ld	r8, Z
     c7e:	7f 7f       	andi	r23, 0xFF	; 255
     c80:	7f 7f       	andi	r23, 0xFF	; 255
     c82:	7f 7f       	andi	r23, 0xFF	; 255
     c84:	80 80       	ld	r8, Z
     c86:	80 7f       	andi	r24, 0xF0	; 240
     c88:	80 81       	ld	r24, Z
     c8a:	7f 7f       	andi	r23, 0xFF	; 255
     c8c:	80 7f       	andi	r24, 0xF0	; 240
     c8e:	7f 80       	ldd	r7, Y+7	; 0x07
     c90:	7f 7f       	andi	r23, 0xFF	; 255
     c92:	7f 80       	ldd	r7, Y+7	; 0x07
     c94:	7f 7f       	andi	r23, 0xFF	; 255
     c96:	80 7f       	andi	r24, 0xF0	; 240
     c98:	7f 7f       	andi	r23, 0xFF	; 255
     c9a:	80 7f       	andi	r24, 0xF0	; 240
     c9c:	80 7f       	andi	r24, 0xF0	; 240
     c9e:	80 80       	ld	r8, Z
     ca0:	7f 7f       	andi	r23, 0xFF	; 255
     ca2:	80 80       	ld	r8, Z
     ca4:	80 7f       	andi	r24, 0xF0	; 240
     ca6:	80 7f       	andi	r24, 0xF0	; 240
     ca8:	7f 7f       	andi	r23, 0xFF	; 255
     caa:	80 7f       	andi	r24, 0xF0	; 240
     cac:	80 7f       	andi	r24, 0xF0	; 240
     cae:	80 80       	ld	r8, Z
     cb0:	80 81       	ld	r24, Z
     cb2:	80 80       	ld	r8, Z
     cb4:	80 7f       	andi	r24, 0xF0	; 240
     cb6:	81 81       	ldd	r24, Z+1	; 0x01
     cb8:	80 80       	ld	r8, Z
     cba:	80 80       	ld	r8, Z
     cbc:	7f 80       	ldd	r7, Y+7	; 0x07
     cbe:	80 80       	ld	r8, Z
     cc0:	80 7f       	andi	r24, 0xF0	; 240
     cc2:	80 7f       	andi	r24, 0xF0	; 240
     cc4:	80 80       	ld	r8, Z
     cc6:	80 7f       	andi	r24, 0xF0	; 240
     cc8:	7f 7f       	andi	r23, 0xFF	; 255
     cca:	80 7f       	andi	r24, 0xF0	; 240
     ccc:	7f 7f       	andi	r23, 0xFF	; 255
     cce:	80 80       	ld	r8, Z
     cd0:	80 80       	ld	r8, Z
     cd2:	80 7f       	andi	r24, 0xF0	; 240
     cd4:	7f 80       	ldd	r7, Y+7	; 0x07
     cd6:	80 80       	ld	r8, Z
     cd8:	7f 80       	ldd	r7, Y+7	; 0x07
     cda:	80 80       	ld	r8, Z
     cdc:	80 80       	ld	r8, Z
     cde:	80 7f       	andi	r24, 0xF0	; 240
     ce0:	80 80       	ld	r8, Z
     ce2:	7f 7f       	andi	r23, 0xFF	; 255
     ce4:	7f 7f       	andi	r23, 0xFF	; 255
     ce6:	7f 7f       	andi	r23, 0xFF	; 255
     ce8:	7f 80       	ldd	r7, Y+7	; 0x07
     cea:	7f 7f       	andi	r23, 0xFF	; 255
     cec:	7f 7f       	andi	r23, 0xFF	; 255
     cee:	80 80       	ld	r8, Z
     cf0:	80 7f       	andi	r24, 0xF0	; 240
     cf2:	7f 7f       	andi	r23, 0xFF	; 255
     cf4:	7f 80       	ldd	r7, Y+7	; 0x07
     cf6:	80 7f       	andi	r24, 0xF0	; 240
     cf8:	7f 80       	ldd	r7, Y+7	; 0x07
     cfa:	80 80       	ld	r8, Z
     cfc:	7f 7f       	andi	r23, 0xFF	; 255
     cfe:	7f 7f       	andi	r23, 0xFF	; 255
     d00:	7f 80       	ldd	r7, Y+7	; 0x07
     d02:	80 80       	ld	r8, Z
     d04:	7f 80       	ldd	r7, Y+7	; 0x07
     d06:	80 80       	ld	r8, Z
     d08:	80 7f       	andi	r24, 0xF0	; 240
     d0a:	80 80       	ld	r8, Z
     d0c:	80 80       	ld	r8, Z
     d0e:	80 7f       	andi	r24, 0xF0	; 240
     d10:	80 7f       	andi	r24, 0xF0	; 240
     d12:	81 7f       	andi	r24, 0xF1	; 241
     d14:	80 7f       	andi	r24, 0xF0	; 240
     d16:	7f 80       	ldd	r7, Y+7	; 0x07
     d18:	7f 7f       	andi	r23, 0xFF	; 255
     d1a:	80 7f       	andi	r24, 0xF0	; 240
     d1c:	80 7f       	andi	r24, 0xF0	; 240
     d1e:	80 7f       	andi	r24, 0xF0	; 240
     d20:	7f 80       	ldd	r7, Y+7	; 0x07
     d22:	80 7f       	andi	r24, 0xF0	; 240
     d24:	80 80       	ld	r8, Z
     d26:	7e 7f       	andi	r23, 0xFE	; 254
     d28:	80 7f       	andi	r24, 0xF0	; 240
     d2a:	80 7f       	andi	r24, 0xF0	; 240
     d2c:	80 7e       	andi	r24, 0xE0	; 224
     d2e:	7f 7f       	andi	r23, 0xFF	; 255
     d30:	7f 7f       	andi	r23, 0xFF	; 255
     d32:	7f 7f       	andi	r23, 0xFF	; 255
     d34:	7f 7f       	andi	r23, 0xFF	; 255
     d36:	7f 7e       	andi	r23, 0xEF	; 239
     d38:	7f 7e       	andi	r23, 0xEF	; 239
     d3a:	7f 7f       	andi	r23, 0xFF	; 255
     d3c:	7f 7f       	andi	r23, 0xFF	; 255
     d3e:	7f 7f       	andi	r23, 0xFF	; 255
     d40:	7e 7f       	andi	r23, 0xFE	; 254
     d42:	7f 7f       	andi	r23, 0xFF	; 255
     d44:	7f 7e       	andi	r23, 0xEF	; 239
     d46:	7f 7e       	andi	r23, 0xEF	; 239
     d48:	7f 80       	ldd	r7, Y+7	; 0x07
     d4a:	7f 7f       	andi	r23, 0xFF	; 255
     d4c:	7f 7f       	andi	r23, 0xFF	; 255
     d4e:	80 7f       	andi	r24, 0xF0	; 240
     d50:	7f 7f       	andi	r23, 0xFF	; 255
     d52:	7f 7f       	andi	r23, 0xFF	; 255
     d54:	7f 7e       	andi	r23, 0xEF	; 239
     d56:	7f 7f       	andi	r23, 0xFF	; 255
     d58:	7f 7f       	andi	r23, 0xFF	; 255
     d5a:	7e 7f       	andi	r23, 0xFE	; 254
     d5c:	7f 80       	ldd	r7, Y+7	; 0x07
     d5e:	7f 7f       	andi	r23, 0xFF	; 255
     d60:	7f 7f       	andi	r23, 0xFF	; 255
     d62:	7f 7f       	andi	r23, 0xFF	; 255
     d64:	7e 7f       	andi	r23, 0xFE	; 254
     d66:	80 80       	ld	r8, Z
     d68:	7f 7f       	andi	r23, 0xFF	; 255
     d6a:	80 7f       	andi	r24, 0xF0	; 240
     d6c:	7f 7f       	andi	r23, 0xFF	; 255
     d6e:	7f 7f       	andi	r23, 0xFF	; 255
     d70:	7f 80       	ldd	r7, Y+7	; 0x07
     d72:	80 80       	ld	r8, Z
     d74:	80 80       	ld	r8, Z
     d76:	80 80       	ld	r8, Z
     d78:	80 80       	ld	r8, Z
     d7a:	7f 80       	ldd	r7, Y+7	; 0x07
     d7c:	80 7f       	andi	r24, 0xF0	; 240
     d7e:	7f 7f       	andi	r23, 0xFF	; 255
     d80:	80 80       	ld	r8, Z
     d82:	81 80       	ldd	r8, Z+1	; 0x01
     d84:	7f 80       	ldd	r7, Y+7	; 0x07
     d86:	80 80       	ld	r8, Z
     d88:	7f 80       	ldd	r7, Y+7	; 0x07
     d8a:	80 80       	ld	r8, Z
     d8c:	80 7f       	andi	r24, 0xF0	; 240
     d8e:	80 80       	ld	r8, Z
     d90:	7f 7f       	andi	r23, 0xFF	; 255
     d92:	80 7f       	andi	r24, 0xF0	; 240
     d94:	7f 7f       	andi	r23, 0xFF	; 255
     d96:	7f 7f       	andi	r23, 0xFF	; 255
     d98:	80 80       	ld	r8, Z
     d9a:	7f 80       	ldd	r7, Y+7	; 0x07
     d9c:	80 7f       	andi	r24, 0xF0	; 240
     d9e:	7f 80       	ldd	r7, Y+7	; 0x07
     da0:	80 80       	ld	r8, Z
     da2:	7f 80       	ldd	r7, Y+7	; 0x07
     da4:	7f 7f       	andi	r23, 0xFF	; 255
     da6:	7f 80       	ldd	r7, Y+7	; 0x07
     da8:	80 7f       	andi	r24, 0xF0	; 240
     daa:	80 80       	ld	r8, Z
     dac:	80 7f       	andi	r24, 0xF0	; 240
     dae:	81 7e       	andi	r24, 0xE1	; 225
     db0:	80 7f       	andi	r24, 0xF0	; 240
     db2:	7f 7f       	andi	r23, 0xFF	; 255
     db4:	80 7f       	andi	r24, 0xF0	; 240
     db6:	7f 7f       	andi	r23, 0xFF	; 255
     db8:	7f 7f       	andi	r23, 0xFF	; 255
     dba:	7f 7f       	andi	r23, 0xFF	; 255
     dbc:	7f 7e       	andi	r23, 0xEF	; 239
     dbe:	80 7f       	andi	r24, 0xF0	; 240
     dc0:	80 7f       	andi	r24, 0xF0	; 240
     dc2:	7e 7f       	andi	r23, 0xFE	; 254
     dc4:	7f 7f       	andi	r23, 0xFF	; 255
     dc6:	7f 7f       	andi	r23, 0xFF	; 255
     dc8:	80 80       	ld	r8, Z
     dca:	7e 7e       	andi	r23, 0xEE	; 238
     dcc:	80 80       	ld	r8, Z
     dce:	80 7f       	andi	r24, 0xF0	; 240
     dd0:	7f 7f       	andi	r23, 0xFF	; 255
     dd2:	7f 7f       	andi	r23, 0xFF	; 255
     dd4:	80 7f       	andi	r24, 0xF0	; 240
     dd6:	7f 7f       	andi	r23, 0xFF	; 255
     dd8:	7f 7e       	andi	r23, 0xEF	; 239
     dda:	7f 7f       	andi	r23, 0xFF	; 255
     ddc:	7f 7f       	andi	r23, 0xFF	; 255
     dde:	7f 7f       	andi	r23, 0xFF	; 255
     de0:	7f 7f       	andi	r23, 0xFF	; 255
     de2:	7f 7f       	andi	r23, 0xFF	; 255
     de4:	7f 7f       	andi	r23, 0xFF	; 255
     de6:	7f 7f       	andi	r23, 0xFF	; 255
     de8:	80 7f       	andi	r24, 0xF0	; 240
     dea:	7f 7e       	andi	r23, 0xEF	; 239
     dec:	7f 7f       	andi	r23, 0xFF	; 255
     dee:	7f 7f       	andi	r23, 0xFF	; 255
     df0:	7f 7f       	andi	r23, 0xFF	; 255
     df2:	7f 7f       	andi	r23, 0xFF	; 255
     df4:	80 80       	ld	r8, Z
     df6:	80 7f       	andi	r24, 0xF0	; 240
     df8:	7f 80       	ldd	r7, Y+7	; 0x07
     dfa:	7f 7f       	andi	r23, 0xFF	; 255
     dfc:	80 7f       	andi	r24, 0xF0	; 240
     dfe:	80 80       	ld	r8, Z
     e00:	80 80       	ld	r8, Z
     e02:	7f 7f       	andi	r23, 0xFF	; 255
     e04:	7f 7f       	andi	r23, 0xFF	; 255
     e06:	7f 7f       	andi	r23, 0xFF	; 255
     e08:	7e 7f       	andi	r23, 0xFE	; 254
     e0a:	7e 7f       	andi	r23, 0xFE	; 254
     e0c:	7f 7f       	andi	r23, 0xFF	; 255
     e0e:	7f 7e       	andi	r23, 0xEF	; 239
     e10:	7f 7f       	andi	r23, 0xFF	; 255
     e12:	7f 7f       	andi	r23, 0xFF	; 255
     e14:	7f 7f       	andi	r23, 0xFF	; 255
     e16:	7f 7f       	andi	r23, 0xFF	; 255
     e18:	7f 7f       	andi	r23, 0xFF	; 255
     e1a:	7f 7f       	andi	r23, 0xFF	; 255
     e1c:	80 80       	ld	r8, Z
     e1e:	7f 7f       	andi	r23, 0xFF	; 255
     e20:	80 80       	ld	r8, Z
     e22:	81 80       	ldd	r8, Z+1	; 0x01
     e24:	80 80       	ld	r8, Z
     e26:	81 81       	ldd	r24, Z+1	; 0x01
     e28:	80 80       	ld	r8, Z
     e2a:	80 80       	ld	r8, Z
     e2c:	80 7f       	andi	r24, 0xF0	; 240
     e2e:	80 80       	ld	r8, Z
     e30:	80 81       	ld	r24, Z
     e32:	80 7f       	andi	r24, 0xF0	; 240
     e34:	7f 80       	ldd	r7, Y+7	; 0x07
     e36:	80 7f       	andi	r24, 0xF0	; 240
     e38:	80 80       	ld	r8, Z
     e3a:	80 7f       	andi	r24, 0xF0	; 240
     e3c:	7f 7f       	andi	r23, 0xFF	; 255
     e3e:	80 7f       	andi	r24, 0xF0	; 240
     e40:	80 80       	ld	r8, Z
     e42:	7f 80       	ldd	r7, Y+7	; 0x07
     e44:	80 7f       	andi	r24, 0xF0	; 240
     e46:	80 7f       	andi	r24, 0xF0	; 240
     e48:	7f 80       	ldd	r7, Y+7	; 0x07
     e4a:	7f 80       	ldd	r7, Y+7	; 0x07
     e4c:	80 80       	ld	r8, Z
     e4e:	80 80       	ld	r8, Z
     e50:	7f 7f       	andi	r23, 0xFF	; 255
     e52:	80 7f       	andi	r24, 0xF0	; 240
     e54:	7f 7f       	andi	r23, 0xFF	; 255
     e56:	7f 7f       	andi	r23, 0xFF	; 255
     e58:	7f 7f       	andi	r23, 0xFF	; 255
     e5a:	7f 80       	ldd	r7, Y+7	; 0x07
     e5c:	7f 7f       	andi	r23, 0xFF	; 255
     e5e:	7f 7f       	andi	r23, 0xFF	; 255
     e60:	7f 7f       	andi	r23, 0xFF	; 255
     e62:	7f 7f       	andi	r23, 0xFF	; 255
     e64:	7f 7f       	andi	r23, 0xFF	; 255
     e66:	7f 7f       	andi	r23, 0xFF	; 255
     e68:	80 7f       	andi	r24, 0xF0	; 240
     e6a:	80 7f       	andi	r24, 0xF0	; 240
     e6c:	7f 7f       	andi	r23, 0xFF	; 255
     e6e:	7f 7f       	andi	r23, 0xFF	; 255
     e70:	7f 80       	ldd	r7, Y+7	; 0x07
     e72:	7f 7f       	andi	r23, 0xFF	; 255
     e74:	7f 7f       	andi	r23, 0xFF	; 255
     e76:	7f 7f       	andi	r23, 0xFF	; 255
     e78:	7e 7f       	andi	r23, 0xFE	; 254
     e7a:	80 7f       	andi	r24, 0xF0	; 240
     e7c:	80 80       	ld	r8, Z
     e7e:	80 80       	ld	r8, Z
     e80:	80 7f       	andi	r24, 0xF0	; 240
     e82:	7f 7f       	andi	r23, 0xFF	; 255
     e84:	7e 7f       	andi	r23, 0xFE	; 254
     e86:	7f 7f       	andi	r23, 0xFF	; 255
     e88:	7f 7f       	andi	r23, 0xFF	; 255
     e8a:	7f 7f       	andi	r23, 0xFF	; 255
     e8c:	7f 7f       	andi	r23, 0xFF	; 255
     e8e:	7f 7f       	andi	r23, 0xFF	; 255
     e90:	7f 7f       	andi	r23, 0xFF	; 255
     e92:	7f 7f       	andi	r23, 0xFF	; 255
     e94:	7f 7f       	andi	r23, 0xFF	; 255
     e96:	7f 7f       	andi	r23, 0xFF	; 255
     e98:	7f 7f       	andi	r23, 0xFF	; 255
     e9a:	7f 7f       	andi	r23, 0xFF	; 255
     e9c:	7f 7f       	andi	r23, 0xFF	; 255
     e9e:	80 7f       	andi	r24, 0xF0	; 240
     ea0:	7f 7f       	andi	r23, 0xFF	; 255
     ea2:	80 7f       	andi	r24, 0xF0	; 240
     ea4:	7f 7f       	andi	r23, 0xFF	; 255
     ea6:	80 7f       	andi	r24, 0xF0	; 240
     ea8:	80 80       	ld	r8, Z
     eaa:	81 80       	ldd	r8, Z+1	; 0x01
     eac:	80 80       	ld	r8, Z
     eae:	7f 7f       	andi	r23, 0xFF	; 255
     eb0:	80 80       	ld	r8, Z
     eb2:	80 80       	ld	r8, Z
     eb4:	80 80       	ld	r8, Z
     eb6:	81 80       	ldd	r8, Z+1	; 0x01
     eb8:	80 80       	ld	r8, Z
     eba:	80 7f       	andi	r24, 0xF0	; 240
     ebc:	7f 7f       	andi	r23, 0xFF	; 255
     ebe:	7f 7f       	andi	r23, 0xFF	; 255
     ec0:	80 80       	ld	r8, Z
     ec2:	80 7f       	andi	r24, 0xF0	; 240
     ec4:	80 80       	ld	r8, Z
     ec6:	80 80       	ld	r8, Z
     ec8:	80 80       	ld	r8, Z
     eca:	80 80       	ld	r8, Z
     ecc:	80 81       	ld	r24, Z
     ece:	80 80       	ld	r8, Z
     ed0:	7f 81       	ldd	r23, Y+7	; 0x07
     ed2:	80 7f       	andi	r24, 0xF0	; 240
     ed4:	80 80       	ld	r8, Z
     ed6:	80 80       	ld	r8, Z
     ed8:	80 7f       	andi	r24, 0xF0	; 240
     eda:	80 80       	ld	r8, Z
     edc:	80 80       	ld	r8, Z
     ede:	7f 7f       	andi	r23, 0xFF	; 255
     ee0:	7f 7f       	andi	r23, 0xFF	; 255
     ee2:	80 7f       	andi	r24, 0xF0	; 240
     ee4:	80 7f       	andi	r24, 0xF0	; 240
     ee6:	7e 7f       	andi	r23, 0xFE	; 254
     ee8:	7e 7f       	andi	r23, 0xFE	; 254
     eea:	80 7f       	andi	r24, 0xF0	; 240
     eec:	7f 7f       	andi	r23, 0xFF	; 255
     eee:	7f 7f       	andi	r23, 0xFF	; 255
     ef0:	80 7f       	andi	r24, 0xF0	; 240
     ef2:	7f 7f       	andi	r23, 0xFF	; 255
     ef4:	7f 7f       	andi	r23, 0xFF	; 255
     ef6:	7f 7f       	andi	r23, 0xFF	; 255
     ef8:	7f 7e       	andi	r23, 0xEF	; 239
     efa:	7e 7f       	andi	r23, 0xFE	; 254
     efc:	7e 7e       	andi	r23, 0xEE	; 238
     efe:	7f 80       	ldd	r7, Y+7	; 0x07
     f00:	80 7f       	andi	r24, 0xF0	; 240
     f02:	7f 80       	ldd	r7, Y+7	; 0x07
     f04:	7f 80       	ldd	r7, Y+7	; 0x07
     f06:	7f 7f       	andi	r23, 0xFF	; 255
     f08:	7f 80       	ldd	r7, Y+7	; 0x07
     f0a:	7e 7f       	andi	r23, 0xFE	; 254
     f0c:	7f 80       	ldd	r7, Y+7	; 0x07
     f0e:	7f 80       	ldd	r7, Y+7	; 0x07
     f10:	7f 80       	ldd	r7, Y+7	; 0x07
     f12:	7f 7f       	andi	r23, 0xFF	; 255
     f14:	7f 7f       	andi	r23, 0xFF	; 255
     f16:	7e 7f       	andi	r23, 0xFE	; 254
     f18:	80 7f       	andi	r24, 0xF0	; 240
     f1a:	7f 7f       	andi	r23, 0xFF	; 255
     f1c:	7f 7e       	andi	r23, 0xEF	; 239
     f1e:	7f 7f       	andi	r23, 0xFF	; 255
     f20:	7f 7f       	andi	r23, 0xFF	; 255
     f22:	7e 7f       	andi	r23, 0xFE	; 254
     f24:	7f 80       	ldd	r7, Y+7	; 0x07
     f26:	7f 80       	ldd	r7, Y+7	; 0x07
     f28:	80 80       	ld	r8, Z
     f2a:	80 81       	ld	r24, Z
     f2c:	80 80       	ld	r8, Z
     f2e:	80 80       	ld	r8, Z
     f30:	80 7f       	andi	r24, 0xF0	; 240
     f32:	80 80       	ld	r8, Z
     f34:	80 80       	ld	r8, Z
     f36:	81 7f       	andi	r24, 0xF1	; 241
     f38:	80 81       	ld	r24, Z
     f3a:	7f 80       	ldd	r7, Y+7	; 0x07
     f3c:	80 80       	ld	r8, Z
     f3e:	80 80       	ld	r8, Z
     f40:	80 80       	ld	r8, Z
     f42:	80 7f       	andi	r24, 0xF0	; 240
     f44:	81 80       	ldd	r8, Z+1	; 0x01
     f46:	80 81       	ld	r24, Z
     f48:	80 7f       	andi	r24, 0xF0	; 240
     f4a:	80 81       	ld	r24, Z
     f4c:	80 80       	ld	r8, Z
     f4e:	7f 80       	ldd	r7, Y+7	; 0x07
     f50:	80 80       	ld	r8, Z
     f52:	81 80       	ldd	r8, Z+1	; 0x01
     f54:	80 80       	ld	r8, Z
     f56:	80 80       	ld	r8, Z
     f58:	80 80       	ld	r8, Z
     f5a:	80 81       	ld	r24, Z
     f5c:	80 80       	ld	r8, Z
     f5e:	80 7f       	andi	r24, 0xF0	; 240
     f60:	7f 80       	ldd	r7, Y+7	; 0x07
     f62:	80 7f       	andi	r24, 0xF0	; 240
     f64:	7f 7e       	andi	r23, 0xEF	; 239
     f66:	7f 7e       	andi	r23, 0xEF	; 239
     f68:	7e 7f       	andi	r23, 0xFE	; 254
     f6a:	7f 7f       	andi	r23, 0xFF	; 255
     f6c:	7f 7f       	andi	r23, 0xFF	; 255
     f6e:	80 7e       	andi	r24, 0xE0	; 224
     f70:	7f 7f       	andi	r23, 0xFF	; 255
     f72:	7f 7f       	andi	r23, 0xFF	; 255
     f74:	80 7f       	andi	r24, 0xF0	; 240
     f76:	80 7f       	andi	r24, 0xF0	; 240
     f78:	7f 80       	ldd	r7, Y+7	; 0x07
     f7a:	7f 7f       	andi	r23, 0xFF	; 255
     f7c:	7f 7f       	andi	r23, 0xFF	; 255
     f7e:	7f 80       	ldd	r7, Y+7	; 0x07
     f80:	7f 7f       	andi	r23, 0xFF	; 255
     f82:	7f 7e       	andi	r23, 0xEF	; 239
     f84:	7f 80       	ldd	r7, Y+7	; 0x07
     f86:	7f 80       	ldd	r7, Y+7	; 0x07
     f88:	7f 80       	ldd	r7, Y+7	; 0x07
     f8a:	80 7f       	andi	r24, 0xF0	; 240
     f8c:	80 80       	ld	r8, Z
     f8e:	7f 80       	ldd	r7, Y+7	; 0x07
     f90:	7f 7f       	andi	r23, 0xFF	; 255
     f92:	80 7f       	andi	r24, 0xF0	; 240
     f94:	80 7f       	andi	r24, 0xF0	; 240
     f96:	7f 7f       	andi	r23, 0xFF	; 255
     f98:	7f 7f       	andi	r23, 0xFF	; 255
     f9a:	7f 7f       	andi	r23, 0xFF	; 255
     f9c:	7f 7f       	andi	r23, 0xFF	; 255
     f9e:	7f 7e       	andi	r23, 0xEF	; 239
     fa0:	7f 7f       	andi	r23, 0xFF	; 255
     fa2:	80 7f       	andi	r24, 0xF0	; 240
     fa4:	7f 7f       	andi	r23, 0xFF	; 255
     fa6:	7f 7f       	andi	r23, 0xFF	; 255
     fa8:	7f 7f       	andi	r23, 0xFF	; 255
     faa:	7f 7f       	andi	r23, 0xFF	; 255
     fac:	80 7f       	andi	r24, 0xF0	; 240
     fae:	80 80       	ld	r8, Z
     fb0:	80 80       	ld	r8, Z
     fb2:	7f 80       	ldd	r7, Y+7	; 0x07
     fb4:	80 81       	ld	r24, Z
     fb6:	81 81       	ldd	r24, Z+1	; 0x01
     fb8:	80 81       	ld	r24, Z
     fba:	80 80       	ld	r8, Z
     fbc:	81 81       	ldd	r24, Z+1	; 0x01
     fbe:	80 80       	ld	r8, Z
     fc0:	80 80       	ld	r8, Z
     fc2:	80 80       	ld	r8, Z
     fc4:	80 80       	ld	r8, Z
     fc6:	80 80       	ld	r8, Z
     fc8:	80 80       	ld	r8, Z
     fca:	80 80       	ld	r8, Z
     fcc:	81 81       	ldd	r24, Z+1	; 0x01
     fce:	80 80       	ld	r8, Z
     fd0:	80 80       	ld	r8, Z
     fd2:	81 81       	ldd	r24, Z+1	; 0x01
     fd4:	80 81       	ld	r24, Z
     fd6:	80 81       	ld	r24, Z
     fd8:	80 80       	ld	r8, Z
     fda:	80 81       	ld	r24, Z
     fdc:	81 80       	ldd	r8, Z+1	; 0x01
     fde:	80 80       	ld	r8, Z
     fe0:	80 80       	ld	r8, Z
     fe2:	80 81       	ld	r24, Z
     fe4:	80 80       	ld	r8, Z
     fe6:	7f 80       	ldd	r7, Y+7	; 0x07
     fe8:	81 7f       	andi	r24, 0xF1	; 241
     fea:	7f 7f       	andi	r23, 0xFF	; 255
     fec:	7f 7f       	andi	r23, 0xFF	; 255
     fee:	7f 7f       	andi	r23, 0xFF	; 255
     ff0:	7e 7f       	andi	r23, 0xFE	; 254
     ff2:	7f 7f       	andi	r23, 0xFF	; 255
     ff4:	7f 7f       	andi	r23, 0xFF	; 255
     ff6:	7f 7f       	andi	r23, 0xFF	; 255
     ff8:	7f 7f       	andi	r23, 0xFF	; 255
     ffa:	7f 7f       	andi	r23, 0xFF	; 255
     ffc:	7f 7f       	andi	r23, 0xFF	; 255
     ffe:	7f 7f       	andi	r23, 0xFF	; 255
    1000:	7f 7f       	andi	r23, 0xFF	; 255
    1002:	80 80       	ld	r8, Z
    1004:	7f 7f       	andi	r23, 0xFF	; 255
    1006:	7f 80       	ldd	r7, Y+7	; 0x07
    1008:	80 80       	ld	r8, Z
    100a:	7f 80       	ldd	r7, Y+7	; 0x07
    100c:	80 81       	ld	r24, Z
    100e:	81 81       	ldd	r24, Z+1	; 0x01
    1010:	80 7f       	andi	r24, 0xF0	; 240
    1012:	7f 7f       	andi	r23, 0xFF	; 255
    1014:	80 80       	ld	r8, Z
    1016:	80 7f       	andi	r24, 0xF0	; 240
    1018:	7f 7f       	andi	r23, 0xFF	; 255
    101a:	7f 7e       	andi	r23, 0xEF	; 239
    101c:	7f 7f       	andi	r23, 0xFF	; 255
    101e:	7f 7f       	andi	r23, 0xFF	; 255
    1020:	7f 7f       	andi	r23, 0xFF	; 255
    1022:	7f 7e       	andi	r23, 0xEF	; 239
    1024:	7f 7f       	andi	r23, 0xFF	; 255
    1026:	7f 80       	ldd	r7, Y+7	; 0x07
    1028:	7f 7f       	andi	r23, 0xFF	; 255
    102a:	7f 7f       	andi	r23, 0xFF	; 255
    102c:	80 80       	ld	r8, Z
    102e:	80 80       	ld	r8, Z
    1030:	7f 80       	ldd	r7, Y+7	; 0x07
    1032:	80 80       	ld	r8, Z
    1034:	80 81       	ld	r24, Z
    1036:	80 80       	ld	r8, Z
    1038:	80 80       	ld	r8, Z
    103a:	80 7f       	andi	r24, 0xF0	; 240
    103c:	81 80       	ldd	r8, Z+1	; 0x01
    103e:	80 7f       	andi	r24, 0xF0	; 240
    1040:	80 7f       	andi	r24, 0xF0	; 240
    1042:	7f 80       	ldd	r7, Y+7	; 0x07
    1044:	81 80       	ldd	r8, Z+1	; 0x01
    1046:	7f 7f       	andi	r23, 0xFF	; 255
    1048:	7f 7f       	andi	r23, 0xFF	; 255
    104a:	7e 7f       	andi	r23, 0xFE	; 254
    104c:	7f 80       	ldd	r7, Y+7	; 0x07
    104e:	7f 80       	ldd	r7, Y+7	; 0x07
    1050:	80 80       	ld	r8, Z
    1052:	7f 80       	ldd	r7, Y+7	; 0x07
    1054:	80 80       	ld	r8, Z
    1056:	80 80       	ld	r8, Z
    1058:	80 80       	ld	r8, Z
    105a:	81 81       	ldd	r24, Z+1	; 0x01
    105c:	81 80       	ldd	r8, Z+1	; 0x01
    105e:	80 80       	ld	r8, Z
    1060:	80 80       	ld	r8, Z
    1062:	7f 7e       	andi	r23, 0xEF	; 239
    1064:	7f 7f       	andi	r23, 0xFF	; 255
    1066:	80 80       	ld	r8, Z
    1068:	7e 80       	ldd	r7, Y+6	; 0x06
    106a:	80 80       	ld	r8, Z
    106c:	80 7f       	andi	r24, 0xF0	; 240
    106e:	7f 7f       	andi	r23, 0xFF	; 255
    1070:	81 80       	ldd	r8, Z+1	; 0x01
    1072:	80 7f       	andi	r24, 0xF0	; 240
    1074:	7f 7e       	andi	r23, 0xEF	; 239
    1076:	7f 80       	ldd	r7, Y+7	; 0x07
    1078:	7f 7f       	andi	r23, 0xFF	; 255
    107a:	7f 7f       	andi	r23, 0xFF	; 255
    107c:	7f 80       	ldd	r7, Y+7	; 0x07
    107e:	7f 80       	ldd	r7, Y+7	; 0x07
    1080:	7f 7f       	andi	r23, 0xFF	; 255
    1082:	7f 7f       	andi	r23, 0xFF	; 255
    1084:	80 80       	ld	r8, Z
    1086:	81 80       	ldd	r8, Z+1	; 0x01
    1088:	81 80       	ldd	r8, Z+1	; 0x01
    108a:	80 7f       	andi	r24, 0xF0	; 240
    108c:	7f 7f       	andi	r23, 0xFF	; 255
    108e:	80 7f       	andi	r24, 0xF0	; 240
    1090:	7f 80       	ldd	r7, Y+7	; 0x07
    1092:	81 7f       	andi	r24, 0xF1	; 241
    1094:	80 7f       	andi	r24, 0xF0	; 240
    1096:	80 80       	ld	r8, Z
    1098:	80 80       	ld	r8, Z
    109a:	80 7f       	andi	r24, 0xF0	; 240
    109c:	7e 81       	ldd	r23, Y+6	; 0x06
    109e:	7f 7f       	andi	r23, 0xFF	; 255
    10a0:	7e 7e       	andi	r23, 0xEE	; 238
    10a2:	7d 7f       	andi	r23, 0xFD	; 253
    10a4:	80 7f       	andi	r24, 0xF0	; 240
    10a6:	80 7f       	andi	r24, 0xF0	; 240
    10a8:	7e 7e       	andi	r23, 0xEE	; 238
    10aa:	7f 7f       	andi	r23, 0xFF	; 255
    10ac:	80 80       	ld	r8, Z
    10ae:	80 81       	ld	r24, Z
    10b0:	80 80       	ld	r8, Z
    10b2:	80 80       	ld	r8, Z
    10b4:	7f 7f       	andi	r23, 0xFF	; 255
    10b6:	80 7f       	andi	r24, 0xF0	; 240
    10b8:	7f 80       	ldd	r7, Y+7	; 0x07
    10ba:	7f 80       	ldd	r7, Y+7	; 0x07
    10bc:	80 80       	ld	r8, Z
    10be:	81 80       	ldd	r8, Z+1	; 0x01
    10c0:	80 80       	ld	r8, Z
    10c2:	80 80       	ld	r8, Z
    10c4:	80 7f       	andi	r24, 0xF0	; 240
    10c6:	80 80       	ld	r8, Z
    10c8:	81 82       	std	Z+1, r8	; 0x01
    10ca:	7e 7e       	andi	r23, 0xEE	; 238
    10cc:	7e 7e       	andi	r23, 0xEE	; 238
    10ce:	7f 7f       	andi	r23, 0xFF	; 255
    10d0:	80 81       	ld	r24, Z
    10d2:	81 81       	ldd	r24, Z+1	; 0x01
    10d4:	7f 80       	ldd	r7, Y+7	; 0x07
    10d6:	80 7f       	andi	r24, 0xF0	; 240
    10d8:	80 81       	ld	r24, Z
    10da:	80 81       	ld	r24, Z
    10dc:	81 80       	ldd	r8, Z+1	; 0x01
    10de:	80 7f       	andi	r24, 0xF0	; 240
    10e0:	7e 80       	ldd	r7, Y+6	; 0x06
    10e2:	80 7e       	andi	r24, 0xE0	; 224
    10e4:	7e 7d       	andi	r23, 0xDE	; 222
    10e6:	7f 80       	ldd	r7, Y+7	; 0x07
    10e8:	80 7f       	andi	r24, 0xF0	; 240
    10ea:	7d 7e       	andi	r23, 0xED	; 237
    10ec:	7e 7f       	andi	r23, 0xFE	; 254
    10ee:	83 83       	std	Z+3, r24	; 0x03
    10f0:	82 7f       	andi	r24, 0xF2	; 242
    10f2:	80 81       	ld	r24, Z
    10f4:	81 81       	ldd	r24, Z+1	; 0x01
    10f6:	7e 7d       	andi	r23, 0xDE	; 222
    10f8:	7e 80       	ldd	r7, Y+6	; 0x06
    10fa:	81 7f       	andi	r24, 0xF1	; 241
    10fc:	7e 7c       	andi	r23, 0xCE	; 206
    10fe:	7c 7f       	andi	r23, 0xFC	; 252
    1100:	80 82       	st	Z, r8
    1102:	81 7e       	andi	r24, 0xE1	; 225
    1104:	7f 81       	ldd	r23, Y+7	; 0x07
    1106:	84 83       	std	Z+4, r24	; 0x04
    1108:	82 80       	ldd	r8, Z+2	; 0x02
    110a:	7f 7d       	andi	r23, 0xDF	; 223
    110c:	7d 7e       	andi	r23, 0xED	; 237
    110e:	7e 7e       	andi	r23, 0xEE	; 238
    1110:	7d 7f       	andi	r23, 0xFD	; 253
    1112:	7e 81       	ldd	r23, Y+6	; 0x06
    1114:	80 82       	st	Z, r8
    1116:	81 7f       	andi	r24, 0xF1	; 241
    1118:	80 80       	ld	r8, Z
    111a:	82 80       	ldd	r8, Z+2	; 0x02
    111c:	82 82       	std	Z+2, r8	; 0x02
    111e:	82 7f       	andi	r24, 0xF2	; 242
    1120:	7f 81       	ldd	r23, Y+7	; 0x07
    1122:	80 7f       	andi	r24, 0xF0	; 240
    1124:	7b 7b       	andi	r23, 0xBB	; 187
    1126:	7d 7e       	andi	r23, 0xED	; 237
    1128:	7f 81       	ldd	r23, Y+7	; 0x07
    112a:	81 82       	std	Z+1, r8	; 0x01
    112c:	80 80       	ld	r8, Z
    112e:	80 7d       	andi	r24, 0xD0	; 208
    1130:	7d 7f       	andi	r23, 0xFD	; 253
    1132:	80 82       	st	Z, r8
    1134:	7f 80       	ldd	r7, Y+7	; 0x07
    1136:	81 7f       	andi	r24, 0xF1	; 241
    1138:	7d 7b       	andi	r23, 0xBD	; 189
    113a:	7c 7c       	andi	r23, 0xCC	; 204
    113c:	82 80       	ldd	r8, Z+2	; 0x02
    113e:	81 81       	ldd	r24, Z+1	; 0x01
    1140:	82 7f       	andi	r24, 0xF2	; 242
    1142:	7e 80       	ldd	r7, Y+6	; 0x06
    1144:	7e 80       	ldd	r7, Y+6	; 0x06
    1146:	82 83       	std	Z+2, r24	; 0x02
    1148:	81 82       	std	Z+1, r8	; 0x01
    114a:	81 7f       	andi	r24, 0xF1	; 241
    114c:	80 7e       	andi	r24, 0xE0	; 224
    114e:	7e 7d       	andi	r23, 0xDE	; 222
    1150:	82 82       	std	Z+2, r8	; 0x02
    1152:	7f 7e       	andi	r23, 0xEF	; 239
    1154:	79 7e       	andi	r23, 0xE9	; 233
    1156:	81 84       	ldd	r8, Z+9	; 0x09
    1158:	81 7d       	andi	r24, 0xD1	; 209
    115a:	81 81       	ldd	r24, Z+1	; 0x01
    115c:	80 80       	ld	r8, Z
    115e:	80 7b       	andi	r24, 0xB0	; 176
    1160:	7f 7f       	andi	r23, 0xFF	; 255
    1162:	7f 82       	std	Y+7, r7	; 0x07
    1164:	82 83       	std	Z+2, r24	; 0x02
    1166:	7d 7e       	andi	r23, 0xED	; 237
    1168:	7d 7e       	andi	r23, 0xED	; 237
    116a:	80 82       	st	Z, r8
    116c:	83 80       	ldd	r8, Z+3	; 0x03
    116e:	80 81       	ld	r24, Z
    1170:	83 7f       	andi	r24, 0xF3	; 243
    1172:	82 7d       	andi	r24, 0xD2	; 210
    1174:	7c 7e       	andi	r23, 0xEC	; 236
    1176:	7e 83       	std	Y+6, r23	; 0x06
    1178:	7e 80       	ldd	r7, Y+6	; 0x06
    117a:	7b 78       	andi	r23, 0x8B	; 139
    117c:	79 78       	andi	r23, 0x89	; 137
    117e:	7e 83       	std	Y+6, r23	; 0x06
    1180:	7f 86       	std	Y+15, r7	; 0x0f
    1182:	7f 7e       	andi	r23, 0xEF	; 239
    1184:	85 7f       	andi	r24, 0xF5	; 245
    1186:	81 7b       	andi	r24, 0xB1	; 177
    1188:	78 7f       	andi	r23, 0xF8	; 248
    118a:	81 89       	ldd	r24, Z+17	; 0x11
    118c:	86 83       	std	Z+6, r24	; 0x06
    118e:	85 81       	ldd	r24, Z+5	; 0x05
    1190:	81 7e       	andi	r24, 0xE1	; 225
    1192:	7d 80       	ldd	r7, Y+5	; 0x05
    1194:	7d 86       	std	Y+13, r7	; 0x0d
    1196:	85 7f       	andi	r24, 0xF5	; 245
    1198:	85 81       	ldd	r24, Z+5	; 0x05
    119a:	7e 7c       	andi	r23, 0xCE	; 206
    119c:	74 77       	andi	r23, 0x74	; 116
    119e:	78 7f       	andi	r23, 0xF8	; 248
    11a0:	81 7e       	andi	r24, 0xE1	; 225
    11a2:	83 81       	ldd	r24, Z+3	; 0x03
    11a4:	82 7f       	andi	r24, 0xF2	; 242
    11a6:	7c 7e       	andi	r23, 0xEC	; 236
    11a8:	79 7d       	andi	r23, 0xD9	; 217
    11aa:	83 7c       	andi	r24, 0xC3	; 195
    11ac:	84 83       	std	Z+4, r24	; 0x04
    11ae:	7c 7f       	andi	r23, 0xFC	; 252
    11b0:	79 7a       	andi	r23, 0xA9	; 169
    11b2:	79 7f       	andi	r23, 0xF9	; 249
    11b4:	7f 7b       	andi	r23, 0xBF	; 191
    11b6:	81 84       	ldd	r8, Z+9	; 0x09
    11b8:	83 86       	std	Z+11, r8	; 0x0b
    11ba:	7e 7e       	andi	r23, 0xEE	; 238
    11bc:	81 7f       	andi	r24, 0xF1	; 241
    11be:	86 81       	ldd	r24, Z+6	; 0x06
    11c0:	81 87       	std	Z+9, r24	; 0x09
    11c2:	81 81       	ldd	r24, Z+1	; 0x01
    11c4:	80 7b       	andi	r24, 0xB0	; 176
    11c6:	7a 7d       	andi	r23, 0xDA	; 218
    11c8:	80 7f       	andi	r24, 0xF0	; 240
    11ca:	81 81       	ldd	r24, Z+1	; 0x01
    11cc:	81 83       	std	Z+1, r24	; 0x01
    11ce:	82 7d       	andi	r24, 0xD2	; 210
    11d0:	81 7e       	andi	r24, 0xE1	; 225
    11d2:	7e 80       	ldd	r7, Y+6	; 0x06
    11d4:	7d 82       	std	Y+5, r7	; 0x05
    11d6:	85 83       	std	Z+5, r24	; 0x05
    11d8:	7e 7e       	andi	r23, 0xEE	; 238
    11da:	78 7a       	andi	r23, 0xA8	; 168
    11dc:	79 8a       	std	Y+17, r7	; 0x11
    11de:	88 87       	std	Y+8, r24	; 0x08
    11e0:	87 7a       	andi	r24, 0xA7	; 167
    11e2:	76 73       	andi	r23, 0x36	; 54
    11e4:	7f 7a       	andi	r23, 0xAF	; 175
    11e6:	79 7f       	andi	r23, 0xF9	; 249
    11e8:	7a 80       	ldd	r7, Y+2	; 0x02
    11ea:	86 84       	ldd	r8, Z+14	; 0x0e
    11ec:	7f 77       	andi	r23, 0x7F	; 127
    11ee:	7a 79       	andi	r23, 0x9A	; 154
    11f0:	7e 90       	ld	r7, -X
    11f2:	99 8d       	ldd	r25, Y+25	; 0x19
    11f4:	8b 88       	ldd	r8, Y+19	; 0x13
    11f6:	81 79       	andi	r24, 0x91	; 145
    11f8:	78 82       	st	Y, r7
    11fa:	78 7c       	andi	r23, 0xC8	; 200
    11fc:	7e 7e       	andi	r23, 0xEE	; 238
    11fe:	7e 86       	std	Y+14, r7	; 0x0e
    1200:	81 73       	andi	r24, 0x31	; 49
    1202:	7a 73       	andi	r23, 0x3A	; 58
    1204:	77 85       	ldd	r23, Z+15	; 0x0f
    1206:	94 8e       	std	Z+28, r9	; 0x1c
    1208:	84 87       	std	Z+12, r24	; 0x0c
    120a:	7f 77       	andi	r23, 0x7F	; 127
    120c:	70 7b       	andi	r23, 0xB0	; 176
    120e:	77 75       	andi	r23, 0x57	; 87
    1210:	7d 7b       	andi	r23, 0xBD	; 189
    1212:	7d 82       	std	Y+5, r7	; 0x05
    1214:	88 7c       	andi	r24, 0xC8	; 200
    1216:	73 77       	andi	r23, 0x73	; 115
    1218:	74 7f       	andi	r23, 0xF4	; 244
    121a:	92 92       	st	-Z, r9
    121c:	87 89       	ldd	r24, Z+23	; 0x17
    121e:	81 7d       	andi	r24, 0xD1	; 209
    1220:	76 78       	andi	r23, 0x86	; 134
    1222:	80 72       	andi	r24, 0x20	; 32
    1224:	7c 7c       	andi	r23, 0xCC	; 204
    1226:	82 83       	std	Z+2, r24	; 0x02
    1228:	85 87       	std	Z+13, r24	; 0x0d
    122a:	72 7f       	andi	r23, 0xF2	; 242
    122c:	79 7c       	andi	r23, 0xC9	; 201
    122e:	91 96       	adiw	r26, 0x21	; 33
    1230:	8f 8a       	std	Y+23, r8	; 0x17
    1232:	89 83       	std	Y+1, r24	; 0x01
    1234:	7e 76       	andi	r23, 0x6E	; 110
    1236:	81 7c       	andi	r24, 0xC1	; 193
    1238:	7c 7f       	andi	r23, 0xFC	; 252
    123a:	7a 84       	ldd	r7, Y+10	; 0x0a
    123c:	81 84       	ldd	r8, Z+9	; 0x09
    123e:	75 71       	andi	r23, 0x15	; 21
    1240:	7d 76       	andi	r23, 0x6D	; 109
    1242:	87 94       	ror	r8
    1244:	8e 87       	std	Y+14, r24	; 0x0e
    1246:	87 7e       	andi	r24, 0xE7	; 231
    1248:	7c 72       	andi	r23, 0x2C	; 44
    124a:	78 80       	ld	r7, Y
    124c:	72 7f       	andi	r23, 0xF2	; 242
    124e:	7a 80       	ldd	r7, Y+2	; 0x02
    1250:	7b 80       	ldd	r7, Y+3	; 0x03
    1252:	7e 6a       	ori	r23, 0xAE	; 174
    1254:	7d 74       	andi	r23, 0x4D	; 77
    1256:	7e 8f       	std	Y+30, r23	; 0x1e
    1258:	8f 8b       	std	Y+23, r24	; 0x17
    125a:	86 84       	ldd	r8, Z+14	; 0x0e
    125c:	80 79       	andi	r24, 0x90	; 144
    125e:	73 81       	ldd	r23, Z+3	; 0x03
    1260:	78 7c       	andi	r23, 0xC8	; 200
    1262:	7d 80       	ldd	r7, Y+5	; 0x05
    1264:	86 7f       	andi	r24, 0xF6	; 246
    1266:	87 6d       	ori	r24, 0xD7	; 215
    1268:	75 7a       	andi	r23, 0xA5	; 165
    126a:	7a 8e       	std	Y+26, r7	; 0x1a
    126c:	92 90       	ld	r9, -Z
    126e:	88 88       	ldd	r8, Y+16	; 0x10
    1270:	82 81       	ldd	r24, Z+2	; 0x02
    1272:	75 7d       	andi	r23, 0xD5	; 213
    1274:	80 79       	andi	r24, 0x90	; 144
    1276:	7d 7f       	andi	r23, 0xFD	; 253
    1278:	81 83       	std	Z+1, r24	; 0x01
    127a:	87 79       	andi	r24, 0x97	; 151
    127c:	73 7b       	andi	r23, 0xB3	; 179
    127e:	76 83       	std	Z+6, r23	; 0x06
    1280:	91 92       	st	Z+, r9
    1282:	8b 83       	std	Y+3, r24	; 0x03
    1284:	83 84       	ldd	r8, Z+11	; 0x0b
    1286:	7d 7d       	andi	r23, 0xDD	; 221
    1288:	7f 71       	andi	r23, 0x1F	; 31
    128a:	7b 79       	andi	r23, 0x9B	; 155
    128c:	7a 7e       	andi	r23, 0xEA	; 234
    128e:	81 7d       	andi	r24, 0xD1	; 209
    1290:	6c 78       	andi	r22, 0x8C	; 140
    1292:	74 7c       	andi	r23, 0xC4	; 196
    1294:	89 8f       	std	Y+25, r24	; 0x19
    1296:	8a 84       	ldd	r8, Y+10	; 0x0a
    1298:	81 7c       	andi	r24, 0xC1	; 193
    129a:	77 7a       	andi	r23, 0xA7	; 167
    129c:	8c 82       	std	Y+4, r8	; 0x04
    129e:	7b 81       	ldd	r23, Y+3	; 0x03
    12a0:	77 7a       	andi	r23, 0xA7	; 167
    12a2:	83 85       	ldd	r24, Z+11	; 0x0b
    12a4:	74 73       	andi	r23, 0x34	; 52
    12a6:	79 77       	andi	r23, 0x79	; 121
    12a8:	88 92       	.word	0x9288	; ????
    12aa:	90 86       	std	Z+8, r9	; 0x08
    12ac:	84 7f       	andi	r24, 0xF4	; 244
    12ae:	7c 75       	andi	r23, 0x5C	; 92
    12b0:	7e 82       	std	Y+6, r7	; 0x06
    12b2:	7b 8a       	std	Y+19, r7	; 0x13
    12b4:	86 86       	std	Z+14, r8	; 0x0e
    12b6:	82 83       	std	Z+2, r24	; 0x02
    12b8:	7a 6d       	ori	r23, 0xDA	; 218
    12ba:	76 77       	andi	r23, 0x76	; 118
    12bc:	7e 8f       	std	Y+30, r23	; 0x1e
    12be:	90 88       	ldd	r9, Z+16	; 0x10
    12c0:	85 81       	ldd	r24, Z+5	; 0x05
    12c2:	80 78       	andi	r24, 0x80	; 128
    12c4:	75 7d       	andi	r23, 0xD5	; 213
    12c6:	79 7b       	andi	r23, 0xB9	; 185
    12c8:	7e 84       	ldd	r7, Y+14	; 0x0e
    12ca:	8b 89       	ldd	r24, Y+19	; 0x13
    12cc:	87 71       	andi	r24, 0x17	; 23
    12ce:	72 7a       	andi	r23, 0xA2	; 162
    12d0:	76 89       	ldd	r23, Z+22	; 0x16
    12d2:	91 8e       	std	Z+25, r9	; 0x19
    12d4:	88 82       	st	Y, r8
    12d6:	81 7d       	andi	r24, 0xD1	; 209
    12d8:	76 7c       	andi	r23, 0xC6	; 198
    12da:	7a 78       	andi	r23, 0x8A	; 138
    12dc:	77 7b       	andi	r23, 0xB7	; 183
    12de:	7b 81       	ldd	r23, Y+3	; 0x03
    12e0:	8c 80       	ldd	r8, Y+4	; 0x04
    12e2:	72 7b       	andi	r23, 0xB2	; 178
    12e4:	78 7d       	andi	r23, 0xD8	; 216
    12e6:	91 90       	ld	r9, Z+
    12e8:	8a 88       	ldd	r8, Y+18	; 0x12
    12ea:	84 83       	std	Z+4, r24	; 0x04
    12ec:	78 7a       	andi	r23, 0xA8	; 168
    12ee:	7e 7a       	andi	r23, 0xAE	; 174
    12f0:	78 7c       	andi	r23, 0xC8	; 200
    12f2:	7e 78       	andi	r23, 0x8E	; 142
    12f4:	82 79       	andi	r24, 0x92	; 146
    12f6:	76 7a       	andi	r23, 0xA6	; 166
    12f8:	7c 85       	ldd	r23, Y+12	; 0x0c
    12fa:	89 91       	ld	r24, Y+
    12fc:	8a 86       	std	Y+10, r8	; 0x0a
    12fe:	83 81       	ldd	r24, Z+3	; 0x03
    1300:	80 78       	andi	r24, 0x80	; 128
    1302:	7e 7c       	andi	r23, 0xCE	; 206
    1304:	77 7c       	andi	r23, 0xC7	; 199
    1306:	80 7d       	andi	r24, 0xD0	; 208
    1308:	81 86       	std	Z+9, r8	; 0x09
    130a:	72 7a       	andi	r23, 0xA2	; 162
    130c:	78 79       	andi	r23, 0x98	; 152
    130e:	8a 8e       	std	Y+26, r8	; 0x1a
    1310:	8e 84       	ldd	r8, Y+14	; 0x0e
    1312:	81 7e       	andi	r24, 0xE1	; 225
    1314:	7c 78       	andi	r23, 0x8C	; 140
    1316:	7a 7c       	andi	r23, 0xCA	; 202
    1318:	7a 78       	andi	r23, 0x8A	; 138
    131a:	7e 7e       	andi	r23, 0xEE	; 238
    131c:	7f 8b       	std	Y+23, r23	; 0x17
    131e:	7a 73       	andi	r23, 0x3A	; 58
    1320:	78 78       	andi	r23, 0x88	; 136
    1322:	81 8c       	ldd	r8, Z+25	; 0x19
    1324:	95 88       	ldd	r9, Z+21	; 0x15
    1326:	89 84       	ldd	r8, Y+9	; 0x09
    1328:	81 80       	ldd	r8, Z+1	; 0x01
    132a:	77 7e       	andi	r23, 0xE7	; 231
    132c:	7c 78       	andi	r23, 0x8C	; 140
    132e:	7e 81       	ldd	r23, Y+6	; 0x06
    1330:	81 89       	ldd	r24, Z+17	; 0x11
    1332:	85 75       	andi	r24, 0x55	; 85
    1334:	76 7d       	andi	r23, 0xD6	; 214
    1336:	7b 89       	ldd	r23, Y+19	; 0x13
    1338:	95 8d       	ldd	r25, Z+29	; 0x1d
    133a:	89 84       	ldd	r8, Y+9	; 0x09
    133c:	84 87       	std	Z+12, r24	; 0x0c
    133e:	7d 7e       	andi	r23, 0xED	; 237
    1340:	75 73       	andi	r23, 0x35	; 53
    1342:	7b 75       	andi	r23, 0x5B	; 91
    1344:	7c 82       	std	Y+4, r7	; 0x04
    1346:	83 78       	andi	r24, 0x83	; 131
    1348:	6e 79       	andi	r22, 0x9E	; 158
    134a:	75 81       	ldd	r23, Z+5	; 0x05
    134c:	90 8d       	ldd	r25, Z+24	; 0x18
    134e:	89 85       	ldd	r24, Y+9	; 0x09
    1350:	7d 7d       	andi	r23, 0xDD	; 221
    1352:	7b 85       	ldd	r23, Y+11	; 0x0b
    1354:	86 78       	andi	r24, 0x86	; 134
    1356:	7d 77       	andi	r23, 0x7D	; 125
    1358:	75 80       	ldd	r7, Z+5	; 0x05
    135a:	86 7c       	andi	r24, 0xC6	; 198
    135c:	6f 77       	andi	r22, 0x7F	; 127
    135e:	77 78       	andi	r23, 0x87	; 135
    1360:	8f 90       	pop	r8
    1362:	89 86       	std	Y+9, r8	; 0x09
    1364:	80 7e       	andi	r24, 0xE0	; 224
    1366:	7b 77       	andi	r23, 0x7B	; 123
    1368:	80 7a       	andi	r24, 0xA0	; 160
    136a:	81 86       	std	Z+9, r8	; 0x09
    136c:	83 83       	std	Z+3, r24	; 0x03
    136e:	80 87       	std	Z+8, r24	; 0x08
    1370:	6d 73       	andi	r22, 0x3D	; 61
    1372:	7b 73       	andi	r23, 0x3B	; 59
    1374:	87 94       	ror	r8
    1376:	8d 88       	ldd	r8, Y+21	; 0x15
    1378:	84 80       	ldd	r8, Z+4	; 0x04
    137a:	7f 78       	andi	r23, 0x8F	; 143
    137c:	7c 7b       	andi	r23, 0xBC	; 188
    137e:	7b 7b       	andi	r23, 0xBB	; 187
    1380:	82 8c       	ldd	r8, Z+26	; 0x1a
    1382:	89 8d       	ldd	r24, Y+25	; 0x19
    1384:	7c 6c       	ori	r23, 0xCC	; 204
    1386:	79 75       	andi	r23, 0x59	; 89
    1388:	7e 92       	st	-X, r7
    138a:	91 8a       	std	Z+17, r9	; 0x11
    138c:	88 7f       	andi	r24, 0xF8	; 248
    138e:	80 7b       	andi	r24, 0xB0	; 176
    1390:	7a 7a       	andi	r23, 0xAA	; 170
    1392:	7a 77       	andi	r23, 0x7A	; 122
    1394:	77 7e       	andi	r23, 0xE7	; 231
    1396:	7b 8d       	ldd	r23, Y+27	; 0x1b
    1398:	87 72       	andi	r24, 0x27	; 39
    139a:	76 78       	andi	r23, 0x86	; 134
    139c:	76 89       	ldd	r23, Z+22	; 0x16
    139e:	96 8b       	std	Z+22, r25	; 0x16
    13a0:	8a 83       	std	Y+2, r24	; 0x02
    13a2:	80 80       	ld	r8, Z
    13a4:	78 7d       	andi	r23, 0xD8	; 216
    13a6:	7a 79       	andi	r23, 0x9A	; 154
    13a8:	79 7c       	andi	r23, 0xC9	; 201
    13aa:	79 7c       	andi	r23, 0xC9	; 201
    13ac:	84 74       	andi	r24, 0x44	; 68
    13ae:	7a 79       	andi	r23, 0x9A	; 154
    13b0:	79 85       	ldd	r23, Y+9	; 0x09
    13b2:	8f 8c       	ldd	r8, Y+31	; 0x1f
    13b4:	86 86       	std	Z+14, r8	; 0x0e
    13b6:	7e 81       	ldd	r23, Y+6	; 0x06
    13b8:	7d 7d       	andi	r23, 0xDD	; 221
    13ba:	7b 7b       	andi	r23, 0xBB	; 187
    13bc:	77 7a       	andi	r23, 0xA7	; 167
    13be:	7f 7b       	andi	r23, 0xBF	; 191
    13c0:	89 79       	andi	r24, 0x99	; 153
    13c2:	72 7c       	andi	r23, 0xC2	; 194
    13c4:	75 7f       	andi	r23, 0xF5	; 245
    13c6:	91 91       	ld	r25, Z+
    13c8:	87 83       	std	Z+7, r24	; 0x07
    13ca:	7f 7c       	andi	r23, 0xCF	; 207
    13cc:	7d 7b       	andi	r23, 0xBD	; 189
    13ce:	7e 7e       	andi	r23, 0xEE	; 238
    13d0:	7b 79       	andi	r23, 0x9B	; 155
    13d2:	7e 7d       	andi	r23, 0xDE	; 222
    13d4:	89 87       	std	Y+9, r24	; 0x09
    13d6:	70 7b       	andi	r23, 0xB0	; 176
    13d8:	74 7e       	andi	r23, 0xE4	; 228
    13da:	86 95       	lsr	r24
    13dc:	91 85       	ldd	r25, Z+9	; 0x09
    13de:	89 7e       	andi	r24, 0xE9	; 233
    13e0:	82 7e       	andi	r24, 0xE2	; 226
    13e2:	7d 7f       	andi	r23, 0xFD	; 253
    13e4:	7c 79       	andi	r23, 0x9C	; 156
    13e6:	7f 7c       	andi	r23, 0xCF	; 207
    13e8:	86 8b       	std	Z+22, r24	; 0x16
    13ea:	78 76       	andi	r23, 0x68	; 104
    13ec:	7b 79       	andi	r23, 0x9B	; 155
    13ee:	81 90       	ld	r8, Z+
    13f0:	94 86       	std	Z+12, r9	; 0x0c
    13f2:	89 83       	std	Y+1, r24	; 0x01
    13f4:	83 7f       	andi	r24, 0xF3	; 243
    13f6:	80 7c       	andi	r24, 0xC0	; 192
    13f8:	73 7a       	andi	r23, 0xA3	; 163
    13fa:	74 78       	andi	r23, 0x84	; 132
    13fc:	77 8a       	std	Z+23, r7	; 0x17
    13fe:	7e 6d       	ori	r23, 0xDE	; 222
    1400:	77 72       	andi	r23, 0x27	; 39
    1402:	7b 85       	ldd	r23, Y+11	; 0x0b
    1404:	95 89       	ldd	r25, Z+21	; 0x15
    1406:	86 83       	std	Z+6, r24	; 0x06
    1408:	7a 7e       	andi	r23, 0xEA	; 234
    140a:	7e 8b       	std	Y+22, r23	; 0x16
    140c:	7b 7b       	andi	r23, 0xBB	; 187
    140e:	77 73       	andi	r23, 0x37	; 55
    1410:	7a 85       	ldd	r23, Y+10	; 0x0a
    1412:	8a 72       	andi	r24, 0x2A	; 42
    1414:	76 76       	andi	r23, 0x66	; 102
    1416:	77 80       	ldd	r7, Z+7	; 0x07
    1418:	96 91       	elpm	r25, Z
    141a:	83 8a       	std	Z+19, r8	; 0x13
    141c:	7d 7f       	andi	r23, 0xFD	; 253
    141e:	79 7e       	andi	r23, 0xE9	; 233
    1420:	80 7e       	andi	r24, 0xE0	; 224
    1422:	84 83       	std	Z+4, r24	; 0x04
    1424:	7e 7d       	andi	r23, 0xDE	; 222
    1426:	8c 75       	andi	r24, 0x5C	; 92
    1428:	74 74       	andi	r23, 0x44	; 68
    142a:	74 7c       	andi	r23, 0xC4	; 196
    142c:	88 99       	sbic	0x11, 0	; 17
    142e:	85 86       	std	Z+13, r8	; 0x0d
    1430:	82 7d       	andi	r24, 0xD2	; 210
    1432:	7b 76       	andi	r23, 0x6B	; 107
    1434:	7c 7b       	andi	r23, 0xBC	; 188
    1436:	79 7e       	andi	r23, 0xE9	; 233
    1438:	85 88       	ldd	r8, Z+21	; 0x15
    143a:	8e 84       	ldd	r8, Y+14	; 0x0e
    143c:	70 73       	andi	r23, 0x30	; 48
    143e:	76 78       	andi	r23, 0x86	; 134
    1440:	83 97       	sbiw	r24, 0x23	; 35
    1442:	8f 86       	std	Y+15, r8	; 0x0f
    1444:	86 7c       	andi	r24, 0xC6	; 198
    1446:	7f 79       	andi	r23, 0x9F	; 159
    1448:	7d 7d       	andi	r23, 0xDD	; 221
    144a:	76 75       	andi	r23, 0x56	; 86
    144c:	7b 79       	andi	r23, 0x9B	; 155
    144e:	89 90       	ld	r8, Y+
    1450:	7a 74       	andi	r23, 0x4A	; 74
    1452:	75 79       	andi	r23, 0x95	; 149
    1454:	78 94       	sei
    1456:	98 86       	std	Y+8, r9	; 0x08
    1458:	8b 83       	std	Y+3, r24	; 0x03
    145a:	80 7c       	andi	r24, 0xC0	; 192
    145c:	7a 80       	ldd	r7, Y+2	; 0x02
    145e:	79 7a       	andi	r23, 0xA9	; 169
    1460:	7a 79       	andi	r23, 0x9A	; 154
    1462:	77 85       	ldd	r23, Z+15	; 0x0f
    1464:	7f 74       	andi	r23, 0x4F	; 79
    1466:	7c 76       	andi	r23, 0x6C	; 108
    1468:	7c 87       	std	Y+12, r23	; 0x0c
    146a:	96 8a       	std	Z+22, r9	; 0x16
    146c:	87 86       	std	Z+15, r8	; 0x0f
    146e:	7f 7f       	andi	r23, 0xFF	; 255
    1470:	7c 7e       	andi	r23, 0xEC	; 236
    1472:	7d 79       	andi	r23, 0x9D	; 157
    1474:	77 7e       	andi	r23, 0xE7	; 231
    1476:	77 87       	std	Z+15, r23	; 0x0f
    1478:	83 72       	andi	r24, 0x23	; 35
    147a:	77 76       	andi	r23, 0x67	; 103
    147c:	7a 82       	std	Y+2, r7	; 0x02
    147e:	96 90       	elpm	r9, Z
    1480:	84 83       	std	Z+4, r24	; 0x04
    1482:	7e 7c       	andi	r23, 0xCE	; 206
    1484:	7d 7b       	andi	r23, 0xBD	; 189
    1486:	7e 7d       	andi	r23, 0xDE	; 222
    1488:	79 7c       	andi	r23, 0xC9	; 201
    148a:	77 83       	std	Z+7, r23	; 0x07
    148c:	8f 78       	andi	r24, 0x8F	; 143
    148e:	76 74       	andi	r23, 0x46	; 70
    1490:	77 81       	ldd	r23, Z+7	; 0x07
    1492:	89 9e       	mul	r8, r25
    1494:	8c 88       	ldd	r8, Y+20	; 0x14
    1496:	84 7d       	andi	r24, 0xD4	; 212
    1498:	7f 7c       	andi	r23, 0xCF	; 207
    149a:	7e 81       	ldd	r23, Y+6	; 0x06
    149c:	7a 7c       	andi	r23, 0xCA	; 202
    149e:	7e 7a       	andi	r23, 0xAE	; 174
    14a0:	8f 81       	ldd	r24, Y+7	; 0x07
    14a2:	73 79       	andi	r23, 0x93	; 147
    14a4:	75 7a       	andi	r23, 0xA5	; 165
    14a6:	84 96       	adiw	r24, 0x24	; 36
    14a8:	94 87       	std	Z+12, r25	; 0x0c
    14aa:	86 83       	std	Z+6, r24	; 0x06
    14ac:	7f 7d       	andi	r23, 0xDF	; 223
    14ae:	7e 77       	andi	r23, 0x7E	; 126
    14b0:	7a 78       	andi	r23, 0x8A	; 138
    14b2:	76 75       	andi	r23, 0x56	; 86
    14b4:	81 8b       	std	Z+17, r24	; 0x11
    14b6:	70 74       	andi	r23, 0x40	; 64
    14b8:	72 76       	andi	r23, 0x62	; 98
    14ba:	7d 8c       	ldd	r7, Y+29	; 0x1d
    14bc:	96 85       	ldd	r25, Z+14	; 0x0e
    14be:	88 7c       	andi	r24, 0xC8	; 200
    14c0:	7f 7f       	andi	r23, 0xFF	; 255
    14c2:	83 84       	ldd	r8, Z+11	; 0x0b
    14c4:	7b 76       	andi	r23, 0x6B	; 107
    14c6:	74 77       	andi	r23, 0x74	; 116
    14c8:	7a 8e       	std	Y+26, r7	; 0x1a
    14ca:	7b 71       	andi	r23, 0x1B	; 27
    14cc:	78 71       	andi	r23, 0x18	; 24
    14ce:	7c 86       	std	Y+12, r7	; 0x0c
    14d0:	9a 8f       	std	Y+26, r25	; 0x1a
    14d2:	85 86       	std	Z+13, r8	; 0x0d
    14d4:	7f 79       	andi	r23, 0x9F	; 159
    14d6:	7a 81       	ldd	r23, Y+2	; 0x02
    14d8:	84 82       	std	Z+4, r8	; 0x04
    14da:	81 80       	ldd	r8, Z+1	; 0x01
    14dc:	74 88       	ldd	r7, Z+20	; 0x14
    14de:	83 73       	andi	r24, 0x33	; 51
    14e0:	77 6f       	ori	r23, 0xF7	; 247
    14e2:	77 7f       	andi	r23, 0xF7	; 247
    14e4:	94 95       	.word	0x9594	; ????
    14e6:	87 86       	std	Z+15, r8	; 0x0f
    14e8:	80 7c       	andi	r24, 0xC0	; 192
    14ea:	7b 79       	andi	r23, 0x9B	; 155
    14ec:	7b 7d       	andi	r23, 0xDB	; 219
    14ee:	7a 84       	ldd	r7, Y+10	; 0x0a
    14f0:	82 89       	ldd	r24, Z+18	; 0x12
    14f2:	8d 75       	andi	r24, 0x5D	; 93
    14f4:	72 74       	andi	r23, 0x42	; 66
    14f6:	73 7c       	andi	r23, 0xC3	; 195
    14f8:	89 98       	cbi	0x11, 1	; 17
    14fa:	8d 85       	ldd	r24, Y+13	; 0x0d
    14fc:	82 7d       	andi	r24, 0xD2	; 210
    14fe:	7d 7b       	andi	r23, 0xBD	; 189
    1500:	7b 7c       	andi	r23, 0xCB	; 203
    1502:	78 77       	andi	r23, 0x78	; 120
    1504:	7c 7d       	andi	r23, 0xDC	; 220
    1506:	92 85       	ldd	r25, Z+10	; 0x0a
    1508:	77 75       	andi	r23, 0x57	; 87
    150a:	75 77       	andi	r23, 0x75	; 117
    150c:	82 99       	sbic	0x10, 2	; 16
    150e:	94 8a       	std	Z+20, r9	; 0x14
    1510:	88 82       	st	Y, r8
    1512:	80 7b       	andi	r24, 0xB0	; 176
    1514:	7b 7f       	andi	r23, 0xFB	; 251
    1516:	7c 7b       	andi	r23, 0xBC	; 188
    1518:	77 78       	andi	r23, 0x87	; 135
    151a:	7c 89       	ldd	r23, Y+20	; 0x14
    151c:	76 78       	andi	r23, 0x86	; 134
    151e:	77 72       	andi	r23, 0x27	; 39
    1520:	80 8a       	std	Z+16, r8	; 0x10
    1522:	98 89       	ldd	r25, Y+16	; 0x10
    1524:	87 83       	std	Z+7, r24	; 0x07
    1526:	7f 7d       	andi	r23, 0xDF	; 223
    1528:	7b 7c       	andi	r23, 0xCB	; 203
    152a:	7c 78       	andi	r23, 0x8C	; 140
    152c:	7a 7a       	andi	r23, 0xAA	; 170
    152e:	7c 8b       	std	Y+20, r23	; 0x14
    1530:	75 75       	andi	r23, 0x55	; 85
    1532:	76 74       	andi	r23, 0x46	; 70
    1534:	7c 89       	ldd	r23, Y+20	; 0x14
    1536:	97 8a       	std	Z+23, r9	; 0x17
    1538:	87 82       	std	Z+7, r8	; 0x07
    153a:	7d 7e       	andi	r23, 0xED	; 237
    153c:	7c 79       	andi	r23, 0x9C	; 156
    153e:	7f 7c       	andi	r23, 0xCF	; 207
    1540:	79 79       	andi	r23, 0x99	; 153
    1542:	79 8d       	ldd	r23, Y+25	; 0x19
    1544:	86 74       	andi	r24, 0x46	; 70
    1546:	78 72       	andi	r23, 0x28	; 40
    1548:	7a 83       	std	Y+2, r23	; 0x02
    154a:	95 98       	cbi	0x12, 5	; 18
    154c:	8a 8a       	std	Y+18, r8	; 0x12
    154e:	7f 7f       	andi	r23, 0xFF	; 255
    1550:	7d 7a       	andi	r23, 0xAD	; 173
    1552:	7e 7c       	andi	r23, 0xCE	; 206
    1554:	7b 7d       	andi	r23, 0xDB	; 219
    1556:	7a 83       	std	Y+2, r23	; 0x02
    1558:	8c 79       	andi	r24, 0x9C	; 156
    155a:	76 79       	andi	r23, 0x96	; 150
    155c:	74 7c       	andi	r23, 0xC4	; 196
    155e:	88 9a       	sbi	0x11, 0	; 17
    1560:	8f 8a       	std	Y+23, r8	; 0x17
    1562:	87 80       	ldd	r8, Z+7	; 0x07
    1564:	7e 7c       	andi	r23, 0xCE	; 206
    1566:	7d 76       	andi	r23, 0x6D	; 109
    1568:	7e 7a       	andi	r23, 0xAE	; 174
    156a:	76 78       	andi	r23, 0x86	; 134
    156c:	8a 7f       	andi	r24, 0xFA	; 250
    156e:	71 75       	andi	r23, 0x51	; 81
    1570:	72 79       	andi	r23, 0x92	; 146
    1572:	80 94       	com	r8
    1574:	8f 88       	ldd	r8, Y+23	; 0x17
    1576:	86 7b       	andi	r24, 0xB6	; 182
    1578:	83 82       	std	Z+3, r8	; 0x03
    157a:	81 7d       	andi	r24, 0xD1	; 209
    157c:	78 74       	andi	r23, 0x48	; 72
    157e:	77 75       	andi	r23, 0x57	; 87
    1580:	84 83       	std	Z+4, r24	; 0x04
    1582:	71 77       	andi	r23, 0x71	; 113
    1584:	72 75       	andi	r23, 0x52	; 82
    1586:	7b 8d       	ldd	r23, Y+27	; 0x1b
    1588:	96 8b       	std	Z+22, r25	; 0x16
    158a:	88 83       	st	Y, r24
    158c:	7c 79       	andi	r23, 0x9C	; 156
    158e:	7c 84       	ldd	r7, Y+12	; 0x0c
    1590:	84 82       	std	Z+4, r8	; 0x04
    1592:	82 79       	andi	r24, 0x92	; 146
    1594:	7f 8a       	std	Y+23, r7	; 0x17
    1596:	7d 76       	andi	r23, 0x6D	; 109
    1598:	76 74       	andi	r23, 0x46	; 70
    159a:	7a 88       	ldd	r7, Y+18	; 0x12
    159c:	9b 90       	.word	0x909b	; ????
    159e:	8b 88       	ldd	r8, Y+19	; 0x13
    15a0:	7f 7d       	andi	r23, 0xDF	; 223
    15a2:	7c 77       	andi	r23, 0x7C	; 124
    15a4:	7d 7d       	andi	r23, 0xDD	; 221
    15a6:	81 81       	ldd	r24, Z+1	; 0x01
    15a8:	7f 8e       	std	Y+31, r7	; 0x1f
    15aa:	79 77       	andi	r23, 0x79	; 121
    15ac:	72 70       	andi	r23, 0x02	; 2
    15ae:	75 78       	andi	r23, 0x85	; 133
    15b0:	91 93       	st	Z+, r25
    15b2:	89 89       	ldd	r24, Y+17	; 0x11
    15b4:	7e 7c       	andi	r23, 0xCE	; 206
    15b6:	7c 79       	andi	r23, 0x9C	; 156
    15b8:	7a 79       	andi	r23, 0x9A	; 154
    15ba:	78 77       	andi	r23, 0x78	; 120
    15bc:	79 89       	ldd	r23, Y+17	; 0x11
    15be:	8b 7c       	andi	r24, 0xCB	; 203
    15c0:	75 73       	andi	r23, 0x35	; 53
    15c2:	76 76       	andi	r23, 0x66	; 102
    15c4:	8c 98       	cbi	0x11, 4	; 17
    15c6:	8e 8d       	ldd	r24, Y+30	; 0x1e
    15c8:	86 7f       	andi	r24, 0xF6	; 246
    15ca:	7d 7c       	andi	r23, 0xCD	; 205
    15cc:	7b 79       	andi	r23, 0x9B	; 155
    15ce:	7f 79       	andi	r23, 0x9F	; 159
    15d0:	75 79       	andi	r23, 0x95	; 149
    15d2:	84 85       	ldd	r24, Z+12	; 0x0c
    15d4:	77 79       	andi	r23, 0x97	; 151
    15d6:	72 77       	andi	r23, 0x72	; 114
    15d8:	81 94       	neg	r8
    15da:	94 8b       	std	Z+20, r25	; 0x14
    15dc:	8c 80       	ldd	r8, Y+4	; 0x04
    15de:	80 7d       	andi	r24, 0xD0	; 208
    15e0:	7d 79       	andi	r23, 0x9D	; 157
    15e2:	7d 7a       	andi	r23, 0xAD	; 173
    15e4:	7b 7a       	andi	r23, 0xAB	; 171
    15e6:	86 82       	std	Z+6, r8	; 0x06
    15e8:	71 7c       	andi	r23, 0xC1	; 193
    15ea:	72 7b       	andi	r23, 0xB2	; 178
    15ec:	7c 93       	st	X, r23
    15ee:	94 86       	std	Z+12, r9	; 0x0c
    15f0:	8d 81       	ldd	r24, Y+5	; 0x05
    15f2:	7d 7f       	andi	r23, 0xFD	; 253
    15f4:	7c 78       	andi	r23, 0x8C	; 140
    15f6:	7c 7d       	andi	r23, 0xDC	; 220
    15f8:	78 78       	andi	r23, 0x88	; 136
    15fa:	82 8b       	std	Z+18, r24	; 0x12
    15fc:	78 75       	andi	r23, 0x58	; 88
    15fe:	73 73       	andi	r23, 0x33	; 51
    1600:	7b 84       	ldd	r7, Y+11	; 0x0b
    1602:	9b 8e       	std	Y+27, r9	; 0x1b
    1604:	89 89       	ldd	r24, Y+17	; 0x11
    1606:	7d 7d       	andi	r23, 0xDD	; 221
    1608:	7e 79       	andi	r23, 0x9E	; 158
    160a:	7b 7b       	andi	r23, 0xBB	; 187
    160c:	7e 79       	andi	r23, 0x9E	; 158
    160e:	7d 8a       	std	Y+21, r7	; 0x15
    1610:	80 77       	andi	r24, 0x70	; 112
    1612:	79 75       	andi	r23, 0x59	; 89
    1614:	77 7d       	andi	r23, 0xD7	; 215
    1616:	8d 9b       	sbis	0x11, 5	; 17
    1618:	8b 8f       	std	Y+27, r24	; 0x1b
    161a:	86 7e       	andi	r24, 0xE6	; 230
    161c:	80 7c       	andi	r24, 0xC0	; 192
    161e:	79 7a       	andi	r23, 0xA9	; 169
    1620:	7d 79       	andi	r23, 0x9D	; 157
    1622:	7a 86       	std	Y+10, r7	; 0x0a
    1624:	87 77       	andi	r24, 0x77	; 119
    1626:	76 74       	andi	r23, 0x46	; 70
    1628:	77 7a       	andi	r23, 0xA7	; 167
    162a:	87 95       	ror	r24
    162c:	8d 8b       	std	Y+21, r24	; 0x15
    162e:	86 80       	ldd	r8, Z+6	; 0x06
    1630:	83 82       	std	Z+3, r8	; 0x03
    1632:	7b 79       	andi	r23, 0x9B	; 155
    1634:	76 77       	andi	r23, 0x76	; 118
    1636:	78 7c       	andi	r23, 0xC8	; 200
    1638:	87 76       	andi	r24, 0x67	; 103
    163a:	76 74       	andi	r23, 0x46	; 70
    163c:	72 76       	andi	r23, 0x62	; 98
    163e:	7d 94 8f 89 	jmp	0x1f131e	; 0x1f131e <__TEXT_REGION_LENGTH__+0x1d131e>
    1642:	8b 7c       	andi	r24, 0xCB	; 203
    1644:	7b 7b       	andi	r23, 0xBB	; 187
    1646:	81 83       	std	Z+1, r24	; 0x01
    1648:	7e 84       	ldd	r7, Y+14	; 0x0e
    164a:	76 7b       	andi	r23, 0xB6	; 182
    164c:	86 82       	std	Z+6, r8	; 0x06
    164e:	78 76       	andi	r23, 0x68	; 104
    1650:	75 79       	andi	r23, 0x95	; 149
    1652:	79 91       	ld	r23, Y+
    1654:	97 8c       	ldd	r9, Z+31	; 0x1f
    1656:	8c 86       	std	Y+12, r8	; 0x0c
    1658:	7d 7d       	andi	r23, 0xDD	; 221
    165a:	79 78       	andi	r23, 0x89	; 137
    165c:	7e 7d       	andi	r23, 0xDE	; 222
    165e:	85 78       	andi	r24, 0x85	; 133
    1660:	8e 80       	ldd	r8, Y+6	; 0x06
    1662:	79 77       	andi	r23, 0x79	; 121
    1664:	6e 79       	andi	r22, 0x9E	; 158
    1666:	73 81       	ldd	r23, Z+3	; 0x03
    1668:	97 90       	elpm	r9, Z+
    166a:	8b 89       	ldd	r24, Y+19	; 0x13
    166c:	80 7e       	andi	r24, 0xE0	; 224
    166e:	7b 79       	andi	r23, 0x9B	; 155
    1670:	79 79       	andi	r23, 0x99	; 153
    1672:	79 7a       	andi	r23, 0xA9	; 169
    1674:	83 8e       	std	Z+27, r8	; 0x1b
    1676:	7f 7a       	andi	r23, 0xAF	; 175
    1678:	71 74       	andi	r23, 0x41	; 65
    167a:	75 7a       	andi	r23, 0xA5	; 165
    167c:	90 94       	com	r9
    167e:	8c 8c       	ldd	r8, Y+28	; 0x1c
    1680:	85 7f       	andi	r24, 0xF5	; 245
    1682:	7c 7b       	andi	r23, 0xBC	; 188
    1684:	77 7c       	andi	r23, 0xC7	; 199
    1686:	79 77       	andi	r23, 0x79	; 121
    1688:	78 7f       	andi	r23, 0xF8	; 248
    168a:	88 7f       	andi	r24, 0xF8	; 248
    168c:	7d 73       	andi	r23, 0x3D	; 61
    168e:	77 75       	andi	r23, 0x57	; 87
    1690:	84 9a       	sbi	0x10, 4	; 16
    1692:	8d 8d       	ldd	r24, Y+29	; 0x1d
    1694:	87 83       	std	Z+7, r24	; 0x07
    1696:	7f 7d       	andi	r23, 0xDF	; 223
    1698:	79 7a       	andi	r23, 0xA9	; 169
    169a:	7a 79       	andi	r23, 0x9A	; 154
    169c:	7c 7e       	andi	r23, 0xEC	; 236
    169e:	89 73       	andi	r24, 0x39	; 57
    16a0:	77 77       	andi	r23, 0x77	; 119
    16a2:	74 7e       	andi	r23, 0xE4	; 228
    16a4:	7c 98       	cbi	0x0f, 4	; 15
    16a6:	8d 8b       	std	Y+21, r24	; 0x15
    16a8:	8d 83       	std	Y+5, r24	; 0x05
    16aa:	81 7f       	andi	r24, 0xF1	; 241
    16ac:	7b 78       	andi	r23, 0x8B	; 139
    16ae:	7e 79       	andi	r23, 0x9E	; 158
    16b0:	79 7c       	andi	r23, 0xC9	; 201
    16b2:	8b 82       	std	Y+3, r8	; 0x03
    16b4:	73 76       	andi	r23, 0x63	; 99
    16b6:	6f 7c       	andi	r22, 0xCF	; 207
    16b8:	7b 8e       	std	Y+27, r7	; 0x1b
    16ba:	97 89       	ldd	r25, Z+23	; 0x17
    16bc:	8b 85       	ldd	r24, Y+11	; 0x0b
    16be:	80 7d       	andi	r24, 0xD0	; 208
    16c0:	7b 76       	andi	r23, 0x6B	; 107
    16c2:	7c 79       	andi	r23, 0x9C	; 156
    16c4:	7c 7a       	andi	r23, 0xAC	; 172
    16c6:	84 86       	std	Z+12, r8	; 0x0c
    16c8:	77 77       	andi	r23, 0x77	; 119
    16ca:	76 74       	andi	r23, 0x46	; 70
    16cc:	79 7c       	andi	r23, 0xC9	; 201
    16ce:	92 95       	swap	r25
    16d0:	8a 8d       	ldd	r24, Y+26	; 0x1a
    16d2:	83 81       	ldd	r24, Z+3	; 0x03
    16d4:	7c 78       	andi	r23, 0x8C	; 140
    16d6:	7a 7d       	andi	r23, 0xDA	; 218
    16d8:	79 7b       	andi	r23, 0xB9	; 185
    16da:	7f 89       	ldd	r23, Y+23	; 0x17
    16dc:	7e 77       	andi	r23, 0x7E	; 126
    16de:	75 72       	andi	r23, 0x25	; 37
    16e0:	7c 7a       	andi	r23, 0xAC	; 172
    16e2:	8d 91       	ld	r24, X+
    16e4:	8c 8c       	ldd	r8, Y+28	; 0x1c
    16e6:	86 88       	ldd	r8, Z+22	; 0x16
    16e8:	81 7e       	andi	r24, 0xE1	; 225
    16ea:	79 79       	andi	r23, 0x99	; 153
    16ec:	75 79       	andi	r23, 0x95	; 149
    16ee:	7a 83       	std	Y+2, r23	; 0x02
    16f0:	81 75       	andi	r24, 0x51	; 81
    16f2:	77 70       	andi	r23, 0x07	; 7
    16f4:	76 78       	andi	r23, 0x86	; 134
    16f6:	83 97       	sbiw	r24, 0x23	; 35
    16f8:	8b 8b       	std	Y+19, r24	; 0x13
    16fa:	89 7e       	andi	r24, 0xE9	; 233
    16fc:	81 7b       	andi	r24, 0xB1	; 177
    16fe:	84 7f       	andi	r24, 0xF4	; 244
    1700:	82 75       	andi	r24, 0x52	; 82
    1702:	7a 83       	std	Y+2, r23	; 0x02
    1704:	83 7e       	andi	r24, 0xE3	; 227
    1706:	74 75       	andi	r23, 0x54	; 84
    1708:	75 79       	andi	r23, 0x95	; 149
    170a:	7c 91       	ld	r23, X
    170c:	92 8b       	std	Z+18, r25	; 0x12
    170e:	8c 86       	std	Y+12, r8	; 0x0c
    1710:	80 7c       	andi	r24, 0xC0	; 192
    1712:	76 7d       	andi	r23, 0xD6	; 214
    1714:	7e 84       	ldd	r7, Y+14	; 0x0e
    1716:	7a 85       	ldd	r23, Y+10	; 0x0a
    1718:	87 7b       	andi	r24, 0xB7	; 183
    171a:	7b 71       	andi	r23, 0x1B	; 27
    171c:	74 76       	andi	r23, 0x64	; 100
    171e:	77 86       	std	Z+15, r7	; 0x0f
    1720:	96 8d       	ldd	r25, Z+30	; 0x1e
    1722:	8c 86       	std	Y+12, r8	; 0x0c
    1724:	83 81       	ldd	r24, Z+3	; 0x03
    1726:	78 76       	andi	r23, 0x68	; 104
    1728:	7a 77       	andi	r23, 0x7A	; 122
    172a:	7a 7d       	andi	r23, 0xDA	; 218
    172c:	8d 85       	ldd	r24, Y+13	; 0x0d
    172e:	7c 75       	andi	r23, 0x5C	; 92
    1730:	6e 77       	andi	r22, 0x7E	; 126
    1732:	74 7f       	andi	r23, 0xF4	; 244
    1734:	8f 8e       	std	Y+31, r8	; 0x1f
    1736:	8b 89       	ldd	r24, Y+19	; 0x13
    1738:	83 82       	std	Z+3, r8	; 0x03
    173a:	7b 77       	andi	r23, 0x7B	; 123
    173c:	78 7c       	andi	r23, 0xC8	; 200
    173e:	77 7a       	andi	r23, 0xA7	; 167
    1740:	7c 85       	ldd	r23, Y+12	; 0x0c
    1742:	85 81       	ldd	r24, Z+5	; 0x05
    1744:	77 73       	andi	r23, 0x37	; 55
    1746:	7a 74       	andi	r23, 0x4A	; 74
    1748:	8c 94 8c 8d 	jmp	0x211b18	; 0x211b18 <__TEXT_REGION_LENGTH__+0x1f1b18>
    174c:	87 85       	ldd	r24, Z+15	; 0x0f
    174e:	82 7a       	andi	r24, 0xA2	; 162
    1750:	79 79       	andi	r23, 0x99	; 153
    1752:	78 7c       	andi	r23, 0xC8	; 200
    1754:	7c 84       	ldd	r7, Y+12	; 0x0c
    1756:	7e 73       	andi	r23, 0x3E	; 62
    1758:	7c 72       	andi	r23, 0x2C	; 44
    175a:	7d 7a       	andi	r23, 0xAD	; 173
    175c:	83 95       	inc	r24
    175e:	89 8f       	std	Y+25, r24	; 0x19
    1760:	8b 86       	std	Y+11, r8	; 0x0b
    1762:	84 7e       	andi	r24, 0xE4	; 228
    1764:	78 7e       	andi	r23, 0xE8	; 232
    1766:	7b 77       	andi	r23, 0x7B	; 123
    1768:	7c 83       	std	Y+4, r23	; 0x04
    176a:	89 79       	andi	r24, 0x99	; 153
    176c:	74 71       	andi	r23, 0x14	; 20
    176e:	75 79       	andi	r23, 0x95	; 149
    1770:	7f 93       	push	r23
    1772:	8d 8b       	std	Y+21, r24	; 0x15
    1774:	87 84       	ldd	r8, Z+15	; 0x0f
    1776:	81 7f       	andi	r24, 0xF1	; 241
    1778:	77 76       	andi	r23, 0x67	; 103
    177a:	7c 77       	andi	r23, 0x7C	; 124
    177c:	79 7d       	andi	r23, 0xD9	; 217
    177e:	88 7d       	andi	r24, 0xD8	; 216
    1780:	7a 75       	andi	r23, 0x5A	; 90
    1782:	71 76       	andi	r23, 0x61	; 97
    1784:	77 82       	std	Z+7, r7	; 0x07
    1786:	94 8f       	std	Z+28, r25	; 0x1c
    1788:	8d 8a       	std	Y+21, r8	; 0x15
    178a:	82 85       	ldd	r24, Z+10	; 0x0a
    178c:	7a 77       	andi	r23, 0x7A	; 122
    178e:	7e 79       	andi	r23, 0x9E	; 158
    1790:	7a 7f       	andi	r23, 0xFA	; 250
    1792:	88 87       	std	Y+8, r24	; 0x08
    1794:	7b 78       	andi	r23, 0x8B	; 139
    1796:	71 79       	andi	r23, 0x91	; 145
    1798:	7d 7e       	andi	r23, 0xED	; 237
    179a:	90 8e       	std	Z+24, r9	; 0x18
    179c:	8d 8c       	ldd	r8, Y+29	; 0x1d
    179e:	89 8b       	std	Y+17, r24	; 0x11
    17a0:	80 7a       	andi	r24, 0xA0	; 160
    17a2:	7d 76       	andi	r23, 0x6D	; 109
    17a4:	77 7c       	andi	r23, 0xC7	; 199
    17a6:	7e 86       	std	Y+14, r7	; 0x0e
    17a8:	7f 76       	andi	r23, 0x6F	; 111
    17aa:	72 71       	andi	r23, 0x12	; 18
    17ac:	78 7a       	andi	r23, 0xA8	; 168
    17ae:	8b 92       	.word	0x928b	; ????
    17b0:	88 8d       	ldd	r24, Y+24	; 0x18
    17b2:	84 81       	ldd	r24, Z+4	; 0x04
    17b4:	86 81       	ldd	r24, Z+6	; 0x06
    17b6:	7c 85       	ldd	r23, Y+12	; 0x0c
    17b8:	70 77       	andi	r23, 0x70	; 112
    17ba:	7d 80       	ldd	r7, Y+5	; 0x05
    17bc:	86 74       	andi	r24, 0x46	; 70
    17be:	73 72       	andi	r23, 0x23	; 35
    17c0:	76 77       	andi	r23, 0x76	; 118
    17c2:	82 8f       	std	Z+26, r24	; 0x1a
    17c4:	8e 88       	ldd	r8, Y+22	; 0x16
    17c6:	89 84       	ldd	r8, Y+9	; 0x09
    17c8:	82 79       	andi	r24, 0x92	; 146
    17ca:	78 7e       	andi	r23, 0xE8	; 232
    17cc:	87 78       	andi	r24, 0x87	; 135
    17ce:	7d 89       	ldd	r23, Y+21	; 0x15
    17d0:	7f 81       	ldd	r23, Y+7	; 0x07
    17d2:	75 72       	andi	r23, 0x25	; 37
    17d4:	75 78       	andi	r23, 0x85	; 133
    17d6:	7e 8e       	std	Y+30, r7	; 0x1e
    17d8:	91 8d       	ldd	r25, Z+25	; 0x19
    17da:	8a 85       	ldd	r24, Y+10	; 0x0a
    17dc:	84 82       	std	Z+4, r8	; 0x04
    17de:	77 7a       	andi	r23, 0xA7	; 167
    17e0:	77 78       	andi	r23, 0x87	; 135
    17e2:	7b 85       	ldd	r23, Y+11	; 0x0b
    17e4:	8d 81       	ldd	r24, Y+5	; 0x05
    17e6:	79 6d       	ori	r23, 0xD9	; 217
    17e8:	71 73       	andi	r23, 0x31	; 49
    17ea:	79 82       	std	Y+1, r7	; 0x01
    17ec:	90 89       	ldd	r25, Z+16	; 0x10
    17ee:	8d 86       	std	Y+13, r8	; 0x0d
    17f0:	82 84       	ldd	r8, Z+10	; 0x0a
    17f2:	7c 7b       	andi	r23, 0xBC	; 188
    17f4:	79 77       	andi	r23, 0x79	; 121
    17f6:	77 7a       	andi	r23, 0xA7	; 167
    17f8:	7f 8a       	std	Y+23, r7	; 0x17
    17fa:	81 7d       	andi	r24, 0xD1	; 209
    17fc:	70 74       	andi	r23, 0x40	; 64
    17fe:	78 79       	andi	r23, 0x98	; 152
    1800:	93 8d       	ldd	r25, Z+27	; 0x1b
    1802:	89 8d       	ldd	r24, Y+25	; 0x19
    1804:	84 88       	ldd	r8, Z+20	; 0x14
    1806:	81 7d       	andi	r24, 0xD1	; 209
    1808:	7c 77       	andi	r23, 0x7C	; 124
    180a:	7a 7e       	andi	r23, 0xEA	; 234
    180c:	7d 83       	std	Y+5, r23	; 0x05
    180e:	7a 76       	andi	r23, 0x6A	; 106
    1810:	7a 72       	andi	r23, 0x2A	; 42
    1812:	80 7b       	andi	r24, 0xB0	; 176
    1814:	8b 92       	.word	0x928b	; ????
    1816:	89 91       	ld	r24, Y+
    1818:	89 88       	ldd	r8, Y+17	; 0x11
    181a:	87 80       	ldd	r8, Z+7	; 0x07
    181c:	7d 7d       	andi	r23, 0xDD	; 221
    181e:	77 79       	andi	r23, 0x97	; 151
    1820:	7f 87       	std	Y+15, r23	; 0x0f
    1822:	86 75       	andi	r24, 0x56	; 86
    1824:	72 6f       	ori	r23, 0xF2	; 242
    1826:	78 78       	andi	r23, 0x88	; 136
    1828:	87 91       	elpm	r24, Z+
    182a:	85 8b       	std	Z+21, r24	; 0x15
    182c:	84 83       	std	Z+4, r24	; 0x04
    182e:	83 7f       	andi	r24, 0xF3	; 243
    1830:	79 79       	andi	r23, 0x99	; 153
    1832:	75 78       	andi	r23, 0x85	; 133
    1834:	77 81       	ldd	r23, Z+7	; 0x07
    1836:	84 7d       	andi	r24, 0xD4	; 212
    1838:	79 70       	andi	r23, 0x09	; 9
    183a:	71 76       	andi	r23, 0x61	; 97
    183c:	79 8a       	std	Y+17, r7	; 0x11
    183e:	91 89       	ldd	r25, Z+17	; 0x11
    1840:	8a 84       	ldd	r8, Y+10	; 0x0a
    1842:	86 82       	std	Z+6, r8	; 0x06
    1844:	7b 7f       	andi	r23, 0xFB	; 251
    1846:	79 77       	andi	r23, 0x79	; 121
    1848:	7d 80       	ldd	r7, Y+5	; 0x05
    184a:	88 82       	st	Y, r8
    184c:	7b 72       	andi	r23, 0x2B	; 43
    184e:	73 7c       	andi	r23, 0xC3	; 195
    1850:	7a 83       	std	Y+2, r23	; 0x02
    1852:	90 8c       	ldd	r9, Z+24	; 0x18
    1854:	8c 8d       	ldd	r24, Y+28	; 0x1c
    1856:	8a 8b       	std	Y+18, r24	; 0x12
    1858:	7e 7f       	andi	r23, 0xFE	; 254
    185a:	7c 73       	andi	r23, 0x3C	; 60
    185c:	7c 7b       	andi	r23, 0xBC	; 188
    185e:	83 85       	ldd	r24, Z+11	; 0x0b
    1860:	7d 77       	andi	r23, 0x7D	; 125
    1862:	6e 75       	andi	r22, 0x5E	; 94
    1864:	78 7c       	andi	r23, 0xC8	; 200
    1866:	91 8c       	ldd	r9, Z+25	; 0x19
    1868:	87 86       	std	Z+15, r8	; 0x0f
    186a:	85 86       	std	Z+13, r8	; 0x0d
    186c:	89 81       	ldd	r24, Y+1	; 0x01
    186e:	80 77       	andi	r24, 0x70	; 112
    1870:	71 7c       	andi	r23, 0xC1	; 193
    1872:	78 86       	std	Y+8, r7	; 0x08
    1874:	7e 74       	andi	r23, 0x4E	; 78
    1876:	70 70       	andi	r23, 0x00	; 0
    1878:	79 75       	andi	r23, 0x59	; 89
    187a:	87 8e       	std	Z+31, r8	; 0x1f
    187c:	88 8a       	std	Y+16, r8	; 0x10
    187e:	86 84       	ldd	r8, Z+14	; 0x0e
    1880:	7e 7c       	andi	r23, 0xCE	; 206
    1882:	7e 86       	std	Y+14, r7	; 0x0e
    1884:	7b 78       	andi	r23, 0x8B	; 139
    1886:	82 80       	ldd	r8, Z+2	; 0x02
    1888:	85 7c       	andi	r24, 0xC5	; 197
    188a:	76 6c       	ori	r23, 0xC6	; 198
    188c:	76 79       	andi	r23, 0x96	; 150
    188e:	82 92       	st	-Z, r8
    1890:	8d 8a       	std	Y+21, r8	; 0x15
    1892:	89 84       	ldd	r8, Y+9	; 0x09
    1894:	88 7e       	andi	r24, 0xE8	; 232
    1896:	7a 7c       	andi	r23, 0xCA	; 202
    1898:	75 7b       	andi	r23, 0xB5	; 181
    189a:	7d 8d       	ldd	r23, Y+29	; 0x1d
    189c:	88 81       	ld	r24, Y
    189e:	76 6c       	ori	r23, 0xC6	; 198
    18a0:	75 77       	andi	r23, 0x75	; 117
    18a2:	7c 89       	ldd	r23, Y+20	; 0x14
    18a4:	8f 87       	std	Y+15, r24	; 0x0f
    18a6:	8c 85       	ldd	r24, Y+12	; 0x0c
    18a8:	87 84       	ldd	r8, Z+15	; 0x0f
    18aa:	7c 7f       	andi	r23, 0xFC	; 252
    18ac:	77 74       	andi	r23, 0x47	; 71
    18ae:	7c 7a       	andi	r23, 0xAC	; 172
    18b0:	88 87       	std	Y+8, r24	; 0x08
    18b2:	82 75       	andi	r24, 0x52	; 82
    18b4:	69 7b       	andi	r22, 0xB9	; 185
    18b6:	71 83       	std	Z+1, r23	; 0x01
    18b8:	94 88       	ldd	r9, Z+20	; 0x14
    18ba:	89 88       	ldd	r8, Y+17	; 0x11
    18bc:	86 86       	std	Z+14, r8	; 0x0e
    18be:	7c 81       	ldd	r23, Y+4	; 0x04
    18c0:	7b 72       	andi	r23, 0x2B	; 43
    18c2:	7b 7c       	andi	r23, 0xCB	; 203
    18c4:	7c 7e       	andi	r23, 0xEC	; 236
    18c6:	7a 7c       	andi	r23, 0xCA	; 202
    18c8:	73 76       	andi	r23, 0x63	; 99
    18ca:	7c 7a       	andi	r23, 0xAC	; 172
    18cc:	92 8d       	ldd	r25, Z+26	; 0x1a
    18ce:	89 8e       	std	Y+25, r8	; 0x19
    18d0:	87 8b       	std	Z+23, r24	; 0x17
    18d2:	83 81       	ldd	r24, Z+3	; 0x03
    18d4:	84 75       	andi	r24, 0x54	; 84
    18d6:	77 7c       	andi	r23, 0xC7	; 199
    18d8:	7e 89       	ldd	r23, Y+22	; 0x16
    18da:	7f 76       	andi	r23, 0x6F	; 111
    18dc:	71 6f       	ori	r23, 0xF1	; 241
    18de:	7a 7b       	andi	r23, 0xBA	; 186
    18e0:	8d 8f       	std	Y+29, r24	; 0x1d
    18e2:	85 8b       	std	Z+21, r24	; 0x15
    18e4:	83 86       	std	Z+11, r8	; 0x0b
    18e6:	85 7d       	andi	r24, 0xD5	; 213
    18e8:	81 79       	andi	r24, 0x91	; 145
    18ea:	73 7a       	andi	r23, 0xA3	; 163
    18ec:	77 83       	std	Z+7, r23	; 0x07
    18ee:	83 7f       	andi	r24, 0xF3	; 243
    18f0:	76 6c       	ori	r23, 0xC6	; 198
    18f2:	73 75       	andi	r23, 0x53	; 83
    18f4:	7e 91       	ld	r23, -X
    18f6:	8c 86       	std	Y+12, r8	; 0x0c
    18f8:	88 83       	st	Y, r24
    18fa:	87 7d       	andi	r24, 0xD7	; 215
    18fc:	81 81       	ldd	r24, Z+1	; 0x01
    18fe:	73 7c       	andi	r23, 0xC3	; 195
    1900:	7c 81       	ldd	r23, Y+4	; 0x04
    1902:	88 80       	ld	r8, Y
    1904:	7a 6f       	ori	r23, 0xFA	; 250
    1906:	76 7a       	andi	r23, 0xA6	; 166
    1908:	7a 85       	ldd	r23, Y+10	; 0x0a
    190a:	91 89       	ldd	r25, Z+17	; 0x11
    190c:	8b 8a       	std	Y+19, r8	; 0x13
    190e:	8b 87       	std	Y+11, r24	; 0x0b
    1910:	7a 87       	std	Y+10, r23	; 0x0a
    1912:	76 74       	andi	r23, 0x46	; 70
    1914:	7e 7c       	andi	r23, 0xCE	; 206
    1916:	85 85       	ldd	r24, Z+13	; 0x0d
    1918:	7f 75       	andi	r23, 0x5F	; 95
    191a:	6a 78       	andi	r22, 0x8A	; 138
    191c:	78 81       	ld	r23, Y
    191e:	93 88       	ldd	r9, Z+19	; 0x13
    1920:	88 84       	ldd	r8, Y+8	; 0x08
    1922:	86 8f       	std	Z+30, r24	; 0x1e
    1924:	83 83       	std	Z+3, r24	; 0x03
    1926:	80 6f       	ori	r24, 0xF0	; 240
    1928:	7a 77       	andi	r23, 0x7A	; 122
    192a:	7f 86       	std	Y+15, r7	; 0x0f
    192c:	7a 78       	andi	r23, 0x8A	; 138
    192e:	6d 71       	andi	r22, 0x1D	; 29
    1930:	78 78       	andi	r23, 0x88	; 136
    1932:	8b 8f       	std	Y+27, r24	; 0x1b
    1934:	88 8a       	std	Y+16, r8	; 0x10
    1936:	83 83       	std	Z+3, r24	; 0x03
    1938:	7f 7f       	andi	r23, 0xFF	; 255
    193a:	8b 7f       	andi	r24, 0xFB	; 251
    193c:	75 7e       	andi	r23, 0xE5	; 229
    193e:	79 85       	ldd	r23, Y+9	; 0x09
    1940:	84 7d       	andi	r24, 0xD4	; 212
    1942:	72 6c       	ori	r23, 0xC2	; 194
    1944:	78 78       	andi	r23, 0x88	; 136
    1946:	86 94       	lsr	r8
    1948:	88 87       	std	Y+8, r24	; 0x08
    194a:	88 85       	ldd	r24, Y+8	; 0x08
    194c:	87 77       	andi	r24, 0x77	; 119
    194e:	82 78       	andi	r24, 0x82	; 130
    1950:	78 7a       	andi	r23, 0xA8	; 168
    1952:	81 8c       	ldd	r8, Z+25	; 0x19
    1954:	82 83       	std	Z+2, r24	; 0x02
    1956:	6f 6e       	ori	r22, 0xEF	; 239
    1958:	73 79       	andi	r23, 0x93	; 147
    195a:	7e 8e       	std	Y+30, r7	; 0x1e
    195c:	8e 86       	std	Y+14, r8	; 0x0e
    195e:	8a 84       	ldd	r8, Y+10	; 0x0a
    1960:	8a 7e       	andi	r24, 0xEA	; 234
    1962:	80 82       	st	Z, r8
    1964:	70 78       	andi	r23, 0x80	; 128
    1966:	7c 80       	ldd	r7, Y+4	; 0x04
    1968:	8a 84       	ldd	r8, Y+10	; 0x0a
    196a:	81 6d       	ori	r24, 0xD1	; 209
    196c:	6e 78       	andi	r22, 0x8E	; 142
    196e:	73 8a       	std	Z+19, r7	; 0x13
    1970:	91 86       	std	Z+9, r9	; 0x09
    1972:	88 85       	ldd	r24, Y+8	; 0x08
    1974:	88 82       	st	Y, r8
    1976:	7c 85       	ldd	r23, Y+12	; 0x0c
    1978:	76 76       	andi	r23, 0x66	; 102
    197a:	7a 7b       	andi	r23, 0xBA	; 186
    197c:	7a 80       	ldd	r7, Y+2	; 0x02
    197e:	83 7c       	andi	r24, 0xC3	; 195
    1980:	71 73       	andi	r23, 0x31	; 49
    1982:	78 7b       	andi	r23, 0xB8	; 184
    1984:	93 8a       	std	Z+19, r9	; 0x13
    1986:	89 88       	ldd	r8, Y+17	; 0x11
    1988:	85 8c       	ldd	r8, Z+29	; 0x1d
    198a:	7f 85       	ldd	r23, Y+15	; 0x0f
    198c:	81 73       	andi	r24, 0x31	; 49
    198e:	79 7d       	andi	r23, 0xD9	; 217
    1990:	7f 87       	std	Y+15, r23	; 0x0f
    1992:	7a 78       	andi	r23, 0x8A	; 138
    1994:	70 71       	andi	r23, 0x10	; 16
    1996:	7e 7b       	andi	r23, 0xBE	; 190
    1998:	91 8d       	ldd	r25, Z+25	; 0x19
    199a:	85 8c       	ldd	r8, Z+29	; 0x1d
    199c:	84 8b       	std	Z+20, r24	; 0x14
    199e:	82 80       	ldd	r8, Z+2	; 0x02
    19a0:	85 78       	andi	r24, 0x85	; 133
    19a2:	77 7a       	andi	r23, 0xA7	; 167
    19a4:	79 84       	ldd	r7, Y+9	; 0x09
    19a6:	82 7d       	andi	r24, 0xD2	; 210
    19a8:	72 6c       	ori	r23, 0xC2	; 194
    19aa:	75 75       	andi	r23, 0x55	; 85
    19ac:	84 92       	xch	Z, r8
    19ae:	89 86       	std	Y+9, r8	; 0x09
    19b0:	83 85       	ldd	r24, Z+11	; 0x0b
    19b2:	83 7d       	andi	r24, 0xD3	; 211
    19b4:	84 7b       	andi	r24, 0xB4	; 180
    19b6:	74 7b       	andi	r23, 0xB4	; 180
    19b8:	7a 81       	ldd	r23, Y+2	; 0x02
    19ba:	84 7f       	andi	r24, 0xF4	; 244
    19bc:	78 6d       	ori	r23, 0xD8	; 216
    19be:	75 79       	andi	r23, 0x95	; 149
    19c0:	7a 88       	ldd	r7, Y+18	; 0x12
    19c2:	91 88       	ldd	r9, Z+17	; 0x11
    19c4:	8c 89       	ldd	r24, Y+20	; 0x14
    19c6:	8c 81       	ldd	r24, Y+4	; 0x04
    19c8:	80 87       	std	Z+8, r24	; 0x08
    19ca:	77 7a       	andi	r23, 0xA7	; 167
    19cc:	7e 7e       	andi	r23, 0xEE	; 238
    19ce:	87 85       	ldd	r24, Z+15	; 0x0f
    19d0:	7f 73       	andi	r23, 0x3F	; 63
    19d2:	6c 7a       	andi	r22, 0xAC	; 172
    19d4:	78 87       	std	Y+8, r23	; 0x08
    19d6:	91 88       	ldd	r9, Z+17	; 0x11
    19d8:	87 84       	ldd	r8, Z+15	; 0x0f
    19da:	8a 8b       	std	Y+18, r24	; 0x12
    19dc:	82 86       	std	Z+10, r8	; 0x0a
    19de:	7a 73       	andi	r23, 0x3A	; 58
    19e0:	79 75       	andi	r23, 0x59	; 89
    19e2:	83 82       	std	Z+3, r8	; 0x03
    19e4:	7c 75       	andi	r23, 0x5C	; 92
    19e6:	6c 72       	andi	r22, 0x2C	; 44
    19e8:	76 7a       	andi	r23, 0xA6	; 166
    19ea:	8f 8a       	std	Y+23, r8	; 0x17
    19ec:	88 87       	std	Y+8, r24	; 0x08
    19ee:	7f 82       	std	Y+7, r7	; 0x07
    19f0:	80 87       	std	Z+8, r24	; 0x08
    19f2:	89 79       	andi	r24, 0x99	; 153
    19f4:	7a 79       	andi	r23, 0x9A	; 154
    19f6:	7a 88       	ldd	r7, Y+18	; 0x12
    19f8:	80 7e       	andi	r24, 0xE0	; 224
    19fa:	6f 6e       	ori	r22, 0xEF	; 239
    19fc:	78 78       	andi	r23, 0x88	; 136
    19fe:	8b 92       	.word	0x928b	; ????
    1a00:	86 88       	ldd	r8, Z+22	; 0x16
    1a02:	87 89       	ldd	r24, Z+23	; 0x17
    1a04:	80 7b       	andi	r24, 0xB0	; 176
    1a06:	82 78       	andi	r24, 0x82	; 130
    1a08:	7d 79       	andi	r23, 0x9D	; 157
    1a0a:	85 86       	std	Z+13, r8	; 0x0d
    1a0c:	82 81       	ldd	r24, Z+2	; 0x02
    1a0e:	6f 70       	andi	r22, 0x0F	; 15
    1a10:	72 77       	andi	r23, 0x72	; 114
    1a12:	81 92       	st	Z+, r8
    1a14:	8d 88       	ldd	r8, Y+21	; 0x15
    1a16:	86 86       	std	Z+14, r8	; 0x0e
    1a18:	87 7d       	andi	r24, 0xD7	; 215
    1a1a:	85 7b       	andi	r24, 0xB5	; 181
    1a1c:	72 7a       	andi	r23, 0xA2	; 162
    1a1e:	7a 88       	ldd	r7, Y+18	; 0x12
    1a20:	87 86       	std	Z+15, r8	; 0x0f
    1a22:	7b 69       	ori	r23, 0x9B	; 155
    1a24:	74 73       	andi	r23, 0x34	; 52
    1a26:	7a 8d       	ldd	r23, Y+26	; 0x1a
    1a28:	8e 85       	ldd	r24, Y+14	; 0x0e
    1a2a:	87 85       	ldd	r24, Z+15	; 0x0f
    1a2c:	88 7e       	andi	r24, 0xE8	; 232
    1a2e:	82 82       	std	Z+2, r8	; 0x02
    1a30:	77 7b       	andi	r23, 0xB7	; 183
    1a32:	78 7b       	andi	r23, 0xB8	; 184
    1a34:	7c 86       	std	Y+12, r7	; 0x0c
    1a36:	83 7b       	andi	r24, 0xB3	; 179
    1a38:	70 75       	andi	r23, 0x50	; 80
    1a3a:	75 81       	ldd	r23, Z+5	; 0x05
    1a3c:	95 89       	ldd	r25, Z+21	; 0x15
    1a3e:	88 85       	ldd	r24, Y+8	; 0x08
    1a40:	86 86       	std	Z+14, r8	; 0x0e
    1a42:	80 87       	std	Z+8, r24	; 0x08
    1a44:	7c 76       	andi	r23, 0x6C	; 108
    1a46:	7d 78       	andi	r23, 0x8D	; 141
    1a48:	81 83       	std	Z+1, r24	; 0x01
    1a4a:	7b 77       	andi	r23, 0x7B	; 123
    1a4c:	6e 77       	andi	r22, 0x7E	; 126
    1a4e:	7b 7f       	andi	r23, 0xFB	; 251
    1a50:	94 8c       	ldd	r9, Z+28	; 0x1c
    1a52:	89 88       	ldd	r8, Y+17	; 0x11
    1a54:	85 87       	std	Z+13, r24	; 0x0d
    1a56:	81 86       	std	Z+9, r8	; 0x09
    1a58:	82 77       	andi	r24, 0x72	; 114
    1a5a:	7c 77       	andi	r23, 0x7C	; 124
    1a5c:	7c 87       	std	Y+12, r23	; 0x0c
    1a5e:	82 7c       	andi	r24, 0xC2	; 194
    1a60:	6d 6f       	ori	r22, 0xFD	; 253
    1a62:	73 76       	andi	r23, 0x63	; 99
    1a64:	8d 8e       	std	Y+29, r8	; 0x1d
    1a66:	89 83       	std	Y+1, r24	; 0x01
    1a68:	81 84       	ldd	r8, Z+9	; 0x09
    1a6a:	7c 82       	std	Y+4, r7	; 0x04
    1a6c:	81 76       	andi	r24, 0x61	; 97
    1a6e:	79 79       	andi	r23, 0x99	; 153
    1a70:	79 83       	std	Y+1, r23	; 0x01
    1a72:	82 81       	ldd	r24, Z+2	; 0x02
    1a74:	76 6d       	ori	r23, 0xD6	; 214
    1a76:	76 74       	andi	r23, 0x46	; 70
    1a78:	7c 8d       	ldd	r23, Y+28	; 0x1c
    1a7a:	8e 89       	ldd	r24, Y+22	; 0x16
    1a7c:	8b 88       	ldd	r8, Y+19	; 0x13
    1a7e:	87 80       	ldd	r8, Z+7	; 0x07
    1a80:	85 81       	ldd	r24, Z+5	; 0x05
    1a82:	78 7e       	andi	r23, 0xE8	; 232
    1a84:	7b 82       	std	Y+3, r7	; 0x03
    1a86:	88 83       	st	Y, r24
    1a88:	80 6d       	ori	r24, 0xD0	; 208
    1a8a:	71 77       	andi	r23, 0x71	; 113
    1a8c:	78 8e       	std	Y+24, r7	; 0x18
    1a8e:	8e 87       	std	Y+14, r24	; 0x0e
    1a90:	87 85       	ldd	r24, Z+15	; 0x0f
    1a92:	89 85       	ldd	r24, Y+9	; 0x09
    1a94:	84 85       	ldd	r24, Z+12	; 0x0c
    1a96:	74 7b       	andi	r23, 0xB4	; 180
    1a98:	77 78       	andi	r23, 0x87	; 135
    1a9a:	85 80       	ldd	r8, Z+5	; 0x05
    1a9c:	7e 74       	andi	r23, 0x4E	; 78
    1a9e:	6a 75       	andi	r22, 0x5A	; 90
    1aa0:	71 82       	std	Z+1, r7	; 0x01
    1aa2:	91 87       	std	Z+9, r25	; 0x09
    1aa4:	88 82       	st	Y, r8
    1aa6:	82 7d       	andi	r24, 0xD2	; 210
    1aa8:	84 8d       	ldd	r24, Z+28	; 0x1c
    1aaa:	82 79       	andi	r24, 0x92	; 146
    1aac:	79 75       	andi	r23, 0x59	; 89
    1aae:	7f 86       	std	Y+15, r7	; 0x0f
    1ab0:	80 79       	andi	r24, 0x90	; 144
    1ab2:	6c 73       	andi	r22, 0x3C	; 60
    1ab4:	75 79       	andi	r23, 0x95	; 149
    1ab6:	92 8c       	ldd	r9, Z+26	; 0x1a
    1ab8:	86 88       	ldd	r8, Z+22	; 0x16
    1aba:	86 84       	ldd	r8, Z+14	; 0x0e
    1abc:	78 83       	st	Y, r23
    1abe:	81 79       	andi	r24, 0x91	; 145
    1ac0:	7f 7c       	andi	r23, 0xCF	; 207
    1ac2:	84 84       	ldd	r8, Z+12	; 0x0c
    1ac4:	83 81       	ldd	r24, Z+3	; 0x03
    1ac6:	70 71       	andi	r23, 0x10	; 16
    1ac8:	76 74       	andi	r23, 0x46	; 70
    1aca:	8a 92       	st	-Y, r8
    1acc:	8a 8a       	std	Y+18, r8	; 0x12
    1ace:	84 88       	ldd	r8, Z+20	; 0x14
    1ad0:	82 7f       	andi	r24, 0xF2	; 242
    1ad2:	84 74       	andi	r24, 0x44	; 68
    1ad4:	79 7b       	andi	r23, 0xB9	; 185
    1ad6:	80 8a       	std	Z+16, r8	; 0x10
    1ad8:	85 87       	std	Z+13, r24	; 0x0d
    1ada:	72 6a       	ori	r23, 0xA2	; 162
    1adc:	73 70       	andi	r23, 0x03	; 3
    1ade:	7e 8f       	std	Y+30, r23	; 0x1e
    1ae0:	8a 88       	ldd	r8, Y+18	; 0x12
    1ae2:	87 82       	std	Z+7, r8	; 0x07
    1ae4:	83 7d       	andi	r24, 0xD3	; 211
    1ae6:	85 7c       	andi	r24, 0xC5	; 197
    1ae8:	79 7b       	andi	r23, 0xB9	; 185
    1aea:	79 7a       	andi	r23, 0xA9	; 169
    1aec:	83 88       	ldd	r8, Z+19	; 0x13
    1aee:	83 75       	andi	r24, 0x53	; 83
    1af0:	6e 77       	andi	r22, 0x7E	; 126
    1af2:	71 8e       	std	Z+25, r7	; 0x19
    1af4:	93 87       	std	Z+11, r25	; 0x0b
    1af6:	8a 84       	ldd	r8, Y+10	; 0x0a
    1af8:	86 7f       	andi	r24, 0xF6	; 246
    1afa:	85 84       	ldd	r8, Z+13	; 0x0d
    1afc:	77 7d       	andi	r23, 0xD7	; 215
    1afe:	7b 7c       	andi	r23, 0xCB	; 203
    1b00:	81 7f       	andi	r24, 0xF1	; 241
    1b02:	7b 76       	andi	r23, 0x6B	; 107
    1b04:	71 79       	andi	r23, 0x91	; 145
    1b06:	78 82       	st	Y, r7
    1b08:	95 89       	ldd	r25, Z+21	; 0x15
    1b0a:	8d 89       	ldd	r24, Y+21	; 0x15
    1b0c:	86 82       	std	Z+6, r8	; 0x06
    1b0e:	82 8a       	std	Z+18, r8	; 0x12
    1b10:	7d 7b       	andi	r23, 0xBD	; 189
    1b12:	7c 78       	andi	r23, 0x8C	; 140
    1b14:	80 85       	ldd	r24, Z+8	; 0x08
    1b16:	82 77       	andi	r24, 0x72	; 114
    1b18:	6b 73       	andi	r22, 0x3B	; 59
    1b1a:	73 7b       	andi	r23, 0xB3	; 179
    1b1c:	92 8a       	std	Z+18, r9	; 0x12
    1b1e:	87 84       	ldd	r8, Z+15	; 0x0f
    1b20:	80 7e       	andi	r24, 0xE0	; 224
    1b22:	7b 84       	ldd	r7, Y+11	; 0x0b
    1b24:	7d 77       	andi	r23, 0x7D	; 125
    1b26:	7b 78       	andi	r23, 0x8B	; 139
    1b28:	7b 84       	ldd	r7, Y+11	; 0x0b
    1b2a:	82 7f       	andi	r24, 0xF2	; 242
    1b2c:	71 70       	andi	r23, 0x01	; 1
    1b2e:	74 74       	andi	r23, 0x44	; 68
    1b30:	82 91       	ld	r24, -Z
    1b32:	8b 8b       	std	Y+19, r24	; 0x13
    1b34:	89 84       	ldd	r8, Y+9	; 0x09
    1b36:	80 80       	ld	r8, Z
    1b38:	87 7d       	andi	r24, 0xD7	; 215
    1b3a:	7c 7e       	andi	r23, 0xEC	; 236
    1b3c:	7a 85       	ldd	r23, Y+10	; 0x0a
    1b3e:	87 86       	std	Z+15, r8	; 0x0f
    1b40:	7d 6e       	ori	r23, 0xED	; 237
    1b42:	77 76       	andi	r23, 0x67	; 103
    1b44:	7f 8e       	std	Y+31, r7	; 0x1f
    1b46:	8c 88       	ldd	r8, Y+20	; 0x14
    1b48:	8a 87       	std	Y+10, r24	; 0x0a
    1b4a:	88 80       	ld	r8, Y
    1b4c:	88 7d       	andi	r24, 0xD8	; 216
    1b4e:	77 7d       	andi	r23, 0xD7	; 215
    1b50:	76 7f       	andi	r23, 0xF6	; 246
    1b52:	82 83       	std	Z+2, r24	; 0x02
    1b54:	80 74       	andi	r24, 0x40	; 64
    1b56:	6f 76       	andi	r22, 0x6F	; 111
    1b58:	73 8a       	std	Z+19, r7	; 0x13
    1b5a:	8f 87       	std	Y+15, r24	; 0x0f
    1b5c:	87 7c       	andi	r24, 0xC7	; 199
    1b5e:	7a 83       	std	Y+2, r23	; 0x02
    1b60:	8a 8e       	std	Y+26, r8	; 0x1a
    1b62:	7e 77       	andi	r23, 0x7E	; 126
    1b64:	7c 78       	andi	r23, 0x8C	; 140
    1b66:	84 80       	ldd	r8, Z+4	; 0x04
    1b68:	7e 77       	andi	r23, 0x7E	; 126
    1b6a:	6d 75       	andi	r22, 0x5D	; 93
    1b6c:	74 83       	std	Z+4, r23	; 0x04
    1b6e:	8e 85       	ldd	r24, Y+14	; 0x0e
    1b70:	87 81       	ldd	r24, Z+7	; 0x07
    1b72:	85 76       	andi	r24, 0x65	; 101
    1b74:	7a 7f       	andi	r23, 0xFA	; 250
    1b76:	83 83       	std	Z+3, r24	; 0x03
    1b78:	7d 83       	std	Y+5, r23	; 0x05
    1b7a:	77 83       	std	Z+7, r23	; 0x07
    1b7c:	82 78       	andi	r24, 0x82	; 130
    1b7e:	75 74       	andi	r23, 0x45	; 69
    1b80:	76 78       	andi	r23, 0x86	; 134
    1b82:	8a 8d       	ldd	r24, Y+26	; 0x1a
    1b84:	85 87       	std	Z+13, r24	; 0x0d
    1b86:	80 83       	st	Z, r24
    1b88:	7f 82       	std	Y+7, r7	; 0x07
    1b8a:	7e 79       	andi	r23, 0x9E	; 158
    1b8c:	7c 85       	ldd	r23, Y+12	; 0x0c
    1b8e:	8b 87       	std	Y+11, r24	; 0x0b
    1b90:	87 77       	andi	r24, 0x77	; 119
    1b92:	7b 79       	andi	r23, 0x9B	; 155
    1b94:	78 79       	andi	r23, 0x98	; 152
    1b96:	7c 88       	ldd	r7, Y+20	; 0x14
    1b98:	87 89       	ldd	r24, Z+23	; 0x17
    1b9a:	84 7d       	andi	r24, 0xD4	; 212
    1b9c:	82 81       	ldd	r24, Z+2	; 0x02
    1b9e:	81 85       	ldd	r24, Z+9	; 0x09
    1ba0:	7c 78       	andi	r23, 0x8C	; 140
    1ba2:	75 7b       	andi	r23, 0xB5	; 181
    1ba4:	85 84       	ldd	r8, Z+13	; 0x0d
    1ba6:	8c 83       	std	Y+4, r24	; 0x04
    1ba8:	77 78       	andi	r23, 0x87	; 135
    1baa:	7c 81       	ldd	r23, Y+4	; 0x04
    1bac:	81 82       	std	Z+1, r8	; 0x01
    1bae:	7c 78       	andi	r23, 0x8C	; 140
    1bb0:	7b 81       	ldd	r23, Y+3	; 0x03
    1bb2:	84 7d       	andi	r24, 0xD4	; 212
    1bb4:	7e 83       	std	Y+6, r23	; 0x06
    1bb6:	7d 7a       	andi	r23, 0xAD	; 173
    1bb8:	7e 76       	andi	r23, 0x6E	; 110
    1bba:	7b 82       	std	Y+3, r7	; 0x03
    1bbc:	7f 84       	ldd	r7, Y+15	; 0x0f
    1bbe:	7f 7f       	andi	r23, 0xFF	; 255
    1bc0:	88 81       	ld	r24, Y
    1bc2:	83 83       	std	Z+3, r24	; 0x03
    1bc4:	82 82       	std	Z+2, r8	; 0x02
    1bc6:	80 87       	std	Z+8, r24	; 0x08
    1bc8:	7e 78       	andi	r23, 0x8E	; 142
    1bca:	7c 7e       	andi	r23, 0xEC	; 236
    1bcc:	7f 7d       	andi	r23, 0xDF	; 223
    1bce:	7f 7d       	andi	r23, 0xDF	; 223
    1bd0:	76 7d       	andi	r23, 0xD6	; 214
    1bd2:	83 7f       	andi	r24, 0xF3	; 243
    1bd4:	82 83       	std	Z+2, r24	; 0x02
    1bd6:	85 83       	std	Z+5, r24	; 0x05
    1bd8:	7d 81       	ldd	r23, Y+5	; 0x05
    1bda:	89 8c       	ldd	r8, Y+25	; 0x19
    1bdc:	84 7e       	andi	r24, 0xE4	; 228
    1bde:	7f 78       	andi	r23, 0x8F	; 143
    1be0:	7c 7d       	andi	r23, 0xDC	; 220
    1be2:	7e 80       	ldd	r7, Y+6	; 0x06
    1be4:	7c 81       	ldd	r23, Y+4	; 0x04
    1be6:	7d 7c       	andi	r23, 0xCD	; 205
    1be8:	84 86       	std	Z+12, r8	; 0x0c
    1bea:	84 7b       	andi	r24, 0xB4	; 180
    1bec:	7f 7e       	andi	r23, 0xEF	; 239
    1bee:	7c 87       	std	Y+12, r23	; 0x0c
    1bf0:	89 80       	ldd	r8, Y+1	; 0x01
    1bf2:	7a 7e       	andi	r23, 0xEA	; 234
    1bf4:	7f 77       	andi	r23, 0x7F	; 127
    1bf6:	7c 7c       	andi	r23, 0xCC	; 204
    1bf8:	76 78       	andi	r23, 0x86	; 134
    1bfa:	7c 7d       	andi	r23, 0xDC	; 220
    1bfc:	84 86       	std	Z+12, r8	; 0x0c
    1bfe:	80 83       	st	Z, r24
    1c00:	80 7c       	andi	r24, 0xC0	; 192
    1c02:	85 88       	ldd	r8, Z+21	; 0x15
    1c04:	81 80       	ldd	r8, Z+1	; 0x01
    1c06:	7a 7a       	andi	r23, 0xAA	; 170
    1c08:	7c 7d       	andi	r23, 0xDC	; 220
    1c0a:	81 83       	std	Z+1, r24	; 0x01
    1c0c:	7e 7b       	andi	r23, 0xBE	; 190
    1c0e:	81 7e       	andi	r24, 0xE1	; 225
    1c10:	80 7f       	andi	r24, 0xF0	; 240
    1c12:	7e 87       	std	Y+14, r23	; 0x0e
    1c14:	84 7d       	andi	r24, 0xD4	; 212
    1c16:	85 86       	std	Z+13, r8	; 0x0d
    1c18:	82 85       	ldd	r24, Z+10	; 0x0a
    1c1a:	84 87       	std	Z+12, r24	; 0x0c
    1c1c:	7b 78       	andi	r23, 0x8B	; 139
    1c1e:	7f 7e       	andi	r23, 0xEF	; 239
    1c20:	7c 7d       	andi	r23, 0xDC	; 220
    1c22:	83 79       	andi	r24, 0x93	; 147
    1c24:	74 7f       	andi	r23, 0xF4	; 244
    1c26:	81 7e       	andi	r24, 0xE1	; 225
    1c28:	7e 77       	andi	r23, 0x7E	; 126
    1c2a:	93 91       	.word	0x9193	; ????
    1c2c:	82 92       	st	-Z, r8
    1c2e:	7a 75       	andi	r23, 0x5A	; 90
    1c30:	78 7c       	andi	r23, 0xC8	; 200
    1c32:	7b 79       	andi	r23, 0x9B	; 155
    1c34:	82 7c       	andi	r24, 0xC2	; 194
    1c36:	81 7e       	andi	r24, 0xE1	; 225
    1c38:	79 7f       	andi	r23, 0xF9	; 249
    1c3a:	7d 7b       	andi	r23, 0xBD	; 189
    1c3c:	7e 82       	std	Y+6, r7	; 0x06
    1c3e:	92 94       	swap	r9
    1c40:	89 8f       	std	Y+25, r24	; 0x19
    1c42:	83 79       	andi	r24, 0x93	; 147
    1c44:	79 7b       	andi	r23, 0xB9	; 185
    1c46:	75 71       	andi	r23, 0x15	; 21
    1c48:	7e 7c       	andi	r23, 0xCE	; 206
    1c4a:	80 84       	ldd	r8, Z+8	; 0x08
    1c4c:	78 75       	andi	r23, 0x58	; 88
    1c4e:	6e 74       	andi	r22, 0x4E	; 78
    1c50:	83 7c       	andi	r24, 0xC3	; 195
    1c52:	8a 92       	st	-Y, r8
    1c54:	85 8b       	std	Z+21, r24	; 0x15
    1c56:	80 72       	andi	r24, 0x20	; 32
    1c58:	76 75       	andi	r23, 0x56	; 86
    1c5a:	76 75       	andi	r23, 0x56	; 86
    1c5c:	7e 7d       	andi	r23, 0xDE	; 222
    1c5e:	7b 89       	ldd	r23, Y+19	; 0x13
    1c60:	7f 81       	ldd	r23, Y+7	; 0x07
    1c62:	7d 72       	andi	r23, 0x2D	; 45
    1c64:	81 75       	andi	r24, 0x51	; 81
    1c66:	85 97       	sbiw	r24, 0x25	; 37
    1c68:	8a 92       	st	-Y, r8
    1c6a:	84 7d       	andi	r24, 0xD4	; 212
    1c6c:	7d 7c       	andi	r23, 0xCD	; 205
    1c6e:	85 79       	andi	r24, 0x95	; 149
    1c70:	82 87       	std	Z+10, r24	; 0x0a
    1c72:	7d 81       	ldd	r23, Y+5	; 0x05
    1c74:	7f 84       	ldd	r7, Y+15	; 0x0f
    1c76:	79 76       	andi	r23, 0x69	; 105
    1c78:	83 7a       	andi	r24, 0xA3	; 163
    1c7a:	83 9e       	mul	r8, r19
    1c7c:	91 8e       	std	Z+25, r9	; 0x19
    1c7e:	84 7b       	andi	r24, 0xB4	; 180
    1c80:	79 7c       	andi	r23, 0xC9	; 201
    1c82:	8a 75       	andi	r24, 0x5A	; 90
    1c84:	78 7c       	andi	r23, 0xC8	; 200
    1c86:	7a 85       	ldd	r23, Y+10	; 0x0a
    1c88:	83 84       	ldd	r8, Z+11	; 0x0b
    1c8a:	7a 6b       	ori	r23, 0xBA	; 186
    1c8c:	7a 7d       	andi	r23, 0xDA	; 218
    1c8e:	74 90       	lpm	r7, Z
    1c90:	8c 87       	std	Y+12, r24	; 0x0c
    1c92:	8a 80       	ldd	r8, Y+2	; 0x02
    1c94:	7c 74       	andi	r23, 0x4C	; 76
    1c96:	78 7c       	andi	r23, 0xC8	; 200
    1c98:	77 79       	andi	r23, 0x97	; 151
    1c9a:	74 77       	andi	r23, 0x74	; 116
    1c9c:	7a 7b       	andi	r23, 0xBA	; 186
    1c9e:	86 73       	andi	r24, 0x36	; 54
    1ca0:	73 79       	andi	r23, 0x93	; 147
    1ca2:	76 8c       	ldd	r7, Z+30	; 0x1e
    1ca4:	94 8b       	std	Z+20, r25	; 0x14
    1ca6:	83 7d       	andi	r24, 0xD3	; 211
    1ca8:	80 81       	ld	r24, Z
    1caa:	85 89       	ldd	r24, Z+21	; 0x15
    1cac:	73 7a       	andi	r23, 0xA3	; 163
    1cae:	7a 7c       	andi	r23, 0xCA	; 202
    1cb0:	8a 7c       	andi	r24, 0xCA	; 202
    1cb2:	8c 73       	andi	r24, 0x3C	; 60
    1cb4:	70 88       	ldd	r7, Z+16	; 0x10
    1cb6:	75 81       	ldd	r23, Z+5	; 0x05
    1cb8:	89 8f       	std	Y+25, r24	; 0x19
    1cba:	88 88       	ldd	r8, Y+16	; 0x10
    1cbc:	7f 78       	andi	r23, 0x8F	; 143
    1cbe:	79 86       	std	Y+9, r7	; 0x09
    1cc0:	85 7a       	andi	r24, 0xA5	; 165
    1cc2:	86 78       	andi	r24, 0x86	; 134
    1cc4:	7e 82       	std	Y+6, r7	; 0x06
    1cc6:	86 84       	ldd	r8, Z+14	; 0x0e
    1cc8:	6d 7a       	andi	r22, 0xAD	; 173
    1cca:	78 81       	ld	r23, Y
    1ccc:	97 97       	sbiw	r26, 0x27	; 39
    1cce:	8c 81       	ldd	r24, Y+4	; 0x04
    1cd0:	87 7b       	andi	r24, 0xB7	; 183
    1cd2:	7f 71       	andi	r23, 0x1F	; 31
    1cd4:	73 78       	andi	r23, 0x83	; 131
    1cd6:	78 87       	std	Y+8, r23	; 0x08
    1cd8:	80 87       	std	Z+8, r24	; 0x08
    1cda:	79 82       	std	Y+1, r7	; 0x01
    1cdc:	75 75       	andi	r23, 0x55	; 85
    1cde:	7f 75       	andi	r23, 0x5F	; 95
    1ce0:	86 8d       	ldd	r24, Z+30	; 0x1e
    1ce2:	93 86       	std	Z+11, r9	; 0x0b
    1ce4:	79 73       	andi	r23, 0x39	; 57
    1ce6:	80 82       	st	Z, r8
    1ce8:	8a 7f       	andi	r24, 0xFA	; 250
    1cea:	66 71       	andi	r22, 0x16	; 22
    1cec:	6c 80       	ldd	r6, Y+4	; 0x04
    1cee:	80 84       	ldd	r8, Z+8	; 0x08
    1cf0:	83 68       	ori	r24, 0x83	; 131
    1cf2:	7b 76       	andi	r23, 0x6B	; 107
    1cf4:	84 91       	lpm	r24, Z
    1cf6:	8c 86       	std	Y+12, r8	; 0x0c
    1cf8:	83 86       	std	Z+11, r8	; 0x0b
    1cfa:	7c 82       	std	Y+4, r7	; 0x04
    1cfc:	89 91       	ld	r24, Y+
    1cfe:	81 82       	std	Z+1, r8	; 0x01
    1d00:	79 6f       	ori	r23, 0xF9	; 249
    1d02:	74 80       	ldd	r7, Z+4	; 0x04
    1d04:	8d 7c       	andi	r24, 0xCD	; 205
    1d06:	81 7e       	andi	r24, 0xE1	; 225
    1d08:	7a 8c       	ldd	r7, Y+26	; 0x1a
    1d0a:	96 8e       	std	Z+30, r9	; 0x1e
    1d0c:	8a 84       	ldd	r8, Y+10	; 0x0a
    1d0e:	80 7a       	andi	r24, 0xA0	; 160
    1d10:	7d 7e       	andi	r23, 0xED	; 237
    1d12:	76 71       	andi	r23, 0x16	; 22
    1d14:	84 84       	ldd	r8, Z+12	; 0x0c
    1d16:	84 84       	ldd	r8, Z+12	; 0x0c
    1d18:	79 6e       	ori	r23, 0xE9	; 233
    1d1a:	64 7b       	andi	r22, 0xB4	; 180
    1d1c:	7d 82       	std	Y+5, r7	; 0x05
    1d1e:	99 88       	ldd	r9, Y+17	; 0x11
    1d20:	84 88       	ldd	r8, Z+20	; 0x14
    1d22:	7d 7d       	andi	r23, 0xDD	; 221
    1d24:	74 82       	std	Z+4, r7	; 0x04
    1d26:	7a 79       	andi	r23, 0x9A	; 154
    1d28:	7a 75       	andi	r23, 0x5A	; 90
    1d2a:	80 88       	ldd	r8, Z+16	; 0x10
    1d2c:	88 7f       	andi	r24, 0xF8	; 248
    1d2e:	68 6b       	ori	r22, 0xB8	; 184
    1d30:	73 78       	andi	r23, 0x83	; 131
    1d32:	99 9e       	mul	r9, r25
    1d34:	92 8c       	ldd	r9, Z+26	; 0x1a
    1d36:	7e 79       	andi	r23, 0x9E	; 158
    1d38:	7b 7e       	andi	r23, 0xEB	; 235
    1d3a:	80 78       	andi	r24, 0x80	; 128
    1d3c:	7a 7b       	andi	r23, 0xBA	; 186
    1d3e:	79 74       	andi	r23, 0x49	; 73
    1d40:	7e 7e       	andi	r23, 0xEE	; 238
    1d42:	7f 71       	andi	r23, 0x1F	; 31
    1d44:	78 7f       	andi	r23, 0xF8	; 248
    1d46:	7c 98       	cbi	0x0f, 4	; 15
    1d48:	87 8e       	std	Z+31, r8	; 0x1f
    1d4a:	8c 7f       	andi	r24, 0xFC	; 252
    1d4c:	85 74       	andi	r24, 0x45	; 69
    1d4e:	82 7c       	andi	r24, 0xC2	; 194
    1d50:	7a 77       	andi	r23, 0x7A	; 122
    1d52:	7f 84       	ldd	r7, Y+15	; 0x0f
    1d54:	7f 8e       	std	Y+31, r7	; 0x1f
    1d56:	76 7d       	andi	r23, 0xD6	; 214
    1d58:	75 80       	ldd	r7, Z+5	; 0x05
    1d5a:	86 85       	ldd	r24, Z+14	; 0x0e
    1d5c:	8c 78       	andi	r24, 0x8C	; 140
    1d5e:	8c 83       	std	Y+4, r24	; 0x04
    1d60:	8c 8b       	std	Y+20, r24	; 0x14
    1d62:	83 89       	ldd	r24, Z+19	; 0x13
    1d64:	71 79       	andi	r23, 0x91	; 145
    1d66:	7c 7f       	andi	r23, 0xFC	; 252
    1d68:	7c 84       	ldd	r7, Y+12	; 0x0c
    1d6a:	85 6b       	ori	r24, 0xB5	; 181
    1d6c:	77 76       	andi	r23, 0x67	; 103
    1d6e:	76 83       	std	Z+6, r23	; 0x06
    1d70:	89 86       	std	Y+9, r8	; 0x09
    1d72:	83 7e       	andi	r24, 0xE3	; 227
    1d74:	78 73       	andi	r23, 0x38	; 56
    1d76:	7a 86       	std	Y+10, r7	; 0x0a
    1d78:	7b 7e       	andi	r23, 0xEB	; 235
    1d7a:	7a 77       	andi	r23, 0x7A	; 122
    1d7c:	7c 85       	ldd	r23, Y+12	; 0x0c
    1d7e:	8f 70       	andi	r24, 0x0F	; 15
    1d80:	7c 79       	andi	r23, 0x9C	; 156
    1d82:	78 92       	.word	0x9278	; ????
    1d84:	8c 9f       	mul	r24, r28
    1d86:	83 87       	std	Z+11, r24	; 0x0b
    1d88:	7f 7b       	andi	r23, 0xBF	; 191
    1d8a:	81 70       	andi	r24, 0x01	; 1
    1d8c:	84 7b       	andi	r24, 0xB4	; 180
    1d8e:	83 87       	std	Z+11, r24	; 0x0b
    1d90:	83 83       	std	Z+3, r24	; 0x03
    1d92:	87 7a       	andi	r24, 0xA7	; 167
    1d94:	75 7c       	andi	r23, 0xC5	; 197
    1d96:	7a 85       	ldd	r23, Y+10	; 0x0a
    1d98:	8a 94       	dec	r8
    1d9a:	8b 83       	std	Y+3, r24	; 0x03
    1d9c:	7f 7d       	andi	r23, 0xDF	; 223
    1d9e:	80 88       	ldd	r8, Z+16	; 0x10
    1da0:	83 6e       	ori	r24, 0xE3	; 227
    1da2:	70 73       	andi	r23, 0x30	; 48
    1da4:	79 7d       	andi	r23, 0xD9	; 217
    1da6:	85 7e       	andi	r24, 0xE5	; 229
    1da8:	69 6e       	ori	r22, 0xE9	; 233
    1daa:	70 7c       	andi	r23, 0xC0	; 192
    1dac:	85 8e       	std	Z+29, r8	; 0x1d
    1dae:	8b 7e       	andi	r24, 0xEB	; 235
    1db0:	84 7f       	andi	r24, 0xF4	; 244
    1db2:	7d 87       	std	Y+13, r23	; 0x0d
    1db4:	8d 7d       	andi	r24, 0xDD	; 221
    1db6:	7e 76       	andi	r23, 0x6E	; 110
    1db8:	73 73       	andi	r23, 0x33	; 51
    1dba:	80 91 7c 82 	lds	r24, 0x827C	; 0x80827c <__bss_end+0x8178>
    1dbe:	7b 7e       	andi	r23, 0xEB	; 235
    1dc0:	81 8d       	ldd	r24, Z+25	; 0x19
    1dc2:	9b 89       	ldd	r25, Y+19	; 0x13
    1dc4:	89 82       	std	Y+1, r8	; 0x01
    1dc6:	7a 76       	andi	r23, 0x6A	; 106
    1dc8:	7b 7f       	andi	r23, 0xFB	; 251
    1dca:	73 84       	ldd	r7, Z+11	; 0x0b
    1dcc:	80 81       	ld	r24, Z
    1dce:	7f 81       	ldd	r23, Y+7	; 0x07
    1dd0:	74 6b       	ori	r23, 0xB4	; 180
    1dd2:	74 79       	andi	r23, 0x94	; 148
    1dd4:	86 85       	ldd	r24, Z+14	; 0x0e
    1dd6:	96 86       	std	Z+14, r9	; 0x0e
    1dd8:	84 85       	ldd	r24, Z+12	; 0x0c
    1dda:	81 79       	andi	r24, 0x91	; 145
    1ddc:	7f 7b       	andi	r23, 0xBF	; 191
    1dde:	7a 81       	ldd	r23, Y+2	; 0x02
    1de0:	75 8c       	ldd	r7, Z+29	; 0x1d
    1de2:	86 86       	std	Z+14, r8	; 0x0e
    1de4:	83 6c       	ori	r24, 0xC3	; 195
    1de6:	6a 6c       	ori	r22, 0xCA	; 202
    1de8:	7b 85       	ldd	r23, Y+11	; 0x0b
    1dea:	99 9c       	mul	r9, r9
    1dec:	8a 89       	ldd	r24, Y+18	; 0x12
    1dee:	78 7d       	andi	r23, 0xD8	; 216
    1df0:	7a 7f       	andi	r23, 0xFA	; 250
    1df2:	81 79       	andi	r24, 0x91	; 145
    1df4:	77 77       	andi	r23, 0x77	; 119
    1df6:	78 79       	andi	r23, 0x98	; 152
    1df8:	8a 82       	std	Y+2, r8	; 0x02
    1dfa:	72 70       	andi	r23, 0x02	; 2
    1dfc:	7d 79       	andi	r23, 0x9D	; 157
    1dfe:	7f 99       	sbic	0x0f, 7	; 15
    1e00:	86 95       	lsr	r24
    1e02:	86 7f       	andi	r24, 0xF6	; 246
    1e04:	7b 73       	andi	r23, 0x3B	; 59
    1e06:	7e 7c       	andi	r23, 0xCE	; 206
    1e08:	7b 7c       	andi	r23, 0xCB	; 203
    1e0a:	83 74       	andi	r24, 0x43	; 67
    1e0c:	8d 78       	andi	r24, 0x8D	; 141
    1e0e:	84 79       	andi	r24, 0x94	; 148
    1e10:	7c 8b       	std	Y+20, r23	; 0x14
    1e12:	76 91       	elpm	r23, Z
    1e14:	82 86       	std	Z+10, r8	; 0x0a
    1e16:	89 84       	ldd	r8, Y+9	; 0x09
    1e18:	8e 83       	std	Y+6, r24	; 0x06
    1e1a:	87 7d       	andi	r24, 0xD7	; 215
    1e1c:	74 77       	andi	r23, 0x74	; 116
    1e1e:	7c 80       	ldd	r7, Y+4	; 0x04
    1e20:	83 8c       	ldd	r8, Z+27	; 0x1b
    1e22:	6c 6f       	ori	r22, 0xFC	; 252
    1e24:	79 75       	andi	r23, 0x59	; 89
    1e26:	83 8a       	std	Z+19, r8	; 0x13
    1e28:	8a 80       	ldd	r8, Y+2	; 0x02
    1e2a:	84 7b       	andi	r24, 0xB4	; 180
    1e2c:	74 7a       	andi	r23, 0xA4	; 164
    1e2e:	7f 82       	std	Y+7, r7	; 0x07
    1e30:	81 7e       	andi	r24, 0xE1	; 225
    1e32:	79 76       	andi	r23, 0x69	; 105
    1e34:	7a 8e       	std	Y+26, r7	; 0x1a
    1e36:	80 73       	andi	r24, 0x30	; 48
    1e38:	7b 71       	andi	r23, 0x1B	; 27
    1e3a:	8b 84       	ldd	r8, Y+11	; 0x0b
    1e3c:	98 95       	break
    1e3e:	80 8b       	std	Z+16, r24	; 0x10
    1e40:	72 85       	ldd	r23, Z+10	; 0x0a
    1e42:	71 7a       	andi	r23, 0xA1	; 161
    1e44:	83 7c       	andi	r24, 0xC3	; 195
    1e46:	89 83       	std	Y+1, r24	; 0x01
    1e48:	82 85       	ldd	r24, Z+10	; 0x0a
    1e4a:	80 71       	andi	r24, 0x10	; 16
    1e4c:	7c 78       	andi	r23, 0x8C	; 140
    1e4e:	87 7f       	andi	r24, 0xF7	; 247
    1e50:	8a 8e       	std	Y+26, r8	; 0x1a
    1e52:	84 87       	std	Z+12, r24	; 0x0c
    1e54:	7f 83       	std	Y+7, r23	; 0x07
    1e56:	7f 85       	ldd	r23, Y+15	; 0x0f
    1e58:	74 74       	andi	r23, 0x44	; 68
    1e5a:	71 76       	andi	r23, 0x61	; 97
    1e5c:	76 80       	ldd	r7, Z+6	; 0x06
    1e5e:	8e 6d       	ori	r24, 0xDE	; 222
    1e60:	70 6c       	ori	r23, 0xC0	; 192
    1e62:	75 83       	std	Z+5, r23	; 0x05
    1e64:	84 92       	xch	Z, r8
    1e66:	7e 88       	ldd	r7, Y+22	; 0x16
    1e68:	81 7d       	andi	r24, 0xD1	; 209
    1e6a:	8a 92       	st	-Y, r8
    1e6c:	86 7b       	andi	r24, 0xB6	; 182
    1e6e:	7c 74       	andi	r23, 0x4C	; 76
    1e70:	76 77       	andi	r23, 0x76	; 118
    1e72:	94 80       	ldd	r9, Z+4	; 0x04
    1e74:	83 87       	std	Z+11, r24	; 0x0b
    1e76:	7a 8b       	std	Y+18, r23	; 0x12
    1e78:	7a 97       	sbiw	r30, 0x1a	; 26
    1e7a:	90 8b       	std	Z+16, r25	; 0x10
    1e7c:	8f 74       	andi	r24, 0x4F	; 79
    1e7e:	7b 6f       	ori	r23, 0xFB	; 251
    1e80:	85 7a       	andi	r24, 0xA5	; 165
    1e82:	86 83       	std	Z+6, r24	; 0x06
    1e84:	7d 7d       	andi	r23, 0xDD	; 221
    1e86:	7a 81       	ldd	r23, Y+2	; 0x02
    1e88:	62 7a       	andi	r22, 0xA2	; 162
    1e8a:	6e 83       	std	Y+6, r22	; 0x06
    1e8c:	7f 89       	ldd	r23, Y+23	; 0x17
    1e8e:	93 7b       	andi	r25, 0xB3	; 179
    1e90:	8b 7e       	andi	r24, 0xEB	; 235
    1e92:	7c 78       	andi	r23, 0x8C	; 140
    1e94:	7a 79       	andi	r23, 0x9A	; 154
    1e96:	7d 80       	ldd	r7, Y+5	; 0x05
    1e98:	7e 8f       	std	Y+30, r23	; 0x1e
    1e9a:	81 83       	std	Z+1, r24	; 0x01
    1e9c:	75 6b       	ori	r23, 0xB5	; 181
    1e9e:	6e 71       	andi	r22, 0x1E	; 30
    1ea0:	84 81       	ldd	r24, Z+4	; 0x04
    1ea2:	a1 8f       	std	Z+25, r26	; 0x19
    1ea4:	90 82       	st	Z, r9
    1ea6:	74 81       	ldd	r23, Z+4	; 0x04
    1ea8:	7c 87       	std	Y+12, r23	; 0x0c
    1eaa:	7c 7b       	andi	r23, 0xBC	; 188
    1eac:	72 7b       	andi	r23, 0xB2	; 178
    1eae:	78 88       	ldd	r7, Y+16	; 0x10
    1eb0:	8d 76       	andi	r24, 0x6D	; 109
    1eb2:	70 78       	andi	r23, 0x80	; 128
    1eb4:	80 72       	andi	r24, 0x20	; 32
    1eb6:	93 8e       	std	Z+27, r9	; 0x1b
    1eb8:	89 96       	adiw	r24, 0x29	; 41
    1eba:	7e 82       	std	Y+6, r7	; 0x06
    1ebc:	73 7a       	andi	r23, 0xA3	; 163
    1ebe:	7c 7e       	andi	r23, 0xEC	; 236
    1ec0:	80 7b       	andi	r24, 0xB0	; 176
    1ec2:	79 7c       	andi	r23, 0xC9	; 201
    1ec4:	83 7f       	andi	r24, 0xF3	; 243
    1ec6:	82 7c       	andi	r24, 0xC2	; 194
    1ec8:	88 72       	andi	r24, 0x28	; 40
    1eca:	83 94       	inc	r8
    1ecc:	7e 92       	st	-X, r7
    1ece:	84 8a       	std	Z+20, r8	; 0x14
    1ed0:	88 83       	st	Y, r24
    1ed2:	8b 72       	andi	r24, 0x2B	; 43
    1ed4:	7a 7b       	andi	r23, 0xBA	; 186
    1ed6:	7e 86       	std	Y+14, r7	; 0x0e
    1ed8:	88 79       	andi	r24, 0x98	; 152
    1eda:	6a 77       	andi	r22, 0x7A	; 122
    1edc:	75 7c       	andi	r23, 0xC5	; 197
    1ede:	87 8b       	std	Z+23, r24	; 0x17
    1ee0:	7f 81       	ldd	r23, Y+7	; 0x07
    1ee2:	81 75       	andi	r24, 0x51	; 81
    1ee4:	75 78       	andi	r23, 0x85	; 133
    1ee6:	7e 7f       	andi	r23, 0xFE	; 254
    1ee8:	7f 7c       	andi	r23, 0xCF	; 207
    1eea:	74 76       	andi	r23, 0x64	; 100
    1eec:	85 88       	ldd	r8, Z+21	; 0x15
    1eee:	73 78       	andi	r23, 0x83	; 131
    1ef0:	77 78       	andi	r23, 0x87	; 135
    1ef2:	8a 8e       	std	Y+26, r8	; 0x1a
    1ef4:	9e 88       	ldd	r9, Y+22	; 0x16
    1ef6:	88 7c       	andi	r24, 0xC8	; 200
    1ef8:	7e 7c       	andi	r23, 0xCE	; 206
    1efa:	73 85       	ldd	r23, Z+11	; 0x0b
    1efc:	7e 89       	ldd	r23, Y+22	; 0x16
    1efe:	87 83       	std	Z+7, r24	; 0x07
    1f00:	88 84       	ldd	r8, Y+8	; 0x08
    1f02:	74 7b       	andi	r23, 0xB4	; 180
    1f04:	81 83       	std	Z+1, r24	; 0x01
    1f06:	83 7f       	andi	r24, 0xF3	; 243
    1f08:	91 86       	std	Z+9, r9	; 0x09
    1f0a:	8d 8c       	ldd	r8, Y+29	; 0x1d
    1f0c:	83 80       	ldd	r8, Z+3	; 0x03
    1f0e:	7c 7c       	andi	r23, 0xCC	; 204
    1f10:	75 75       	andi	r23, 0x55	; 85
    1f12:	74 76       	andi	r23, 0x64	; 100
    1f14:	78 8c       	ldd	r7, Y+24	; 0x18
    1f16:	75 6e       	ori	r23, 0xE5	; 229
    1f18:	71 6b       	ori	r23, 0xB1	; 177
    1f1a:	80 7a       	andi	r24, 0xA0	; 160
    1f1c:	8f 85       	ldd	r24, Y+15	; 0x0f
    1f1e:	82 86       	std	Z+10, r8	; 0x0a
    1f20:	79 84       	ldd	r7, Y+9	; 0x09
    1f22:	8e 8a       	std	Y+22, r8	; 0x16
    1f24:	7e 7a       	andi	r23, 0xAE	; 174
    1f26:	78 77       	andi	r23, 0x78	; 120
    1f28:	73 8a       	std	Z+19, r7	; 0x13
    1f2a:	86 7a       	andi	r24, 0xA6	; 166
    1f2c:	89 7c       	andi	r24, 0xC9	; 201
    1f2e:	87 7b       	andi	r24, 0xB7	; 183
    1f30:	83 9c       	mul	r8, r3
    1f32:	88 93       	.word	0x9388	; ????
    1f34:	7d 79       	andi	r23, 0x9D	; 157
    1f36:	6f 7a       	andi	r22, 0xAF	; 175
    1f38:	87 83       	std	Z+7, r24	; 0x07
    1f3a:	8e 7c       	andi	r24, 0xCE	; 206
    1f3c:	77 78       	andi	r23, 0x87	; 135
    1f3e:	85 68       	ori	r24, 0x85	; 133
    1f40:	75 73       	andi	r23, 0x35	; 53
    1f42:	77 86       	std	Z+15, r7	; 0x0f
    1f44:	7a 9b       	sbis	0x0f, 2	; 15
    1f46:	80 85       	ldd	r24, Z+8	; 0x08
    1f48:	88 7a       	andi	r24, 0xA8	; 168
    1f4a:	7e 74       	andi	r23, 0x4E	; 78
    1f4c:	7b 7a       	andi	r23, 0xAB	; 171
    1f4e:	84 80       	ldd	r8, Z+4	; 0x04
    1f50:	8e 88       	ldd	r8, Y+22	; 0x16
    1f52:	7f 7a       	andi	r23, 0xAF	; 175
    1f54:	67 72       	andi	r22, 0x27	; 39
    1f56:	6e 81       	ldd	r22, Y+6	; 0x06
    1f58:	7b 90       	.word	0x907b	; ????
    1f5a:	9b 86       	std	Y+11, r9	; 0x0b
    1f5c:	8f 76       	andi	r24, 0x6F	; 111
    1f5e:	7b 7f       	andi	r23, 0xFB	; 251
    1f60:	82 83       	std	Z+2, r24	; 0x02
    1f62:	7b 7a       	andi	r23, 0xAB	; 171
    1f64:	76 79       	andi	r23, 0x96	; 150
    1f66:	86 90       	elpm	r8, Z
    1f68:	7b 70       	andi	r23, 0x0B	; 11
    1f6a:	74 81       	ldd	r23, Z+4	; 0x04
    1f6c:	74 7f       	andi	r23, 0xF4	; 244
    1f6e:	99 84       	ldd	r9, Y+9	; 0x09
    1f70:	93 8a       	std	Z+19, r9	; 0x13
    1f72:	80 7e       	andi	r24, 0xE0	; 224
    1f74:	71 7e       	andi	r23, 0xE1	; 225
    1f76:	7b 82       	std	Y+3, r7	; 0x03
    1f78:	80 75       	andi	r24, 0x50	; 80
    1f7a:	7b 7f       	andi	r23, 0xFB	; 251
    1f7c:	81 80       	ldd	r8, Z+1	; 0x01
    1f7e:	80 8a       	std	Z+16, r8	; 0x10
    1f80:	76 72       	andi	r23, 0x26	; 38
    1f82:	94 86       	std	Z+12, r9	; 0x0c
    1f84:	87 90       	elpm	r8, Z+
    1f86:	82 8a       	std	Z+18, r8	; 0x12
    1f88:	83 84       	ldd	r8, Z+11	; 0x0b
    1f8a:	80 75       	andi	r24, 0x50	; 80
    1f8c:	7b 80       	ldd	r7, Y+3	; 0x03
    1f8e:	80 8b       	std	Z+16, r24	; 0x10
    1f90:	80 69       	ori	r24, 0x90	; 144
    1f92:	6f 76       	andi	r22, 0x6F	; 111
    1f94:	7c 7f       	andi	r23, 0xFC	; 252
    1f96:	8c 84       	ldd	r8, Y+12	; 0x0c
    1f98:	79 85       	ldd	r23, Y+9	; 0x09
    1f9a:	79 76       	andi	r23, 0x69	; 105
    1f9c:	79 73       	andi	r23, 0x39	; 57
    1f9e:	7c 80       	ldd	r7, Y+4	; 0x04
    1fa0:	7d 7c       	andi	r23, 0xCD	; 205
    1fa2:	72 7f       	andi	r23, 0xF2	; 242
    1fa4:	89 79       	andi	r24, 0x99	; 153
    1fa6:	74 76       	andi	r23, 0x64	; 100
    1fa8:	79 81       	ldd	r23, Y+1	; 0x01
    1faa:	86 9c       	mul	r8, r6
    1fac:	95 86       	std	Z+13, r9	; 0x0d
    1fae:	86 79       	andi	r24, 0x96	; 150
    1fb0:	83 75       	andi	r24, 0x53	; 83
    1fb2:	78 86       	std	Y+8, r7	; 0x08
    1fb4:	81 8c       	ldd	r8, Z+25	; 0x19
    1fb6:	89 82       	std	Y+1, r8	; 0x01
    1fb8:	8e 78       	andi	r24, 0x8E	; 142
    1fba:	73 81       	ldd	r23, Z+3	; 0x03
    1fbc:	85 84       	ldd	r8, Z+13	; 0x0d
    1fbe:	79 88       	ldd	r7, Y+17	; 0x11
    1fc0:	8b 8c       	ldd	r8, Y+27	; 0x1b
    1fc2:	90 88       	ldd	r9, Z+16	; 0x10
    1fc4:	83 78       	andi	r24, 0x83	; 131
    1fc6:	76 7a       	andi	r23, 0xA6	; 166
    1fc8:	76 77       	andi	r23, 0x76	; 118
    1fca:	7d 72       	andi	r23, 0x2D	; 45
    1fcc:	84 85       	ldd	r24, Z+12	; 0x0c
    1fce:	68 74       	andi	r22, 0x48	; 72
    1fd0:	68 7b       	andi	r22, 0xB8	; 184
    1fd2:	79 80       	ldd	r7, Y+1	; 0x01
    1fd4:	8f 7d       	andi	r24, 0xDF	; 223
    1fd6:	89 79       	andi	r24, 0x99	; 153
    1fd8:	7f 91       	pop	r23
    1fda:	88 82       	st	Y, r8
    1fdc:	79 75       	andi	r23, 0x59	; 89
    1fde:	7b 77       	andi	r23, 0x7B	; 123
    1fe0:	7d 8f       	std	Y+29, r23	; 0x1d
    1fe2:	79 7d       	andi	r23, 0xD9	; 217
    1fe4:	80 7f       	andi	r24, 0xF0	; 240
    1fe6:	84 77       	andi	r24, 0x74	; 116
    1fe8:	97 90       	elpm	r9, Z+
    1fea:	90 8b       	std	Z+16, r25	; 0x10
    1fec:	74 77       	andi	r23, 0x74	; 116
    1fee:	74 83       	std	Z+4, r23	; 0x04
    1ff0:	8b 8d       	ldd	r24, Y+27	; 0x1b
    1ff2:	87 79       	andi	r24, 0x97	; 151
    1ff4:	71 87       	std	Z+9, r23	; 0x09
    1ff6:	79 68       	ori	r23, 0x89	; 137
    1ff8:	79 6e       	ori	r23, 0xE9	; 233
    1ffa:	84 7e       	andi	r24, 0xE4	; 228
    1ffc:	8c 97       	sbiw	r24, 0x2c	; 44
    1ffe:	7a 8d       	ldd	r23, Y+26	; 0x1a
    2000:	7e 80       	ldd	r7, Y+6	; 0x06
    2002:	7c 73       	andi	r23, 0x3C	; 60
    2004:	7a 7d       	andi	r23, 0xDA	; 218
    2006:	85 8c       	ldd	r8, Z+29	; 0x1d
    2008:	91 80       	ldd	r9, Z+1	; 0x01
    200a:	7e 68       	ori	r23, 0x8E	; 142
    200c:	69 70       	andi	r22, 0x09	; 9
    200e:	73 81       	ldd	r23, Z+3	; 0x03
    2010:	7c 9a       	sbi	0x0f, 4	; 15
    2012:	8d 87       	std	Y+13, r24	; 0x0d
    2014:	85 76       	andi	r24, 0x65	; 101
    2016:	81 7d       	andi	r24, 0xD1	; 209
    2018:	81 7d       	andi	r24, 0xD1	; 209
    201a:	78 7c       	andi	r23, 0xC8	; 200
    201c:	7a 83       	std	Y+2, r23	; 0x02
    201e:	8f 86       	std	Y+15, r8	; 0x0f
    2020:	71 6e       	ori	r23, 0xE1	; 225
    2022:	7b 79       	andi	r23, 0x9B	; 155
    2024:	78 90       	.word	0x9078	; ????
    2026:	94 86       	std	Z+12, r9	; 0x0c
    2028:	90 83       	st	Z, r25
    202a:	83 7b       	andi	r24, 0xB3	; 179
    202c:	72 80       	ldd	r7, Z+2	; 0x02
    202e:	7d 83       	std	Y+5, r23	; 0x05
    2030:	7c 78       	andi	r23, 0x8C	; 140
    2032:	7f 7e       	andi	r23, 0xEF	; 239
    2034:	7f 7d       	andi	r23, 0xDF	; 223
    2036:	88 7f       	andi	r24, 0xF8	; 248
    2038:	6d 84       	ldd	r6, Y+13	; 0x0d
    203a:	92 84       	ldd	r9, Z+10	; 0x0a
    203c:	8b 8b       	std	Y+19, r24	; 0x13
    203e:	84 8a       	std	Z+20, r8	; 0x14
    2040:	80 80       	ld	r8, Z
    2042:	7b 77       	andi	r23, 0x7B	; 123
    2044:	80 84       	ldd	r8, Z+8	; 0x08
    2046:	83 88       	ldd	r8, Z+19	; 0x13
    2048:	6c 6d       	ori	r22, 0xDC	; 220
    204a:	72 7a       	andi	r23, 0xA2	; 162
    204c:	81 83       	std	Z+1, r24	; 0x01
    204e:	92 76       	andi	r25, 0x62	; 98
    2050:	80 82       	st	Z, r8
    2052:	76 7b       	andi	r23, 0xB6	; 182
    2054:	74 72       	andi	r23, 0x24	; 36
    2056:	7e 7d       	andi	r23, 0xDE	; 222
    2058:	7c 7a       	andi	r23, 0xAC	; 172
    205a:	78 85       	ldd	r23, Y+8	; 0x08
    205c:	81 71       	andi	r24, 0x11	; 17
    205e:	78 76       	andi	r23, 0x68	; 104
    2060:	7a 83       	std	Y+2, r23	; 0x02
    2062:	92 9e       	mul	r9, r18
    2064:	8a 87       	std	Y+10, r24	; 0x0a
    2066:	7c 7e       	andi	r23, 0xEC	; 236
    2068:	7f 76       	andi	r23, 0x6F	; 111
    206a:	80 87       	std	Z+8, r24	; 0x08
    206c:	85 8a       	std	Z+21, r8	; 0x15
    206e:	86 8a       	std	Z+22, r8	; 0x16
    2070:	88 71       	andi	r24, 0x18	; 24
    2072:	7a 81       	ldd	r23, Y+2	; 0x02
    2074:	84 7c       	andi	r24, 0xC4	; 196
    2076:	82 8c       	ldd	r8, Z+26	; 0x1a
    2078:	8d 8f       	std	Y+29, r24	; 0x1d
    207a:	8d 87       	std	Y+13, r24	; 0x0d
    207c:	7d 77       	andi	r23, 0x7D	; 125
    207e:	74 78       	andi	r23, 0x84	; 132
    2080:	79 79       	andi	r23, 0x99	; 153
    2082:	7b 7b       	andi	r23, 0xBB	; 187
    2084:	89 76       	andi	r24, 0x69	; 105
    2086:	6b 71       	andi	r22, 0x1B	; 27
    2088:	6d 79       	andi	r22, 0x9D	; 157
    208a:	79 8f       	std	Y+25, r23	; 0x19
    208c:	84 84       	ldd	r8, Z+12	; 0x0c
    208e:	82 77       	andi	r24, 0x72	; 114
    2090:	94 85       	ldd	r25, Z+12	; 0x0c
    2092:	88 77       	andi	r24, 0x78	; 120
    2094:	70 79       	andi	r23, 0x90	; 144
    2096:	79 7e       	andi	r23, 0xE9	; 233
    2098:	87 86       	std	Z+15, r8	; 0x0f
    209a:	72 7e       	andi	r23, 0xE2	; 226
    209c:	7e 7e       	andi	r23, 0xEE	; 238
    209e:	7c 86       	std	Y+12, r7	; 0x0c
    20a0:	98 8f       	std	Y+24, r25	; 0x18
    20a2:	8c 81       	ldd	r24, Y+4	; 0x04
    20a4:	74 76       	andi	r23, 0x64	; 100
    20a6:	7a 8e       	std	Y+26, r7	; 0x1a
    20a8:	8e 89       	ldd	r24, Y+22	; 0x16
    20aa:	7d 6e       	ori	r23, 0xED	; 237
    20ac:	83 86       	std	Z+11, r8	; 0x0b
    20ae:	6e 6f       	ori	r22, 0xFE	; 254
    20b0:	74 74       	andi	r23, 0x44	; 68
    20b2:	7e 84       	ldd	r7, Y+14	; 0x0e
    20b4:	98 87       	std	Y+8, r25	; 0x08
    20b6:	82 87       	std	Z+10, r24	; 0x0a
    20b8:	7c 86       	std	Y+12, r7	; 0x0c
    20ba:	75 75       	andi	r23, 0x55	; 85
    20bc:	7d 7f       	andi	r23, 0xFD	; 253
    20be:	90 91 8f 81 	lds	r25, 0x818F	; 0x80818f <__bss_end+0x808b>
    20c2:	70 64       	ori	r23, 0x40	; 64
    20c4:	6d 74       	andi	r22, 0x4D	; 77
    20c6:	78 7b       	andi	r23, 0xB8	; 184
    20c8:	8a 99       	sbic	0x11, 2	; 17
    20ca:	89 86       	std	Y+9, r8	; 0x09
    20cc:	81 7b       	andi	r24, 0xB1	; 177
    20ce:	81 7c       	andi	r24, 0xC1	; 193
    20d0:	7f 78       	andi	r23, 0x8F	; 143
    20d2:	75 7c       	andi	r23, 0xC5	; 197
    20d4:	7e 96       	adiw	r30, 0x1e	; 30
    20d6:	88 7b       	andi	r24, 0xB8	; 184
    20d8:	6c 71       	andi	r22, 0x1C	; 28
    20da:	79 75       	andi	r23, 0x59	; 89
    20dc:	83 96       	adiw	r24, 0x23	; 35
    20de:	8e 84       	ldd	r8, Y+14	; 0x0e
    20e0:	8b 82       	std	Y+3, r8	; 0x03
    20e2:	83 76       	andi	r24, 0x63	; 99
    20e4:	76 7e       	andi	r23, 0xE6	; 230
    20e6:	7f 81       	ldd	r23, Y+7	; 0x07
    20e8:	7a 7e       	andi	r23, 0xEA	; 234
    20ea:	7e 81       	ldd	r23, Y+6	; 0x06
    20ec:	7b 86       	std	Y+11, r7	; 0x0b
    20ee:	83 6e       	ori	r24, 0xE3	; 227
    20f0:	79 89       	ldd	r23, Y+17	; 0x11
    20f2:	90 86       	std	Z+8, r9	; 0x08
    20f4:	89 87       	std	Y+9, r24	; 0x09
    20f6:	86 86       	std	Z+14, r8	; 0x0e
    20f8:	7d 7c       	andi	r23, 0xCD	; 205
    20fa:	7c 78       	andi	r23, 0x8C	; 140
    20fc:	85 83       	std	Z+5, r24	; 0x05
    20fe:	8d 77       	andi	r24, 0x7D	; 125
    2100:	68 77       	andi	r22, 0x78	; 120
    2102:	6e 8a       	std	Y+22, r6	; 0x16
    2104:	77 8e       	std	Z+31, r7	; 0x1f
    2106:	8a 75       	andi	r24, 0x5A	; 90
    2108:	8e 77       	andi	r24, 0x7E	; 126
    210a:	7c 7e       	andi	r23, 0xEC	; 236
    210c:	73 78       	andi	r23, 0x83	; 131
    210e:	80 7f       	andi	r24, 0xF0	; 240
    2110:	7f 79       	andi	r23, 0x9F	; 159
    2112:	82 8b       	std	Z+18, r24	; 0x12
    2114:	75 77       	andi	r23, 0x75	; 117
    2116:	76 75       	andi	r23, 0x56	; 86
    2118:	7e 87       	std	Y+14, r23	; 0x0e
    211a:	a4 92       	xch	Z, r10
    211c:	8a 80       	ldd	r8, Y+2	; 0x02
    211e:	77 83       	std	Z+7, r23	; 0x07
    2120:	7b 7b       	andi	r23, 0xBB	; 187
    2122:	82 82       	std	Z+2, r8	; 0x02
    2124:	84 86       	std	Z+12, r8	; 0x0c
    2126:	83 95       	inc	r24
    2128:	7a 6e       	ori	r23, 0xEA	; 234
    212a:	7b 7f       	andi	r23, 0xFB	; 251
    212c:	81 78       	andi	r24, 0x81	; 129
    212e:	86 8c       	ldd	r8, Z+30	; 0x1e
    2130:	8d 8c       	ldd	r8, Y+29	; 0x1d
    2132:	8a 81       	ldd	r24, Y+2	; 0x02
    2134:	7b 75       	andi	r23, 0x5B	; 91
    2136:	73 79       	andi	r23, 0x93	; 147
    2138:	77 7c       	andi	r23, 0xC7	; 199
    213a:	78 83       	st	Y, r23
    213c:	8a 6c       	ori	r24, 0xCA	; 202
    213e:	72 6d       	ori	r23, 0xD2	; 210
    2140:	72 77       	andi	r23, 0x72	; 114
    2142:	7f 95 7e 8b 	call	0x5f16fc	; 0x5f16fc <__TEXT_REGION_LENGTH__+0x5d16fc>
    2146:	7a 8a       	std	Y+18, r7	; 0x12
    2148:	8f 86       	std	Y+15, r8	; 0x0f
    214a:	87 68       	ori	r24, 0x87	; 135
    214c:	75 7b       	andi	r23, 0xB5	; 181
    214e:	7d 82       	std	Y+5, r7	; 0x05
    2150:	92 7b       	andi	r25, 0xB2	; 178
    2152:	70 7f       	andi	r23, 0xF0	; 240
    2154:	7c 7c       	andi	r23, 0xCC	; 204
    2156:	7c 93       	st	X, r23
    2158:	97 8a       	std	Z+23, r9	; 0x17
    215a:	8e 72       	andi	r24, 0x2E	; 46
    215c:	76 78       	andi	r23, 0x86	; 134
    215e:	8a 93       	st	-Y, r24
    2160:	80 86       	std	Z+8, r8	; 0x08
    2162:	6f 77       	andi	r22, 0x7F	; 127
    2164:	8a 84       	ldd	r8, Y+10	; 0x0a
    2166:	67 71       	andi	r22, 0x17	; 23
    2168:	71 77       	andi	r23, 0x71	; 113
    216a:	7d 8a       	std	Y+21, r7	; 0x15
    216c:	98 80       	ld	r9, Y
    216e:	86 83       	std	Z+6, r24	; 0x06
    2170:	80 83       	st	Z, r24
    2172:	6e 7c       	andi	r22, 0xCE	; 206
    2174:	7b 88       	ldd	r7, Y+19	; 0x13
    2176:	98 87       	std	Y+8, r25	; 0x08
    2178:	8d 7c       	andi	r24, 0xCD	; 205
    217a:	6b 67       	ori	r22, 0x7B	; 123
    217c:	75 76       	andi	r23, 0x65	; 101
    217e:	79 7c       	andi	r23, 0xC9	; 201
    2180:	90 96       	adiw	r26, 0x20	; 32
    2182:	89 8b       	std	Y+17, r24	; 0x11
    2184:	7c 80       	ldd	r7, Y+4	; 0x04
    2186:	80 7c       	andi	r24, 0xC0	; 192
    2188:	80 6f       	ori	r24, 0xF0	; 240
    218a:	7a 78       	andi	r23, 0x8A	; 138
    218c:	8d 95 86 72 	jmp	0x62e50c	; 0x62e50c <__TEXT_REGION_LENGTH__+0x60e50c>
    2190:	67 73       	andi	r22, 0x37	; 55
    2192:	73 7a       	andi	r23, 0xA3	; 163
    2194:	83 9a       	sbi	0x10, 3	; 16
    2196:	85 87       	std	Z+13, r24	; 0x0d
    2198:	88 7e       	andi	r24, 0xE8	; 232
    219a:	82 71       	andi	r24, 0x12	; 18
    219c:	79 7e       	andi	r23, 0xE9	; 233
    219e:	7b 7c       	andi	r23, 0xCB	; 203
    21a0:	7b 83       	std	Y+3, r23	; 0x03
    21a2:	86 8b       	std	Z+22, r24	; 0x16
    21a4:	7a 82       	std	Y+2, r7	; 0x02
    21a6:	79 67       	ori	r23, 0x79	; 121
    21a8:	7e 8d       	ldd	r23, Y+30	; 0x1e
    21aa:	96 87       	std	Z+14, r25	; 0x0e
    21ac:	8d 84       	ldd	r8, Y+13	; 0x0d
    21ae:	82 83       	std	Z+2, r24	; 0x02
    21b0:	7a 80       	ldd	r7, Y+2	; 0x02
    21b2:	75 80       	ldd	r7, Z+5	; 0x05
    21b4:	82 84       	ldd	r8, Z+10	; 0x0a
    21b6:	8d 69       	ori	r24, 0x9D	; 157
    21b8:	76 70       	andi	r23, 0x06	; 6
    21ba:	7e 89       	ldd	r23, Y+22	; 0x16
    21bc:	6c 8f       	std	Y+28, r22	; 0x1c
    21be:	81 7f       	andi	r24, 0xF1	; 241
    21c0:	8e 7a       	andi	r24, 0xAE	; 174
    21c2:	7c 7d       	andi	r23, 0xDC	; 220
    21c4:	75 7e       	andi	r23, 0xE5	; 229
    21c6:	7f 7d       	andi	r23, 0xDF	; 223
    21c8:	7d 78       	andi	r23, 0x8D	; 141
    21ca:	87 8d       	ldd	r24, Z+31	; 0x1f
    21cc:	75 77       	andi	r23, 0x75	; 117
    21ce:	71 78       	andi	r23, 0x81	; 129
    21d0:	7d 8f       	std	Y+29, r23	; 0x1d
    21d2:	a6 89       	ldd	r26, Z+22	; 0x16
    21d4:	8b 79       	andi	r24, 0x9B	; 155
    21d6:	76 83       	std	Z+6, r23	; 0x06
    21d8:	7b 7c       	andi	r23, 0xCB	; 203
    21da:	83 7b       	andi	r24, 0xB3	; 179
    21dc:	7f 83       	std	Y+7, r23	; 0x07
    21de:	87 92       	lat	Z, r8
    21e0:	78 75       	andi	r23, 0x58	; 88
    21e2:	7c 7c       	andi	r23, 0xCC	; 204
    21e4:	7a 7b       	andi	r23, 0xBA	; 186
    21e6:	83 8e       	std	Z+27, r8	; 0x1b
    21e8:	8d 8d       	ldd	r24, Y+29	; 0x1d
    21ea:	86 7a       	andi	r24, 0xA6	; 166
    21ec:	7c 70       	andi	r23, 0x0C	; 12
    21ee:	7b 7f       	andi	r23, 0xFB	; 251
    21f0:	73 7b       	andi	r23, 0xB3	; 179
    21f2:	7c 88       	ldd	r7, Y+20	; 0x14
    21f4:	83 71       	andi	r24, 0x13	; 19
    21f6:	77 6d       	ori	r23, 0xD7	; 215
    21f8:	73 7a       	andi	r23, 0xA3	; 163
    21fa:	81 8e       	std	Z+25, r8	; 0x19
    21fc:	87 88       	ldd	r8, Z+23	; 0x17
    21fe:	85 88       	ldd	r8, Z+21	; 0x15
    2200:	88 84       	ldd	r8, Y+8	; 0x08
    2202:	75 6e       	ori	r23, 0xE5	; 229
    2204:	74 7e       	andi	r23, 0xE4	; 228
    2206:	7c 85       	ldd	r23, Y+12	; 0x0c
    2208:	93 75       	andi	r25, 0x53	; 83
    220a:	74 82       	std	Z+4, r7	; 0x04
    220c:	7b 82       	std	Y+3, r7	; 0x03
    220e:	7a 90       	ld	r7, -Y
    2210:	95 8b       	std	Z+21, r25	; 0x15
    2212:	84 71       	andi	r24, 0x14	; 20
    2214:	7a 88       	ldd	r7, Y+18	; 0x12
    2216:	8f 8e       	std	Y+31, r8	; 0x1f
    2218:	83 73       	andi	r24, 0x33	; 51
    221a:	77 7a       	andi	r23, 0xA7	; 167
    221c:	90 7f       	andi	r25, 0xF0	; 240
    221e:	67 73       	andi	r22, 0x37	; 55
    2220:	6e 76       	andi	r22, 0x6E	; 110
    2222:	81 89       	ldd	r24, Z+17	; 0x11
    2224:	94 85       	ldd	r25, Z+12	; 0x0c
    2226:	88 88       	ldd	r8, Y+16	; 0x10
    2228:	7b 7c       	andi	r23, 0xCB	; 203
    222a:	72 80       	ldd	r7, Z+2	; 0x02
    222c:	85 8f       	std	Z+29, r24	; 0x1d
    222e:	88 7d       	andi	r24, 0xD8	; 216
    2230:	84 79       	andi	r24, 0x94	; 148
    2232:	6d 78       	andi	r22, 0x8D	; 141
    2234:	78 73       	andi	r23, 0x38	; 56
    2236:	7a 76       	andi	r23, 0x6A	; 106
    2238:	91 98       	cbi	0x12, 1	; 18
    223a:	8c 8c       	ldd	r8, Y+28	; 0x1c
    223c:	78 7f       	andi	r23, 0xF8	; 248
    223e:	81 77       	andi	r24, 0x71	; 113
    2240:	78 76       	andi	r23, 0x68	; 104
    2242:	77 7d       	andi	r23, 0xD7	; 215
    2244:	98 90       	.word	0x9098	; ????
    2246:	82 6c       	ori	r24, 0xC2	; 194
    2248:	70 72       	andi	r23, 0x20	; 32
    224a:	74 7a       	andi	r23, 0xA4	; 164
    224c:	76 93       	lac	Z, r23
    224e:	7e 85       	ldd	r23, Y+14	; 0x0e
    2250:	88 7c       	andi	r24, 0xC8	; 200
    2252:	84 71       	andi	r24, 0x14	; 20
    2254:	79 7e       	andi	r23, 0xE9	; 233
    2256:	7a 7d       	andi	r23, 0xDA	; 218
    2258:	7a 8c       	ldd	r7, Y+26	; 0x1a
    225a:	8b 85       	ldd	r24, Y+11	; 0x0b
    225c:	7d 7f       	andi	r23, 0xFD	; 253
    225e:	6b 6c       	ori	r22, 0xCB	; 203
    2260:	7e 90       	ld	r7, -X
    2262:	99 8b       	std	Y+17, r25	; 0x11
    2264:	94 7a       	andi	r25, 0xA4	; 164
    2266:	87 8b       	std	Z+23, r24	; 0x17
    2268:	81 83       	std	Z+1, r24	; 0x01
    226a:	7b 83       	std	Y+3, r23	; 0x03
    226c:	7d 82       	std	Y+5, r7	; 0x05
    226e:	81 72       	andi	r24, 0x21	; 33
    2270:	79 7e       	andi	r23, 0xE9	; 233
    2272:	87 7b       	andi	r24, 0xB7	; 183
    2274:	6e 81       	ldd	r22, Y+6	; 0x06
    2276:	89 82       	std	Y+1, r8	; 0x01
    2278:	8a 81       	ldd	r24, Y+2	; 0x02
    227a:	70 7f       	andi	r23, 0xF0	; 240
    227c:	73 7c       	andi	r23, 0xC3	; 195
    227e:	82 7b       	andi	r24, 0xB2	; 178
    2280:	7b 74       	andi	r23, 0x4B	; 75
    2282:	8f 84       	ldd	r8, Y+15	; 0x0f
    2284:	71 7b       	andi	r23, 0xB1	; 177
    2286:	74 79       	andi	r23, 0x94	; 148
    2288:	79 92       	st	Y+, r7
    228a:	98 84       	ldd	r9, Y+8	; 0x08
    228c:	82 7f       	andi	r24, 0xF2	; 242
    228e:	7e 82       	std	Y+6, r7	; 0x06
    2290:	82 79       	andi	r24, 0x92	; 146
    2292:	7c 78       	andi	r23, 0x8C	; 140
    2294:	82 88       	ldd	r8, Z+18	; 0x12
    2296:	8d 8e       	std	Y+29, r8	; 0x1d
    2298:	71 76       	andi	r23, 0x61	; 97
    229a:	80 74       	andi	r24, 0x40	; 64
    229c:	7c 7b       	andi	r23, 0xBC	; 188
    229e:	89 90       	ld	r8, Y+
    22a0:	91 93       	st	Z+, r25
    22a2:	83 7e       	andi	r24, 0xE3	; 227
    22a4:	7f 77       	andi	r23, 0x7F	; 127
    22a6:	7a 7c       	andi	r23, 0xCA	; 202
    22a8:	72 7b       	andi	r23, 0xB2	; 178
    22aa:	76 92       	lac	Z, r7
    22ac:	82 75       	andi	r24, 0x52	; 82
    22ae:	7a 72       	andi	r23, 0x2A	; 42
    22b0:	7a 73       	andi	r23, 0x3A	; 58
    22b2:	83 84       	ldd	r8, Z+11	; 0x0b
    22b4:	8f 85       	ldd	r24, Y+15	; 0x0f
    22b6:	84 8a       	std	Z+20, r8	; 0x14
    22b8:	84 7c       	andi	r24, 0xC4	; 196
    22ba:	73 77       	andi	r23, 0x73	; 115
    22bc:	7b 7f       	andi	r23, 0xFB	; 251
    22be:	7e 8b       	std	Y+22, r23	; 0x16
    22c0:	85 70       	andi	r24, 0x05	; 5
    22c2:	80 82       	st	Z, r8
    22c4:	77 7d       	andi	r23, 0xD7	; 215
    22c6:	77 8f       	std	Z+31, r23	; 0x1f
    22c8:	8b 86       	std	Y+11, r8	; 0x0b
    22ca:	88 7a       	andi	r24, 0xA8	; 168
    22cc:	88 80       	ld	r8, Y
    22ce:	8d 84       	ldd	r8, Y+13	; 0x0d
    22d0:	6e 7c       	andi	r22, 0xCE	; 206
    22d2:	73 85       	ldd	r23, Z+11	; 0x0b
    22d4:	86 68       	ori	r24, 0x86	; 134
    22d6:	71 72       	andi	r23, 0x21	; 33
    22d8:	6d 7e       	andi	r22, 0xED	; 237
    22da:	7b 89       	ldd	r23, Y+19	; 0x13
    22dc:	8c 83       	std	Y+4, r24	; 0x04
    22de:	8b 88       	ldd	r8, Y+19	; 0x13
    22e0:	7f 7a       	andi	r23, 0xAF	; 175
    22e2:	78 87       	std	Y+8, r23	; 0x08
    22e4:	8f 88       	ldd	r8, Y+23	; 0x17
    22e6:	86 82       	std	Z+6, r8	; 0x06
    22e8:	7f 73       	andi	r23, 0x3F	; 63
    22ea:	7c 7c       	andi	r23, 0xCC	; 204
    22ec:	78 77       	andi	r23, 0x78	; 120
    22ee:	74 84       	ldd	r7, Z+12	; 0x0c
    22f0:	9b 94       	des	9
    22f2:	8d 88       	ldd	r8, Y+21	; 0x15
    22f4:	81 81       	ldd	r24, Z+1	; 0x01
    22f6:	7c 7d       	andi	r23, 0xDC	; 220
    22f8:	7a 79       	andi	r23, 0x9A	; 154
    22fa:	89 8e       	std	Y+25, r8	; 0x19
    22fc:	8c 81       	ldd	r24, Y+4	; 0x04
    22fe:	6e 73       	andi	r22, 0x3E	; 62
    2300:	6e 77       	andi	r22, 0x7E	; 126
    2302:	75 73       	andi	r23, 0x35	; 53
    2304:	89 85       	ldd	r24, Y+9	; 0x09
    2306:	82 8e       	std	Z+26, r8	; 0x1a
    2308:	83 7c       	andi	r24, 0xC3	; 195
    230a:	77 73       	andi	r23, 0x37	; 55
    230c:	73 7c       	andi	r23, 0xC3	; 195
    230e:	7f 79       	andi	r23, 0x9F	; 159
    2310:	79 83       	std	Y+1, r23	; 0x01
    2312:	86 89       	ldd	r24, Z+22	; 0x16
    2314:	88 6e       	ori	r24, 0xE8	; 232
    2316:	72 71       	andi	r23, 0x12	; 18
    2318:	8c 94 8c 8c 	jmp	0x211918	; 0x211918 <__TEXT_REGION_LENGTH__+0x1f1918>
    231c:	7e 7d       	andi	r23, 0xDE	; 222
    231e:	84 82       	std	Z+4, r8	; 0x04
    2320:	83 80       	ldd	r8, Z+3	; 0x03
    2322:	86 87       	std	Z+14, r24	; 0x0e
    2324:	74 80       	ldd	r7, Z+4	; 0x04
    2326:	73 79       	andi	r23, 0x93	; 147
    2328:	89 83       	std	Y+1, r24	; 0x01
    232a:	82 73       	andi	r24, 0x32	; 50
    232c:	8b 89       	ldd	r24, Y+19	; 0x13
    232e:	7e 89       	ldd	r23, Y+22	; 0x16
    2330:	70 74       	andi	r23, 0x40	; 64
    2332:	70 79       	andi	r23, 0x90	; 144
    2334:	7f 85       	ldd	r23, Y+15	; 0x0f
    2336:	8a 77       	andi	r24, 0x7A	; 122
    2338:	84 77       	andi	r24, 0x74	; 116
    233a:	81 7a       	andi	r24, 0xA1	; 161
    233c:	7b 7d       	andi	r23, 0xDB	; 219
    233e:	72 8a       	std	Z+18, r7	; 0x12
    2340:	90 91 8c 7b 	lds	r25, 0x7B8C	; 0x807b8c <__bss_end+0x7a88>
    2344:	7c 74       	andi	r23, 0x4C	; 76
    2346:	78 8e       	std	Y+24, r7	; 0x18
    2348:	84 89       	ldd	r24, Z+20	; 0x14
    234a:	7d 82       	std	Y+5, r7	; 0x05
    234c:	86 7f       	andi	r24, 0xF6	; 246
    234e:	83 7d       	andi	r24, 0xD3	; 211
    2350:	7d 7a       	andi	r23, 0xAD	; 173
    2352:	7a 82       	std	Y+2, r7	; 0x02
    2354:	8f 88       	ldd	r8, Y+23	; 0x17
    2356:	86 8a       	std	Z+22, r8	; 0x16
    2358:	82 77       	andi	r24, 0x72	; 114
    235a:	7b 78       	andi	r23, 0x8B	; 139
    235c:	85 79       	andi	r24, 0x95	; 149
    235e:	74 7d       	andi	r23, 0xD4	; 212
    2360:	6e 7f       	andi	r22, 0xFE	; 254
    2362:	79 79       	andi	r23, 0x99	; 153
    2364:	76 6e       	ori	r23, 0xE6	; 230
    2366:	7f 83       	std	Y+7, r23	; 0x07
    2368:	7c 8f       	std	Y+28, r23	; 0x1c
    236a:	76 72       	andi	r23, 0x26	; 38
    236c:	7a 81       	ldd	r23, Y+2	; 0x02
    236e:	8d 8a       	std	Y+21, r8	; 0x15
    2370:	89 74       	andi	r24, 0x49	; 73
    2372:	7a 73       	andi	r23, 0x3A	; 58
    2374:	84 87       	std	Z+12, r24	; 0x0c
    2376:	7c 7b       	andi	r23, 0xBC	; 188
    2378:	7a 81       	ldd	r23, Y+2	; 0x02
    237a:	95 8e       	std	Z+29, r9	; 0x1d
    237c:	89 89       	ldd	r24, Y+17	; 0x11
    237e:	7e 80       	ldd	r7, Y+6	; 0x06
    2380:	73 8b       	std	Z+19, r23	; 0x13
    2382:	7d 89       	ldd	r23, Y+21	; 0x15
    2384:	8f 89       	ldd	r24, Y+23	; 0x17
    2386:	87 7c       	andi	r24, 0xC7	; 199
    2388:	83 72       	andi	r24, 0x23	; 35
    238a:	74 75       	andi	r23, 0x54	; 84
    238c:	6c 85       	ldd	r22, Y+12	; 0x0c
    238e:	8a 85       	ldd	r24, Y+10	; 0x0a
    2390:	8a 7d       	andi	r24, 0xDA	; 218
    2392:	7f 73       	andi	r23, 0x3F	; 63
    2394:	7e 81       	ldd	r23, Y+6	; 0x06
    2396:	82 7a       	andi	r24, 0xA2	; 162
    2398:	84 75       	andi	r24, 0x54	; 84
    239a:	81 96       	adiw	r24, 0x21	; 33
    239c:	84 8c       	ldd	r8, Z+28	; 0x1c
    239e:	6f 76       	andi	r22, 0x6F	; 111
    23a0:	76 88       	ldd	r7, Z+22	; 0x16
    23a2:	86 8b       	std	Z+22, r24	; 0x16
    23a4:	78 73       	andi	r23, 0x38	; 56
    23a6:	76 76       	andi	r23, 0x66	; 102
    23a8:	89 81       	ldd	r24, Y+1	; 0x01
    23aa:	81 7a       	andi	r24, 0xA1	; 161
    23ac:	80 79       	andi	r24, 0x90	; 144
    23ae:	84 83       	std	Z+4, r24	; 0x04
    23b0:	75 7f       	andi	r23, 0xF5	; 245
    23b2:	87 7c       	andi	r24, 0xC7	; 199
    23b4:	8e 87       	std	Y+14, r24	; 0x0e
    23b6:	8a 7d       	andi	r24, 0xDA	; 218
    23b8:	75 76       	andi	r23, 0x65	; 101
    23ba:	6c 7f       	andi	r22, 0xFC	; 252
    23bc:	7a 85       	ldd	r23, Y+10	; 0x0a
    23be:	79 81       	ldd	r23, Y+1	; 0x01
    23c0:	7c 7e       	andi	r23, 0xEC	; 236
    23c2:	87 7a       	andi	r24, 0xA7	; 167
    23c4:	76 79       	andi	r23, 0x96	; 150
    23c6:	7b 7d       	andi	r23, 0xDB	; 219
    23c8:	90 84       	ldd	r9, Z+8	; 0x08
    23ca:	8d 80       	ldd	r8, Y+5	; 0x05
    23cc:	79 77       	andi	r23, 0x79	; 121
    23ce:	72 84       	ldd	r7, Z+10	; 0x0a
    23d0:	8e 83       	std	Y+6, r24	; 0x06
    23d2:	83 80       	ldd	r8, Z+3	; 0x03
    23d4:	84 8c       	ldd	r8, Z+28	; 0x1c
    23d6:	88 84       	ldd	r8, Y+8	; 0x08
    23d8:	81 7d       	andi	r24, 0xD1	; 209
    23da:	84 8b       	std	Z+20, r24	; 0x14
    23dc:	8b 8e       	std	Y+27, r8	; 0x1b
    23de:	75 89       	ldd	r23, Z+21	; 0x15
    23e0:	7c 7b       	andi	r23, 0xBC	; 188
    23e2:	80 7e       	andi	r24, 0xE0	; 224
    23e4:	7a 73       	andi	r23, 0x3A	; 58
    23e6:	72 73       	andi	r23, 0x32	; 50
    23e8:	7e 7e       	andi	r23, 0xEE	; 238
    23ea:	76 7b       	andi	r23, 0xB6	; 182
    23ec:	73 73       	andi	r23, 0x33	; 51
    23ee:	94 81       	ldd	r25, Z+4	; 0x04
    23f0:	88 7e       	andi	r24, 0xE8	; 232
    23f2:	77 77       	andi	r23, 0x77	; 119
    23f4:	79 7b       	andi	r23, 0xB9	; 185
    23f6:	8c 88       	ldd	r8, Y+20	; 0x14
    23f8:	88 7b       	andi	r24, 0xB8	; 184
    23fa:	75 84       	ldd	r7, Z+13	; 0x0d
    23fc:	75 83       	std	Z+5, r23	; 0x05
    23fe:	7c 82       	std	Y+4, r7	; 0x04
    2400:	72 8b       	std	Z+18, r23	; 0x12
    2402:	94 87       	std	Z+12, r25	; 0x0c
    2404:	90 7a       	andi	r25, 0xA0	; 160
    2406:	7e 7b       	andi	r23, 0xBE	; 190
    2408:	7a 84       	ldd	r7, Y+10	; 0x0a
    240a:	7f 85       	ldd	r23, Y+15	; 0x0f
    240c:	7c 8e       	std	Y+28, r7	; 0x1c
    240e:	91 84       	ldd	r9, Z+9	; 0x09
    2410:	8c 79       	andi	r24, 0x9C	; 156
    2412:	80 6a       	ori	r24, 0xA0	; 160
    2414:	7d 91       	ld	r23, X+
    2416:	83 89       	ldd	r24, Z+19	; 0x13
    2418:	73 7c       	andi	r23, 0xC3	; 195
    241a:	72 77       	andi	r23, 0x72	; 114
    241c:	80 7b       	andi	r24, 0xB0	; 176
    241e:	7d 6f       	ori	r23, 0xFD	; 253
    2420:	78 7a       	andi	r23, 0xA8	; 168
    2422:	7d 78       	andi	r23, 0x8D	; 141
    2424:	87 88       	ldd	r8, Z+23	; 0x17
    2426:	80 7a       	andi	r24, 0xA0	; 160
    2428:	8b 83       	std	Y+3, r24	; 0x03
    242a:	81 85       	ldd	r24, Z+9	; 0x09
    242c:	7c 7e       	andi	r23, 0xEC	; 236
    242e:	6e 7e       	andi	r22, 0xEE	; 238
    2430:	85 81       	ldd	r24, Z+5	; 0x05
    2432:	7e 82       	std	Y+6, r7	; 0x06
    2434:	7d 8b       	std	Y+21, r23	; 0x15
    2436:	82 76       	andi	r24, 0x62	; 98
    2438:	88 76       	andi	r24, 0x68	; 104
    243a:	76 91       	elpm	r23, Z
    243c:	84 8a       	std	Z+20, r8	; 0x14
    243e:	89 7f       	andi	r24, 0xF9	; 249
    2440:	83 68       	ori	r24, 0x83	; 131
    2442:	7a 7e       	andi	r23, 0xEA	; 234
    2444:	83 7c       	andi	r24, 0xC3	; 195
    2446:	75 85       	ldd	r23, Z+13	; 0x0d
    2448:	7b 8d       	ldd	r23, Y+27	; 0x1b
    244a:	85 85       	ldd	r24, Z+13	; 0x0d
    244c:	81 6f       	ori	r24, 0xF1	; 241
    244e:	80 91 8b 86 	lds	r24, 0x868B	; 0x80868b <__bss_end+0x8587>
    2452:	87 85       	ldd	r24, Z+15	; 0x0f
    2454:	7b 75       	andi	r23, 0x5B	; 91
    2456:	7d 7f       	andi	r23, 0xFD	; 253
    2458:	7a 70       	andi	r23, 0x0A	; 10
    245a:	84 7b       	andi	r24, 0xB4	; 180
    245c:	7c 84       	ldd	r7, Y+12	; 0x0c
    245e:	7e 7c       	andi	r23, 0xCE	; 206
    2460:	6e 7c       	andi	r22, 0xCE	; 206
    2462:	90 7f       	andi	r25, 0xF0	; 240
    2464:	87 86       	std	Z+15, r8	; 0x0f
    2466:	76 80       	ldd	r7, Z+6	; 0x06
    2468:	76 92       	lac	Z, r7
    246a:	82 80       	ldd	r8, Z+2	; 0x02
    246c:	7e 71       	andi	r23, 0x1E	; 30
    246e:	7b 75       	andi	r23, 0x5B	; 91
    2470:	7f 77       	andi	r23, 0x7F	; 127
    2472:	82 71       	andi	r24, 0x12	; 18
    2474:	6e 8d       	ldd	r22, Y+30	; 0x1e
    2476:	84 87       	std	Z+12, r24	; 0x0c
    2478:	87 78       	andi	r24, 0x87	; 135
    247a:	7c 6d       	ori	r23, 0xDC	; 220
    247c:	7d 85       	ldd	r23, Y+13	; 0x0d
    247e:	79 84       	ldd	r7, Y+9	; 0x09
    2480:	8a 87       	std	Y+10, r24	; 0x0a
    2482:	8a 80       	ldd	r8, Y+2	; 0x02
    2484:	7e 7d       	andi	r23, 0xDE	; 222
    2486:	76 7b       	andi	r23, 0xB6	; 182
    2488:	88 94       	clc
    248a:	86 8f       	std	Z+30, r24	; 0x1e
    248c:	87 80       	ldd	r8, Z+7	; 0x07
    248e:	7c 7f       	andi	r23, 0xFC	; 252
    2490:	8b 86       	std	Y+11, r8	; 0x0b
    2492:	78 7e       	andi	r23, 0xE8	; 232
    2494:	86 75       	andi	r24, 0x56	; 86
    2496:	8a 89       	ldd	r24, Y+18	; 0x12
    2498:	82 85       	ldd	r24, Z+10	; 0x0a
    249a:	73 7c       	andi	r23, 0xC3	; 195
    249c:	87 7a       	andi	r24, 0xA7	; 167
    249e:	80 7c       	andi	r24, 0xC0	; 192
    24a0:	7b 6f       	ori	r23, 0xFB	; 251
    24a2:	6c 7f       	andi	r22, 0xFC	; 252
    24a4:	7c 86       	std	Y+12, r7	; 0x0c
    24a6:	79 7a       	andi	r23, 0xA9	; 169
    24a8:	77 77       	andi	r23, 0x77	; 119
    24aa:	7f 7d       	andi	r23, 0xDF	; 223
    24ac:	7c 7d       	andi	r23, 0xDC	; 220
    24ae:	8c 89       	ldd	r24, Y+20	; 0x14
    24b0:	8e 8a       	std	Y+22, r8	; 0x16
    24b2:	89 7d       	andi	r24, 0xD9	; 217
    24b4:	77 71       	andi	r23, 0x17	; 23
    24b6:	7d 82       	std	Y+5, r7	; 0x05
    24b8:	85 80       	ldd	r8, Z+5	; 0x05
    24ba:	7f 7d       	andi	r23, 0xDF	; 223
    24bc:	79 88       	ldd	r7, Y+17	; 0x11
    24be:	82 83       	std	Z+2, r24	; 0x02
    24c0:	70 81       	ld	r23, Z
    24c2:	84 8b       	std	Z+20, r24	; 0x14
    24c4:	8b 84       	ldd	r8, Y+11	; 0x0b
    24c6:	84 7a       	andi	r24, 0xA4	; 164
    24c8:	7d 77       	andi	r23, 0x7D	; 125
    24ca:	7d 82       	std	Y+5, r7	; 0x05
    24cc:	79 7c       	andi	r23, 0xC9	; 201
    24ce:	82 6e       	ori	r24, 0xE2	; 226
    24d0:	85 7d       	andi	r24, 0xD5	; 213
    24d2:	7b 7f       	andi	r23, 0xFB	; 251
    24d4:	70 81       	ld	r23, Z
    24d6:	87 7f       	andi	r24, 0xF7	; 247
    24d8:	8c 7a       	andi	r24, 0xAC	; 172
    24da:	77 7f       	andi	r23, 0xF7	; 247
    24dc:	7e 8b       	std	Y+22, r23	; 0x16
    24de:	81 7f       	andi	r24, 0xF1	; 241
    24e0:	78 7b       	andi	r23, 0xB8	; 184
    24e2:	7a 84       	ldd	r7, Y+10	; 0x0a
    24e4:	83 7d       	andi	r24, 0xD3	; 211
    24e6:	7f 79       	andi	r23, 0x9F	; 159
    24e8:	7b 8c       	ldd	r7, Y+27	; 0x1b
    24ea:	8c 8f       	std	Y+28, r24	; 0x1c
    24ec:	8b 7b       	andi	r24, 0xBB	; 187
    24ee:	75 7b       	andi	r23, 0xB5	; 181
    24f0:	8a 80       	ldd	r8, Y+2	; 0x02
    24f2:	8a 85       	ldd	r24, Y+10	; 0x0a
    24f4:	7f 7c       	andi	r23, 0xCF	; 207
    24f6:	86 7d       	andi	r24, 0xD6	; 214
    24f8:	7a 76       	andi	r23, 0x6A	; 106
    24fa:	72 76       	andi	r23, 0x62	; 98
    24fc:	84 8b       	std	Z+20, r24	; 0x14
    24fe:	86 8e       	std	Z+30, r8	; 0x1e
    2500:	7f 85       	ldd	r23, Y+15	; 0x0f
    2502:	76 79       	andi	r23, 0x96	; 150
    2504:	7e 79       	andi	r23, 0x9E	; 158
    2506:	81 80       	ldd	r8, Z+1	; 0x01
    2508:	7a 90       	ld	r7, -Y
    250a:	8d 83       	std	Y+5, r24	; 0x05
    250c:	82 7a       	andi	r24, 0xA2	; 162
    250e:	7a 74       	andi	r23, 0x4A	; 74
    2510:	90 82       	st	Z, r9
    2512:	8a 80       	ldd	r8, Y+2	; 0x02
    2514:	78 7c       	andi	r23, 0xC8	; 200
    2516:	74 75       	andi	r23, 0x54	; 84
    2518:	82 86       	std	Z+10, r8	; 0x0a
    251a:	7b 7b       	andi	r23, 0xBB	; 187
    251c:	74 86       	std	Z+12, r7	; 0x0c
    251e:	7d 81       	ldd	r23, Y+5	; 0x05
    2520:	8d 7f       	andi	r24, 0xFD	; 253
    2522:	74 8f       	std	Z+28, r23	; 0x1c
    2524:	88 88       	ldd	r8, Y+16	; 0x10
    2526:	85 70       	andi	r24, 0x05	; 5
    2528:	75 70       	andi	r23, 0x05	; 5
    252a:	77 78       	andi	r23, 0x87	; 135
    252c:	84 74       	andi	r24, 0x44	; 68
    252e:	7b 79       	andi	r23, 0x9B	; 155
    2530:	80 89       	ldd	r24, Z+16	; 0x10
    2532:	71 7b       	andi	r23, 0xB1	; 177
    2534:	7a 6f       	ori	r23, 0xFA	; 250
    2536:	83 8c       	ldd	r8, Z+27	; 0x1b
    2538:	8a 8e       	std	Y+26, r8	; 0x1a
    253a:	7f 87       	std	Y+15, r23	; 0x0f
    253c:	77 7d       	andi	r23, 0xD7	; 215
    253e:	82 83       	std	Z+2, r24	; 0x02
    2540:	84 81       	ldd	r24, Z+4	; 0x04
    2542:	83 86       	std	Z+11, r8	; 0x0b
    2544:	8d 7d       	andi	r24, 0xDD	; 221
    2546:	92 84       	ldd	r9, Z+10	; 0x0a
    2548:	7e 86       	std	Y+14, r7	; 0x0e
    254a:	8d 91       	ld	r24, X+
    254c:	8e 86       	std	Y+14, r8	; 0x0e
    254e:	80 7d       	andi	r24, 0xD0	; 208
    2550:	72 7d       	andi	r23, 0xD2	; 210
    2552:	7d 7c       	andi	r23, 0xCD	; 205
    2554:	6f 70       	andi	r22, 0x0F	; 15
    2556:	78 7d       	andi	r23, 0xD8	; 216
    2558:	79 7e       	andi	r23, 0xE9	; 233
    255a:	7e 6e       	ori	r23, 0xEE	; 238
    255c:	7d 8a       	std	Y+21, r7	; 0x15
    255e:	87 85       	ldd	r24, Z+15	; 0x0f
    2560:	81 6f       	ori	r24, 0xF1	; 241
    2562:	76 76       	andi	r23, 0x66	; 102
    2564:	80 89       	ldd	r24, Z+16	; 0x10
    2566:	7f 7d       	andi	r23, 0xDF	; 223
    2568:	6f 7c       	andi	r22, 0xCF	; 207
    256a:	80 7f       	andi	r24, 0xF0	; 240
    256c:	7c 7c       	andi	r23, 0xCC	; 204
    256e:	7c 75       	andi	r23, 0x5C	; 92
    2570:	8e 93       	st	-X, r24
    2572:	83 87       	std	Z+11, r24	; 0x0b
    2574:	84 80       	ldd	r8, Z+4	; 0x04
    2576:	78 7e       	andi	r23, 0xE8	; 232
    2578:	80 85       	ldd	r24, Z+8	; 0x08
    257a:	89 87       	std	Y+9, r24	; 0x09
    257c:	8c 8b       	std	Y+20, r24	; 0x14
    257e:	84 7e       	andi	r24, 0xE4	; 228
    2580:	84 7d       	andi	r24, 0xD4	; 212
    2582:	73 85       	ldd	r23, Z+11	; 0x0b
    2584:	8b 82       	std	Y+3, r8	; 0x03
    2586:	8c 7e       	andi	r24, 0xEC	; 236
    2588:	7e 71       	andi	r23, 0x1E	; 30
    258a:	79 7b       	andi	r23, 0xB9	; 185
    258c:	82 7e       	andi	r24, 0xE2	; 226
    258e:	71 7b       	andi	r23, 0xB1	; 177
    2590:	75 7a       	andi	r23, 0xA5	; 165
    2592:	84 88       	ldd	r8, Z+20	; 0x14
    2594:	87 73       	andi	r24, 0x37	; 55
    2596:	7a 93       	st	-Y, r23
    2598:	80 92 80 78 	sts	0x7880, r8	; 0x807880 <__bss_end+0x777c>
    259c:	78 72       	andi	r23, 0x28	; 40
    259e:	7a 83       	std	Y+2, r23	; 0x02
    25a0:	7a 79       	andi	r23, 0x9A	; 154
    25a2:	82 80       	ldd	r8, Z+2	; 0x02
    25a4:	84 79       	andi	r24, 0x94	; 148
    25a6:	7e 7e       	andi	r23, 0xEE	; 238
    25a8:	7b 82       	std	Y+3, r7	; 0x03
    25aa:	8c 86       	std	Y+12, r8	; 0x0c
    25ac:	8d 88       	ldd	r8, Y+21	; 0x15
    25ae:	84 7c       	andi	r24, 0xC4	; 196
    25b0:	71 75       	andi	r23, 0x51	; 81
    25b2:	79 81       	ldd	r23, Y+1	; 0x01
    25b4:	77 79       	andi	r23, 0x97	; 151
    25b6:	81 7e       	andi	r24, 0xE1	; 225
    25b8:	8a 82       	std	Y+2, r8	; 0x02
    25ba:	88 73       	andi	r24, 0x38	; 56
    25bc:	77 80       	ldd	r7, Z+7	; 0x07
    25be:	81 96       	adiw	r24, 0x21	; 33
    25c0:	85 88       	ldd	r8, Z+21	; 0x15
    25c2:	7e 75       	andi	r23, 0x5E	; 94
    25c4:	7d 79       	andi	r23, 0x9D	; 157
    25c6:	82 7f       	andi	r24, 0xF2	; 242
    25c8:	71 82       	std	Z+1, r7	; 0x01
    25ca:	7d 84       	ldd	r7, Y+13	; 0x0d
    25cc:	7f 83       	std	Y+7, r23	; 0x07
    25ce:	71 73       	andi	r23, 0x31	; 49
    25d0:	89 8d       	ldd	r24, Y+25	; 0x19
    25d2:	8a 8d       	ldd	r24, Y+26	; 0x1a
    25d4:	7f 7b       	andi	r23, 0xBF	; 191
    25d6:	83 84       	ldd	r8, Z+11	; 0x0b
    25d8:	88 79       	andi	r24, 0x98	; 152
    25da:	7f 74       	andi	r23, 0x4F	; 79
    25dc:	79 7e       	andi	r23, 0xE9	; 233
    25de:	80 77       	andi	r24, 0x70	; 112
    25e0:	7b 7c       	andi	r23, 0xCB	; 203
    25e2:	6f 7b       	andi	r22, 0xBF	; 191
    25e4:	8c 87       	std	Y+12, r24	; 0x0c
    25e6:	86 8d       	ldd	r24, Z+30	; 0x1e
    25e8:	7a 75       	andi	r23, 0x5A	; 90
    25ea:	73 79       	andi	r23, 0x93	; 147
    25ec:	76 82       	std	Z+6, r7	; 0x06
    25ee:	87 7f       	andi	r24, 0xF7	; 247
    25f0:	85 7a       	andi	r24, 0xA5	; 165
    25f2:	7e 80       	ldd	r7, Y+6	; 0x06
    25f4:	7f 7e       	andi	r23, 0xEF	; 239
    25f6:	74 8b       	std	Z+20, r23	; 0x14
    25f8:	8c 8a       	std	Y+20, r8	; 0x14
    25fa:	93 85       	ldd	r25, Z+11	; 0x0b
    25fc:	79 7c       	andi	r23, 0xC9	; 201
    25fe:	7e 84       	ldd	r7, Y+14	; 0x0e
    2600:	80 77       	andi	r24, 0x70	; 112
    2602:	81 7e       	andi	r24, 0xE1	; 225
    2604:	8e 90       	ld	r8, -X
    2606:	84 87       	std	Z+12, r24	; 0x0c
    2608:	77 7a       	andi	r23, 0xA7	; 167
    260a:	82 88       	ldd	r8, Z+18	; 0x12
    260c:	88 83       	st	Y, r24
    260e:	7d 7b       	andi	r23, 0xBD	; 189
    2610:	74 76       	andi	r23, 0x64	; 100
    2612:	7d 80       	ldd	r7, Y+5	; 0x05
    2614:	7f 78       	andi	r23, 0x8F	; 143
    2616:	7a 74       	andi	r23, 0x4A	; 74
    2618:	7c 79       	andi	r23, 0x9C	; 156
    261a:	79 87       	std	Y+9, r23	; 0x09
    261c:	81 86       	std	Z+9, r8	; 0x09
    261e:	8b 82       	std	Y+3, r8	; 0x03
    2620:	8c 82       	std	Y+4, r8	; 0x04
    2622:	80 78       	andi	r24, 0x80	; 128
    2624:	70 7b       	andi	r23, 0xB0	; 176
    2626:	7f 86       	std	Y+15, r7	; 0x0f
    2628:	71 7c       	andi	r23, 0xC1	; 193
    262a:	72 86       	std	Z+10, r7	; 0x0a
    262c:	83 84       	ldd	r8, Z+11	; 0x0b
    262e:	7e 74       	andi	r23, 0x4E	; 78
    2630:	7f 81       	ldd	r23, Y+7	; 0x07
    2632:	99 85       	ldd	r25, Y+9	; 0x09
    2634:	8a 7c       	andi	r24, 0xCA	; 202
    2636:	77 7c       	andi	r23, 0xC7	; 199
    2638:	78 7e       	andi	r23, 0xE8	; 232
    263a:	83 6b       	ori	r24, 0xB3	; 179
    263c:	78 78       	andi	r23, 0x88	; 136
    263e:	84 82       	std	Z+4, r8	; 0x04
    2640:	89 8f       	std	Y+25, r24	; 0x19
    2642:	71 83       	std	Z+1, r23	; 0x01
    2644:	80 8b       	std	Z+16, r24	; 0x10
    2646:	82 82       	std	Z+2, r8	; 0x02
    2648:	7a 87       	std	Y+10, r23	; 0x0a
    264a:	81 83       	std	Z+1, r24	; 0x01
    264c:	7f 7c       	andi	r23, 0xCF	; 207
    264e:	7e 72       	andi	r23, 0x2E	; 46
    2650:	81 82       	std	Z+1, r8	; 0x01
    2652:	7e 7d       	andi	r23, 0xDE	; 222
    2654:	8d 77       	andi	r24, 0x7D	; 125
    2656:	74 7c       	andi	r23, 0xC4	; 196
    2658:	88 8c       	ldd	r8, Y+24	; 0x18
    265a:	8b 8c       	ldd	r8, Y+27	; 0x1b
    265c:	7f 71       	andi	r23, 0x1F	; 31
    265e:	7d 80       	ldd	r7, Y+5	; 0x05
    2660:	8a 83       	std	Y+2, r24	; 0x02
    2662:	78 75       	andi	r23, 0x58	; 88
    2664:	79 80       	ldd	r7, Y+1	; 0x01
    2666:	79 90       	ld	r7, Y+
    2668:	7a 70       	andi	r23, 0x0A	; 10
    266a:	78 89       	ldd	r23, Y+16	; 0x10
    266c:	8e 87       	std	Y+14, r24	; 0x0e
    266e:	8d 80       	ldd	r8, Y+5	; 0x05
    2670:	78 7a       	andi	r23, 0xA8	; 168
    2672:	7a 7b       	andi	r23, 0xBA	; 186
    2674:	78 72       	andi	r23, 0x28	; 40
    2676:	7a 88       	ldd	r7, Y+18	; 0x12
    2678:	8f 84       	ldd	r8, Y+15	; 0x0f
    267a:	8c 7a       	andi	r24, 0xAC	; 172
    267c:	78 7c       	andi	r23, 0xC8	; 200
    267e:	8c 91       	ld	r24, X
    2680:	7f 8d       	ldd	r23, Y+31	; 0x1f
    2682:	81 79       	andi	r24, 0x91	; 145
    2684:	73 77       	andi	r23, 0x73	; 115
    2686:	78 85       	ldd	r23, Y+8	; 0x08
    2688:	77 7c       	andi	r23, 0xC7	; 199
    268a:	83 78       	andi	r24, 0x83	; 131
    268c:	7d 84       	ldd	r7, Y+13	; 0x0d
    268e:	90 7c       	andi	r25, 0xC0	; 192
    2690:	73 81       	ldd	r23, Z+3	; 0x03
    2692:	89 86       	std	Y+9, r8	; 0x09
    2694:	8e 83       	std	Y+6, r24	; 0x06
    2696:	7e 6f       	ori	r23, 0xFE	; 254
    2698:	78 7d       	andi	r23, 0xD8	; 216
    269a:	83 74       	andi	r24, 0x43	; 67
    269c:	77 77       	andi	r23, 0x77	; 119
    269e:	79 8c       	ldd	r7, Y+25	; 0x19
    26a0:	7c 81       	ldd	r23, Y+4	; 0x04
    26a2:	71 75       	andi	r23, 0x51	; 81
    26a4:	7d 8f       	std	Y+29, r23	; 0x1d
    26a6:	88 8e       	std	Y+24, r8	; 0x18
    26a8:	89 7d       	andi	r24, 0xD9	; 217
    26aa:	7b 7b       	andi	r23, 0xBB	; 187
    26ac:	82 7d       	andi	r24, 0xD2	; 210
    26ae:	76 78       	andi	r23, 0x86	; 134
    26b0:	81 7b       	andi	r24, 0xB1	; 177
    26b2:	80 7b       	andi	r24, 0xB0	; 176
    26b4:	8e 84       	ldd	r8, Y+14	; 0x0e
    26b6:	7c 88       	ldd	r7, Y+20	; 0x14
    26b8:	88 8d       	ldd	r24, Y+24	; 0x18
    26ba:	85 8f       	std	Z+29, r24	; 0x1d
    26bc:	83 7a       	andi	r24, 0xA3	; 163
    26be:	76 76       	andi	r23, 0x66	; 102
    26c0:	79 7b       	andi	r23, 0xB9	; 185
    26c2:	74 79       	andi	r23, 0x94	; 148
    26c4:	7e 76       	andi	r23, 0x6E	; 110
    26c6:	7f 8d       	ldd	r23, Y+31	; 0x1f
    26c8:	86 7b       	andi	r24, 0xB6	; 182
    26ca:	83 7d       	andi	r24, 0xD3	; 211
    26cc:	88 87       	std	Y+8, r24	; 0x08
    26ce:	91 81       	ldd	r25, Z+1	; 0x01
    26d0:	6a 77       	andi	r22, 0x7A	; 122
    26d2:	7b 86       	std	Y+11, r7	; 0x0b
    26d4:	82 7c       	andi	r24, 0xC2	; 194
    26d6:	74 76       	andi	r23, 0x64	; 100
    26d8:	7e 7f       	andi	r23, 0xFE	; 254
    26da:	8a 86       	std	Y+10, r8	; 0x0a
    26dc:	6f 78       	andi	r22, 0x8F	; 143
    26de:	83 8a       	std	Z+19, r8	; 0x13
    26e0:	85 89       	ldd	r24, Z+21	; 0x15
    26e2:	87 7a       	andi	r24, 0xA7	; 167
    26e4:	7a 82       	std	Y+2, r7	; 0x02
    26e6:	81 84       	ldd	r8, Z+9	; 0x09
    26e8:	80 7d       	andi	r24, 0xD0	; 208
    26ea:	8a 80       	ldd	r8, Y+2	; 0x02
    26ec:	81 7b       	andi	r24, 0xB1	; 177
    26ee:	85 77       	andi	r24, 0x75	; 117
    26f0:	77 7e       	andi	r23, 0xE7	; 231
    26f2:	86 87       	std	Z+14, r24	; 0x0e
    26f4:	8c 92       	st	X, r8
    26f6:	87 80       	ldd	r8, Z+7	; 0x07
    26f8:	7e 6f       	ori	r23, 0xFE	; 254
    26fa:	78 7e       	andi	r23, 0xE8	; 232
    26fc:	6d 7b       	andi	r22, 0xBD	; 189
    26fe:	6c 79       	andi	r22, 0x9C	; 156
    2700:	86 8b       	std	Z+22, r24	; 0x16
    2702:	85 7d       	andi	r24, 0xD5	; 213
    2704:	75 8d       	ldd	r23, Z+29	; 0x1d
    2706:	8b 8b       	std	Y+19, r24	; 0x13
    2708:	92 7a       	andi	r25, 0xA2	; 162
    270a:	73 78       	andi	r23, 0x83	; 131
    270c:	79 7d       	andi	r23, 0xD9	; 217
    270e:	7f 77       	andi	r23, 0x7F	; 127
    2710:	7f 79       	andi	r23, 0x9F	; 159
    2712:	83 81       	ldd	r24, Z+3	; 0x03
    2714:	82 7d       	andi	r24, 0xD2	; 210
    2716:	79 7b       	andi	r23, 0xB9	; 185
    2718:	88 85       	ldd	r24, Y+8	; 0x08
    271a:	8e 8e       	std	Y+30, r8	; 0x1e
    271c:	83 87       	std	Z+11, r24	; 0x0b
    271e:	7f 7d       	andi	r23, 0xDF	; 223
    2720:	78 83       	st	Y, r23
    2722:	76 7c       	andi	r23, 0xC6	; 198
    2724:	83 7e       	andi	r24, 0xE3	; 227
    2726:	85 7d       	andi	r24, 0xD5	; 213
    2728:	86 74       	andi	r24, 0x46	; 70
    272a:	75 74       	andi	r23, 0x45	; 69
    272c:	71 92       	st	Z+, r7
    272e:	84 83       	std	Z+4, r24	; 0x04
    2730:	85 79       	andi	r24, 0x95	; 149
    2732:	79 73       	andi	r23, 0x39	; 57
    2734:	85 7e       	andi	r24, 0xE5	; 229
    2736:	70 79       	andi	r23, 0x90	; 144
    2738:	73 7d       	andi	r23, 0xD3	; 211
    273a:	7e 89       	ldd	r23, Y+22	; 0x16
    273c:	79 7c       	andi	r23, 0xC9	; 201
    273e:	7e 89       	ldd	r23, Y+22	; 0x16
    2740:	91 8d       	ldd	r25, Z+25	; 0x19
    2742:	8f 75       	andi	r24, 0x5F	; 95
    2744:	7b 83       	std	Y+3, r23	; 0x03
    2746:	82 7c       	andi	r24, 0xC2	; 194
    2748:	81 6e       	ori	r24, 0xE1	; 225
    274a:	76 82       	std	Z+6, r7	; 0x06
    274c:	8c 82       	std	Y+4, r8	; 0x04
    274e:	88 87       	std	Y+8, r24	; 0x08
    2750:	77 82       	std	Z+7, r7	; 0x07
    2752:	87 97       	sbiw	r24, 0x27	; 39
    2754:	89 85       	ldd	r24, Y+9	; 0x09
    2756:	7c 77       	andi	r23, 0x7C	; 124
    2758:	75 77       	andi	r23, 0x75	; 117
    275a:	75 82       	std	Z+5, r7	; 0x05
    275c:	82 7b       	andi	r24, 0xB2	; 178
    275e:	85 7d       	andi	r24, 0xD5	; 213
    2760:	7b 85       	ldd	r23, Y+11	; 0x0b
    2762:	83 7a       	andi	r24, 0xA3	; 163
    2764:	7a 75       	andi	r23, 0x5A	; 90
    2766:	87 89       	ldd	r24, Z+23	; 0x17
    2768:	89 84       	ldd	r8, Y+9	; 0x09
    276a:	78 78       	andi	r23, 0x88	; 136
    276c:	77 81       	ldd	r23, Z+7	; 0x07
    276e:	84 75       	andi	r24, 0x54	; 84
    2770:	7e 7b       	andi	r23, 0xBE	; 190
    2772:	7b 8c       	ldd	r7, Y+27	; 0x1b
    2774:	85 86       	std	Z+13, r8	; 0x0d
    2776:	7a 77       	andi	r23, 0x7A	; 122
    2778:	7d 8f       	std	Y+29, r23	; 0x1d
    277a:	95 89       	ldd	r25, Z+21	; 0x15
    277c:	89 80       	ldd	r8, Y+1	; 0x01
    277e:	7d 7d       	andi	r23, 0xDD	; 221
    2780:	7d 86       	std	Y+13, r7	; 0x0d
    2782:	7e 68       	ori	r23, 0x8E	; 142
    2784:	78 75       	andi	r23, 0x58	; 88
    2786:	77 7a       	andi	r23, 0xA7	; 167
    2788:	74 86       	std	Z+12, r7	; 0x0c
    278a:	7d 81       	ldd	r23, Y+5	; 0x05
    278c:	91 89       	ldd	r25, Z+17	; 0x11
    278e:	8b 88       	ldd	r8, Y+19	; 0x13
    2790:	85 7f       	andi	r24, 0xF5	; 245
    2792:	79 73       	andi	r23, 0x39	; 57
    2794:	77 86       	std	Z+15, r7	; 0x0f
    2796:	6d 78       	andi	r22, 0x8D	; 141
    2798:	77 76       	andi	r23, 0x67	; 103
    279a:	80 8c       	ldd	r8, Z+24	; 0x18
    279c:	84 76       	andi	r24, 0x64	; 100
    279e:	80 78       	andi	r24, 0x80	; 128
    27a0:	8d 87       	std	Y+13, r24	; 0x0d
    27a2:	88 80       	ld	r8, Y
    27a4:	79 7c       	andi	r23, 0xC9	; 201
    27a6:	75 86       	std	Z+13, r7	; 0x0d
    27a8:	8a 73       	andi	r24, 0x3A	; 58
    27aa:	7c 83       	std	Y+4, r23	; 0x04
    27ac:	81 83       	std	Z+1, r24	; 0x01
    27ae:	89 91       	ld	r24, Y+
    27b0:	75 78       	andi	r23, 0x85	; 133
    27b2:	78 8c       	ldd	r7, Y+24	; 0x18
    27b4:	87 84       	ldd	r8, Z+15	; 0x0f
    27b6:	7e 7c       	andi	r23, 0xCE	; 206
    27b8:	82 7d       	andi	r24, 0xD2	; 210
    27ba:	80 7d       	andi	r24, 0xD0	; 208
    27bc:	71 74       	andi	r23, 0x41	; 65
    27be:	78 77       	andi	r23, 0x78	; 120
    27c0:	7e 77       	andi	r23, 0x7E	; 126
    27c2:	8c 7a       	andi	r24, 0xAC	; 172
    27c4:	78 75       	andi	r23, 0x58	; 88
    27c6:	85 8c       	ldd	r8, Z+29	; 0x1d
    27c8:	82 94       	swap	r8
    27ca:	86 7c       	andi	r24, 0xC6	; 198
    27cc:	83 7f       	andi	r24, 0xF3	; 243
    27ce:	82 89       	ldd	r24, Z+18	; 0x12
    27d0:	7b 79       	andi	r23, 0x9B	; 155
    27d2:	76 7b       	andi	r23, 0xB6	; 182
    27d4:	7c 95 87 79 	jmp	0x5cf30e	; 0x5cf30e <__TEXT_REGION_LENGTH__+0x5af30e>
    27d8:	7c 83       	std	Y+4, r23	; 0x04
    27da:	96 8e       	std	Z+30, r9	; 0x1e
    27dc:	93 86       	std	Z+11, r9	; 0x0b
    27de:	77 6f       	ori	r23, 0xF7	; 247
    27e0:	74 7d       	andi	r23, 0xD4	; 212
    27e2:	7a 74       	andi	r23, 0x4A	; 74
    27e4:	75 7e       	andi	r23, 0xE5	; 229
    27e6:	86 83       	std	Z+6, r24	; 0x06
    27e8:	92 82       	std	Z+2, r9	; 0x02
    27ea:	72 7a       	andi	r23, 0xA2	; 162
    27ec:	7a 90       	ld	r7, -Y
    27ee:	86 85       	ldd	r24, Z+14	; 0x0e
    27f0:	82 7c       	andi	r24, 0xC2	; 194
    27f2:	75 70       	andi	r23, 0x05	; 5
    27f4:	79 7d       	andi	r23, 0xD9	; 217
    27f6:	73 7a       	andi	r23, 0xA3	; 163
    27f8:	7d 7a       	andi	r23, 0xAD	; 173
    27fa:	82 81       	ldd	r24, Z+2	; 0x02
    27fc:	88 81       	ld	r24, Y
    27fe:	7a 7a       	andi	r23, 0xAA	; 170
    2800:	8e 8a       	std	Y+22, r8	; 0x16
    2802:	92 8c       	ldd	r9, Z+26	; 0x1a
    2804:	83 77       	andi	r24, 0x73	; 115
    2806:	7c 81       	ldd	r23, Y+4	; 0x04
    2808:	87 7d       	andi	r24, 0xD7	; 215
    280a:	7d 82       	std	Y+5, r7	; 0x05
    280c:	72 78       	andi	r23, 0x82	; 130
    280e:	7c 85       	ldd	r23, Y+12	; 0x0c
    2810:	75 79       	andi	r23, 0x95	; 149
    2812:	6d 8a       	std	Y+21, r6	; 0x15
    2814:	86 8b       	std	Z+22, r24	; 0x16
    2816:	8e 7c       	andi	r24, 0xCE	; 206
    2818:	7d 78       	andi	r23, 0x8D	; 141
    281a:	7e 83       	std	Y+6, r23	; 0x06
    281c:	7c 6f       	ori	r23, 0xFC	; 252
    281e:	7c 7a       	andi	r23, 0xAC	; 172
    2820:	7e 7a       	andi	r23, 0xAE	; 174
    2822:	8c 80       	ldd	r8, Y+4	; 0x04
    2824:	79 85       	ldd	r23, Y+9	; 0x09
    2826:	7d 91       	ld	r23, X+
    2828:	8e 8b       	std	Y+22, r24	; 0x16
    282a:	80 80       	ld	r8, Z
    282c:	7f 74       	andi	r23, 0x4F	; 79
    282e:	7c 77       	andi	r23, 0x7C	; 124
    2830:	75 7a       	andi	r23, 0xA5	; 165
    2832:	7d 7b       	andi	r23, 0xBD	; 189
    2834:	7c 88       	ldd	r7, Y+20	; 0x14
    2836:	85 79       	andi	r24, 0x95	; 149
    2838:	81 7a       	andi	r24, 0xA1	; 161
    283a:	89 7b       	andi	r24, 0xB9	; 185
    283c:	84 8a       	std	Z+20, r8	; 0x14
    283e:	6d 79       	andi	r22, 0x9D	; 157
    2840:	75 86       	std	Z+13, r7	; 0x0d
    2842:	85 7e       	andi	r24, 0xE5	; 229
    2844:	7c 73       	andi	r23, 0x3C	; 60
    2846:	73 82       	std	Z+3, r7	; 0x03
    2848:	85 91       	lpm	r24, Z+
    284a:	78 78       	andi	r23, 0x88	; 136
    284c:	79 8f       	std	Y+25, r23	; 0x19
    284e:	8d 84       	ldd	r8, Y+13	; 0x0d
    2850:	90 7a       	andi	r25, 0xA0	; 160
    2852:	82 7d       	andi	r24, 0xD2	; 210
    2854:	84 86       	std	Z+12, r8	; 0x0c
    2856:	84 7a       	andi	r24, 0xA4	; 164
    2858:	84 84       	ldd	r8, Z+12	; 0x0c
    285a:	7b 76       	andi	r23, 0x6B	; 107
    285c:	89 76       	andi	r24, 0x69	; 105
    285e:	7c 81       	ldd	r23, Y+4	; 0x04
    2860:	87 93       	lat	Z, r24
    2862:	88 90       	.word	0x9088	; ????
    2864:	81 81       	ldd	r24, Z+1	; 0x01
    2866:	81 7b       	andi	r24, 0xB1	; 177
    2868:	80 78       	andi	r24, 0x80	; 128
    286a:	6a 7e       	andi	r22, 0xEA	; 234
    286c:	72 72       	andi	r23, 0x22	; 34
    286e:	7c 8d       	ldd	r23, Y+28	; 0x1c
    2870:	81 7c       	andi	r24, 0xC1	; 193
    2872:	76 7c       	andi	r23, 0xC6	; 198
    2874:	86 87       	std	Z+14, r24	; 0x0e
    2876:	8d 81       	ldd	r24, Y+5	; 0x05
    2878:	79 73       	andi	r23, 0x39	; 57
    287a:	76 80       	ldd	r7, Z+6	; 0x06
    287c:	7f 6d       	ori	r23, 0xDF	; 223
    287e:	7b 77       	andi	r23, 0x7B	; 123
    2880:	7e 83       	std	Y+6, r23	; 0x06
    2882:	89 81       	ldd	r24, Y+1	; 0x01
    2884:	81 79       	andi	r24, 0x91	; 145
    2886:	86 8d       	ldd	r24, Z+30	; 0x1e
    2888:	87 8f       	std	Z+31, r24	; 0x1f
    288a:	82 83       	std	Z+2, r24	; 0x02
    288c:	7a 82       	std	Y+2, r7	; 0x02
    288e:	83 89       	ldd	r24, Z+19	; 0x13
    2890:	79 79       	andi	r23, 0x99	; 153
    2892:	7e 80       	ldd	r7, Y+6	; 0x06
    2894:	85 87       	std	Z+13, r24	; 0x0d
    2896:	87 6f       	ori	r24, 0xF7	; 247
    2898:	76 7b       	andi	r23, 0xB6	; 182
    289a:	75 87       	std	Z+13, r23	; 0x0d
    289c:	89 7f       	andi	r24, 0xF9	; 249
    289e:	85 7a       	andi	r24, 0xA5	; 165
    28a0:	7d 75       	andi	r23, 0x5D	; 93
    28a2:	7b 82       	std	Y+3, r7	; 0x03
    28a4:	72 7f       	andi	r23, 0xF2	; 242
    28a6:	76 78       	andi	r23, 0x86	; 134
    28a8:	7e 8e       	std	Y+30, r7	; 0x1e
    28aa:	77 76       	andi	r23, 0x67	; 103
    28ac:	79 7d       	andi	r23, 0xD9	; 217
    28ae:	92 86       	std	Z+10, r9	; 0x0a
    28b0:	94 7c       	andi	r25, 0xC4	; 196
    28b2:	7b 7b       	andi	r23, 0xBB	; 187
    28b4:	80 88       	ldd	r8, Z+16	; 0x10
    28b6:	7d 72       	andi	r23, 0x2D	; 45
    28b8:	76 75       	andi	r23, 0x56	; 86
    28ba:	7d 87       	std	Y+13, r23	; 0x0d
    28bc:	8f 89       	ldd	r24, Y+23	; 0x17
    28be:	78 7c       	andi	r23, 0xC8	; 200
    28c0:	77 9a       	sbi	0x0e, 7	; 14
    28c2:	92 8d       	ldd	r25, Z+26	; 0x1a
    28c4:	85 72       	andi	r24, 0x25	; 37
    28c6:	77 79       	andi	r23, 0x97	; 151
    28c8:	81 78       	andi	r24, 0x81	; 129
    28ca:	7e 85       	ldd	r23, Y+14	; 0x0e
    28cc:	80 7d       	andi	r24, 0xD0	; 208
    28ce:	7a 81       	ldd	r23, Y+2	; 0x02
    28d0:	83 7b       	andi	r24, 0xB3	; 179
    28d2:	83 74       	andi	r24, 0x43	; 67
    28d4:	88 8a       	std	Y+16, r8	; 0x10
    28d6:	80 8f       	std	Z+24, r24	; 0x18
    28d8:	78 7e       	andi	r23, 0xE8	; 232
    28da:	76 7b       	andi	r23, 0xB6	; 182
    28dc:	89 7a       	andi	r24, 0xA9	; 169
    28de:	83 81       	ldd	r24, Z+3	; 0x03
    28e0:	7c 87       	std	Y+12, r23	; 0x0c
    28e2:	8a 87       	std	Y+10, r24	; 0x0a
    28e4:	7c 71       	andi	r23, 0x1C	; 28
    28e6:	76 7e       	andi	r23, 0xE6	; 230
    28e8:	92 8d       	ldd	r25, Z+26	; 0x1a
    28ea:	8e 83       	std	Y+6, r24	; 0x06
    28ec:	76 78       	andi	r23, 0x86	; 134
    28ee:	77 8a       	std	Z+23, r7	; 0x17
    28f0:	7e 75       	andi	r23, 0x5E	; 94
    28f2:	75 6e       	ori	r23, 0xE5	; 229
    28f4:	73 7e       	andi	r23, 0xE3	; 227
    28f6:	7a 77       	andi	r23, 0x7A	; 122
    28f8:	82 80       	ldd	r8, Z+2	; 0x02
    28fa:	8a 8b       	std	Y+18, r24	; 0x12
    28fc:	8b 83       	std	Y+3, r24	; 0x03
    28fe:	84 84       	ldd	r8, Z+12	; 0x0c
    2900:	79 7b       	andi	r23, 0xB9	; 185
    2902:	7e 7b       	andi	r23, 0xBE	; 190
    2904:	6e 7c       	andi	r22, 0xCE	; 206
    2906:	73 76       	andi	r23, 0x63	; 99
    2908:	7d 86       	std	Y+13, r7	; 0x0d
    290a:	84 79       	andi	r24, 0x94	; 148
    290c:	86 7a       	andi	r24, 0xA6	; 166
    290e:	8c 8d       	ldd	r24, Y+28	; 0x1c
    2910:	81 88       	ldd	r8, Z+17	; 0x11
    2912:	78 78       	andi	r23, 0x88	; 136
    2914:	77 7a       	andi	r23, 0xA7	; 167
    2916:	8a 7f       	andi	r24, 0xFA	; 250
    2918:	82 7f       	andi	r24, 0xF2	; 242
    291a:	7a 7f       	andi	r23, 0xFA	; 250
    291c:	8a 9a       	sbi	0x11, 2	; 17
    291e:	84 7f       	andi	r24, 0xF4	; 244
    2920:	74 7d       	andi	r23, 0xD4	; 212
    2922:	8c 86       	std	Y+12, r8	; 0x0c
    2924:	8c 78       	andi	r24, 0x8C	; 140
    2926:	82 7f       	andi	r24, 0xF2	; 242
    2928:	7b 80       	ldd	r7, Y+3	; 0x03
    292a:	70 72       	andi	r23, 0x20	; 32
    292c:	75 7b       	andi	r23, 0xB5	; 181
    292e:	7c 7e       	andi	r23, 0xEC	; 236
    2930:	8a 76       	andi	r24, 0x6A	; 106
    2932:	75 76       	andi	r23, 0x65	; 101
    2934:	76 90       	elpm	r7, Z
    2936:	7f 8c       	ldd	r7, Y+31	; 0x1f
    2938:	88 77       	andi	r24, 0x78	; 120
    293a:	7f 7f       	andi	r23, 0xFF	; 255
    293c:	87 89       	ldd	r24, Z+23	; 0x17
    293e:	7d 7d       	andi	r23, 0xDD	; 221
    2940:	6e 74       	andi	r22, 0x4E	; 78
    2942:	7d 86       	std	Y+13, r7	; 0x0d
    2944:	8a 7d       	andi	r24, 0xDA	; 218
    2946:	80 76       	andi	r24, 0x60	; 96
    2948:	8e 8a       	std	Y+22, r8	; 0x16
    294a:	91 93       	st	Z+, r25
    294c:	83 7c       	andi	r24, 0xC3	; 195
    294e:	71 75       	andi	r23, 0x51	; 81
    2950:	7d 7d       	andi	r23, 0xDD	; 221
    2952:	7b 7c       	andi	r23, 0xCB	; 203
    2954:	88 8a       	std	Y+16, r8	; 0x10
    2956:	88 84       	ldd	r8, Y+8	; 0x08
    2958:	6d 77       	andi	r22, 0x7D	; 125
    295a:	74 92       	xch	Z, r7
    295c:	92 85       	ldd	r25, Z+10	; 0x0a
    295e:	8a 76       	andi	r24, 0x6A	; 106
    2960:	7d 7a       	andi	r23, 0xAD	; 173
    2962:	78 80       	ld	r7, Y
    2964:	73 77       	andi	r23, 0x73	; 115
    2966:	7d 79       	andi	r23, 0x9D	; 157
    2968:	84 81       	ldd	r24, Z+4	; 0x04
    296a:	8c 84       	ldd	r8, Y+12	; 0x0c
    296c:	7c 75       	andi	r23, 0x5C	; 92
    296e:	7c 88       	ldd	r7, Y+20	; 0x14
    2970:	86 8c       	ldd	r8, Z+30	; 0x1e
    2972:	87 80       	ldd	r8, Z+7	; 0x07
    2974:	7e 7c       	andi	r23, 0xCE	; 206
    2976:	81 76       	andi	r24, 0x61	; 97
    2978:	7d 8b       	std	Y+21, r23	; 0x15
    297a:	79 7d       	andi	r23, 0xD9	; 217
    297c:	77 7c       	andi	r23, 0xC7	; 199
    297e:	70 7f       	andi	r23, 0xF0	; 240
    2980:	75 7a       	andi	r23, 0xA5	; 165
    2982:	91 80       	ldd	r9, Z+1	; 0x01
    2984:	8c 7e       	andi	r24, 0xEC	; 236
    2986:	79 7c       	andi	r23, 0xC9	; 201
    2988:	7c 89       	ldd	r23, Y+20	; 0x14
    298a:	7d 78       	andi	r23, 0x8D	; 141
    298c:	7d 72       	andi	r23, 0x2D	; 45
    298e:	7e 7d       	andi	r23, 0xDE	; 222
    2990:	88 89       	ldd	r24, Y+16	; 0x10
    2992:	76 7e       	andi	r23, 0xE6	; 230
    2994:	7d 83       	std	Y+5, r23	; 0x05
    2996:	95 91       	lpm	r25, Z+
    2998:	8d 82       	std	Y+5, r8	; 0x05
    299a:	7c 7b       	andi	r23, 0xBC	; 188
    299c:	74 79       	andi	r23, 0x94	; 148
    299e:	77 78       	andi	r23, 0x87	; 135
    29a0:	80 81       	ld	r24, Z
    29a2:	7f 84       	ldd	r7, Y+15	; 0x0f
    29a4:	85 75       	andi	r24, 0x55	; 85
    29a6:	7f 7e       	andi	r23, 0xEF	; 239
    29a8:	87 8c       	ldd	r8, Z+31	; 0x1f
    29aa:	7a 87       	std	Y+10, r23	; 0x0a
    29ac:	74 76       	andi	r23, 0x64	; 100
    29ae:	7b 7f       	andi	r23, 0xFB	; 251
    29b0:	8d 7d       	andi	r24, 0xDD	; 221
    29b2:	78 77       	andi	r23, 0x78	; 120
    29b4:	6c 7b       	andi	r22, 0xBC	; 188
    29b6:	86 92       	lac	Z, r8
    29b8:	78 7c       	andi	r23, 0xC8	; 200
    29ba:	72 73       	andi	r23, 0x32	; 50
    29bc:	95 82       	std	Z+5, r9	; 0x05
    29be:	8e 83       	std	Y+6, r24	; 0x06
    29c0:	78 7b       	andi	r23, 0xB8	; 184
    29c2:	7b 81       	ldd	r23, Y+3	; 0x03
    29c4:	88 80       	ld	r8, Y
    29c6:	89 81       	ldd	r24, Y+1	; 0x01
    29c8:	7e 80       	ldd	r7, Y+6	; 0x06
    29ca:	81 7c       	andi	r24, 0xC1	; 193
    29cc:	73 7b       	andi	r23, 0xB3	; 179
    29ce:	80 97       	sbiw	r24, 0x20	; 32
    29d0:	8d 8a       	std	Y+21, r8	; 0x15
    29d2:	87 79       	andi	r24, 0x97	; 151
    29d4:	83 85       	ldd	r24, Z+11	; 0x0b
    29d6:	88 84       	ldd	r8, Y+8	; 0x08
    29d8:	6a 78       	andi	r22, 0x8A	; 138
    29da:	7a 7a       	andi	r23, 0xAA	; 170
    29dc:	84 8c       	ldd	r8, Z+28	; 0x1c
    29de:	88 7a       	andi	r24, 0xA8	; 168
    29e0:	73 6f       	ori	r23, 0xF3	; 243
    29e2:	82 89       	ldd	r24, Z+18	; 0x12
    29e4:	8a 8c       	ldd	r8, Y+26	; 0x1a
    29e6:	7d 79       	andi	r23, 0x9D	; 157
    29e8:	72 77       	andi	r23, 0x72	; 114
    29ea:	7f 6e       	ori	r23, 0xEF	; 239
    29ec:	7b 7d       	andi	r23, 0xDB	; 219
    29ee:	76 80       	ldd	r7, Z+6	; 0x06
    29f0:	85 7b       	andi	r24, 0xB5	; 181
    29f2:	82 80       	ldd	r8, Z+2	; 0x02
    29f4:	81 8b       	std	Z+17, r24	; 0x11
    29f6:	85 89       	ldd	r24, Z+21	; 0x15
    29f8:	7e 84       	ldd	r7, Y+14	; 0x0e
    29fa:	78 7a       	andi	r23, 0xA8	; 168
    29fc:	87 84       	ldd	r8, Z+15	; 0x0f
    29fe:	7c 7b       	andi	r23, 0xBC	; 188
    2a00:	7c 7a       	andi	r23, 0xAC	; 172
    2a02:	82 8a       	std	Z+18, r8	; 0x12
    2a04:	8b 7b       	andi	r24, 0xBB	; 187
    2a06:	6c 70       	andi	r22, 0x0C	; 12
    2a08:	79 82       	std	Y+1, r7	; 0x01
    2a0a:	8f 85       	ldd	r24, Y+15	; 0x0f
    2a0c:	88 7d       	andi	r24, 0xD8	; 216
    2a0e:	78 79       	andi	r23, 0x98	; 152
    2a10:	77 7e       	andi	r23, 0xE7	; 231
    2a12:	7c 81       	ldd	r23, Y+4	; 0x04
    2a14:	7d 7b       	andi	r23, 0xBD	; 189
    2a16:	7f 88       	ldd	r7, Y+23	; 0x17
    2a18:	80 75       	andi	r24, 0x50	; 80
    2a1a:	79 79       	andi	r23, 0x99	; 153
    2a1c:	8a 8c       	ldd	r8, Y+26	; 0x1a
    2a1e:	8d 8a       	std	Y+21, r8	; 0x15
    2a20:	7c 81       	ldd	r23, Y+4	; 0x04
    2a22:	81 88       	ldd	r8, Z+17	; 0x11
    2a24:	84 70       	andi	r24, 0x04	; 4
    2a26:	75 75       	andi	r23, 0x55	; 85
    2a28:	74 86       	std	Z+12, r7	; 0x0c
    2a2a:	91 8e       	std	Z+25, r9	; 0x19
    2a2c:	7b 78       	andi	r23, 0x8B	; 139
    2a2e:	72 84       	ldd	r7, Z+10	; 0x0a
    2a30:	97 8e       	std	Z+31, r9	; 0x1f
    2a32:	92 7e       	andi	r25, 0xE2	; 226
    2a34:	6e 74       	andi	r22, 0x4E	; 78
    2a36:	80 7d       	andi	r24, 0xD0	; 208
    2a38:	7a 85       	ldd	r23, Y+10	; 0x0a
    2a3a:	82 74       	andi	r24, 0x42	; 66
    2a3c:	7b 7c       	andi	r23, 0xCB	; 203
    2a3e:	82 78       	andi	r24, 0x82	; 130
    2a40:	7c 79       	andi	r23, 0x9C	; 156
    2a42:	76 93       	lac	Z, r23
    2a44:	7f 8b       	std	Y+23, r23	; 0x17
    2a46:	85 74       	andi	r24, 0x45	; 69
    2a48:	7f 7d       	andi	r23, 0xDF	; 223
    2a4a:	7e 7f       	andi	r23, 0xFE	; 254
    2a4c:	7a 84       	ldd	r7, Y+10	; 0x0a
    2a4e:	80 83       	st	Z, r24
    2a50:	94 85       	ldd	r25, Z+12	; 0x0c
    2a52:	82 6f       	ori	r24, 0xF2	; 242
    2a54:	73 77       	andi	r23, 0x73	; 115
    2a56:	85 91       	lpm	r24, Z+
    2a58:	8d 92       	st	X+, r8
    2a5a:	7c 75       	andi	r23, 0x5C	; 92
    2a5c:	7a 7e       	andi	r23, 0xEA	; 234
    2a5e:	7d 7f       	andi	r23, 0xFD	; 253
    2a60:	7f 78       	andi	r23, 0x8F	; 143
    2a62:	6f 81       	ldd	r22, Y+7	; 0x07
    2a64:	82 77       	andi	r24, 0x72	; 114
    2a66:	86 83       	std	Z+6, r24	; 0x06
    2a68:	85 85       	ldd	r24, Z+13	; 0x0d
    2a6a:	83 84       	ldd	r8, Z+11	; 0x0b
    2a6c:	85 81       	ldd	r24, Z+5	; 0x05
    2a6e:	7b 7e       	andi	r23, 0xEB	; 235
    2a70:	7c 7b       	andi	r23, 0xBC	; 188
    2a72:	70 7b       	andi	r23, 0xB0	; 176
    2a74:	77 70       	andi	r23, 0x07	; 7
    2a76:	7e 86       	std	Y+14, r7	; 0x0e
    2a78:	82 77       	andi	r24, 0x72	; 114
    2a7a:	7a 79       	andi	r23, 0x9A	; 154
    2a7c:	81 90       	ld	r8, Z+
    2a7e:	87 89       	ldd	r24, Z+23	; 0x17
    2a80:	81 75       	andi	r24, 0x51	; 81
    2a82:	7e 7c       	andi	r23, 0xCE	; 206
    2a84:	7e 7f       	andi	r23, 0xFE	; 254
    2a86:	84 85       	ldd	r24, Z+12	; 0x0c
    2a88:	7f 7c       	andi	r23, 0xCF	; 207
    2a8a:	89 8e       	std	Y+25, r8	; 0x19
    2a8c:	85 82       	std	Z+5, r8	; 0x05
    2a8e:	7d 78       	andi	r23, 0x8D	; 141
    2a90:	84 89       	ldd	r24, Z+20	; 0x14
    2a92:	91 88       	ldd	r9, Z+17	; 0x11
    2a94:	7e 88       	ldd	r7, Y+22	; 0x16
    2a96:	7f 7d       	andi	r23, 0xDF	; 223
    2a98:	72 75       	andi	r23, 0x52	; 82
    2a9a:	7a 74       	andi	r23, 0x4A	; 74
    2a9c:	7b 82       	std	Y+3, r7	; 0x03
    2a9e:	87 7f       	andi	r24, 0xF7	; 247
    2aa0:	72 75       	andi	r23, 0x52	; 82
    2aa2:	6c 80       	ldd	r6, Y+4	; 0x04
    2aa4:	8b 80       	ldd	r8, Y+3	; 0x03
    2aa6:	8f 79       	andi	r24, 0x9F	; 159
    2aa8:	74 84       	ldd	r7, Z+12	; 0x0c
    2aaa:	84 8b       	std	Z+20, r24	; 0x14
    2aac:	81 84       	ldd	r8, Z+9	; 0x09
    2aae:	72 6b       	ori	r23, 0xB2	; 178
    2ab0:	82 81       	ldd	r24, Z+2	; 0x02
    2ab2:	86 78       	andi	r24, 0x86	; 134
    2ab4:	81 75       	andi	r24, 0x51	; 81
    2ab6:	82 8d       	ldd	r24, Z+26	; 0x1a
    2ab8:	86 8e       	std	Z+30, r8	; 0x1e
    2aba:	83 82       	std	Z+3, r8	; 0x03
    2abc:	80 7b       	andi	r24, 0xB0	; 176
    2abe:	73 7d       	andi	r23, 0xD3	; 211
    2ac0:	7f 7e       	andi	r23, 0xEF	; 239
    2ac2:	83 8d       	ldd	r24, Z+27	; 0x1b
    2ac4:	88 83       	st	Y, r24
    2ac6:	6f 76       	andi	r22, 0x6F	; 111
    2ac8:	75 77       	andi	r23, 0x75	; 117
    2aca:	95 86       	std	Z+13, r9	; 0x0d
    2acc:	8b 85       	ldd	r24, Y+11	; 0x0b
    2ace:	7b 7f       	andi	r23, 0xFB	; 251
    2ad0:	7a 7e       	andi	r23, 0xEA	; 234
    2ad2:	7d 7a       	andi	r23, 0xAD	; 173
    2ad4:	7c 78       	andi	r23, 0x8C	; 140
    2ad6:	80 87       	std	Z+8, r24	; 0x08
    2ad8:	8a 8e       	std	Y+26, r8	; 0x1a
    2ada:	83 76       	andi	r24, 0x63	; 99
    2adc:	73 84       	ldd	r7, Z+11	; 0x0b
    2ade:	88 86       	std	Y+8, r8	; 0x08
    2ae0:	86 81       	ldd	r24, Z+6	; 0x06
    2ae2:	82 86       	std	Z+10, r8	; 0x0a
    2ae4:	7d 76       	andi	r23, 0x6D	; 109
    2ae6:	7c 7b       	andi	r23, 0xBC	; 188
    2ae8:	7c 83       	std	Y+4, r23	; 0x04
    2aea:	84 85       	ldd	r24, Z+12	; 0x0c
    2aec:	6e 7c       	andi	r22, 0xCE	; 206
    2aee:	78 70       	andi	r23, 0x08	; 8
    2af0:	8f 84       	ldd	r8, Y+15	; 0x0f
    2af2:	88 7f       	andi	r24, 0xF8	; 248
    2af4:	75 7c       	andi	r23, 0xC5	; 197
    2af6:	77 7b       	andi	r23, 0xB7	; 183
    2af8:	7f 78       	andi	r23, 0x8F	; 143
    2afa:	7e 7c       	andi	r23, 0xCE	; 206
    2afc:	79 7e       	andi	r23, 0xE9	; 233
    2afe:	85 86       	std	Z+13, r8	; 0x0d
    2b00:	81 79       	andi	r24, 0x91	; 145
    2b02:	76 79       	andi	r23, 0x96	; 150
    2b04:	84 96       	adiw	r24, 0x24	; 36
    2b06:	8b 89       	ldd	r24, Y+19	; 0x13
    2b08:	83 78       	andi	r24, 0x83	; 131
    2b0a:	7d 78       	andi	r23, 0x8D	; 141
    2b0c:	7f 7c       	andi	r23, 0xCF	; 207
    2b0e:	75 83       	std	Z+5, r23	; 0x05
    2b10:	85 8f       	std	Z+29, r24	; 0x1d
    2b12:	8c 80       	ldd	r8, Y+4	; 0x04
    2b14:	7c 73       	andi	r23, 0x3C	; 60
    2b16:	7d 93       	st	X+, r23
    2b18:	87 89       	ldd	r24, Z+23	; 0x17
    2b1a:	80 73       	andi	r24, 0x30	; 48
    2b1c:	7c 82       	std	Y+4, r7	; 0x04
    2b1e:	8f 82       	std	Y+7, r8	; 0x07
    2b20:	7e 74       	andi	r23, 0x4E	; 78
    2b22:	6f 78       	andi	r22, 0x8F	; 143
    2b24:	85 8b       	std	Z+21, r24	; 0x15
    2b26:	81 77       	andi	r24, 0x71	; 113
    2b28:	76 75       	andi	r23, 0x56	; 86
    2b2a:	89 83       	std	Y+1, r24	; 0x01
    2b2c:	7e 8a       	std	Y+22, r7	; 0x16
    2b2e:	7b 77       	andi	r23, 0x7B	; 123
    2b30:	79 7a       	andi	r23, 0xA9	; 169
    2b32:	82 7f       	andi	r24, 0xF2	; 242
    2b34:	83 8b       	std	Z+19, r24	; 0x13
    2b36:	7c 82       	std	Y+4, r7	; 0x04
    2b38:	81 85       	ldd	r24, Z+9	; 0x09
    2b3a:	75 6f       	ori	r23, 0xF5	; 245
    2b3c:	75 87       	std	Z+13, r23	; 0x0d
    2b3e:	94 89       	ldd	r25, Z+20	; 0x14
    2b40:	8d 7d       	andi	r24, 0xDD	; 221
    2b42:	7b 7c       	andi	r23, 0xCB	; 203
    2b44:	83 85       	ldd	r24, Z+11	; 0x0b
    2b46:	78 79       	andi	r23, 0x98	; 152
    2b48:	77 7b       	andi	r23, 0xB7	; 183
    2b4a:	81 8e       	std	Z+25, r8	; 0x19
    2b4c:	89 83       	std	Y+1, r24	; 0x01
    2b4e:	79 6b       	ori	r23, 0xB9	; 185
    2b50:	79 88       	ldd	r7, Y+17	; 0x11
    2b52:	86 83       	std	Z+6, r24	; 0x06
    2b54:	88 7b       	andi	r24, 0xB8	; 184
    2b56:	7e 83       	std	Y+6, r23	; 0x06
    2b58:	7b 73       	andi	r23, 0x3B	; 59
    2b5a:	76 80       	ldd	r7, Z+6	; 0x06
    2b5c:	7a 7c       	andi	r23, 0xCA	; 202
    2b5e:	84 82       	std	Z+4, r8	; 0x04
    2b60:	80 84       	ldd	r8, Z+8	; 0x08
    2b62:	80 8b       	std	Z+16, r24	; 0x10
    2b64:	85 87       	std	Z+13, r24	; 0x0d
    2b66:	89 87       	std	Y+9, r24	; 0x09
    2b68:	7f 75       	andi	r23, 0x5F	; 95
    2b6a:	7f 82       	std	Y+7, r7	; 0x07
    2b6c:	7f 7e       	andi	r23, 0xEF	; 239
    2b6e:	78 75       	andi	r23, 0x58	; 88
    2b70:	7a 7d       	andi	r23, 0xDA	; 218
    2b72:	91 86       	std	Z+9, r9	; 0x09
    2b74:	79 70       	andi	r23, 0x09	; 9
    2b76:	74 79       	andi	r23, 0x94	; 148
    2b78:	88 8c       	ldd	r8, Y+24	; 0x18
    2b7a:	88 84       	ldd	r8, Y+8	; 0x08
    2b7c:	73 76       	andi	r23, 0x63	; 99
    2b7e:	75 79       	andi	r23, 0x95	; 149
    2b80:	77 72       	andi	r23, 0x27	; 39
    2b82:	7a 7b       	andi	r23, 0xBA	; 186
    2b84:	81 95       	neg	r24
    2b86:	85 79       	andi	r24, 0x95	; 149
    2b88:	72 75       	andi	r23, 0x52	; 82
    2b8a:	81 8b       	std	Z+17, r24	; 0x11
    2b8c:	89 8c       	ldd	r8, Y+25	; 0x19
    2b8e:	83 7d       	andi	r24, 0xD3	; 211
    2b90:	88 85       	ldd	r24, Y+8	; 0x08
    2b92:	80 74       	andi	r24, 0x40	; 64
    2b94:	7c 7a       	andi	r23, 0xAC	; 172
    2b96:	78 7e       	andi	r23, 0xE8	; 232
    2b98:	8d 95 8b 82 	jmp	0x630516	; 0x630516 <__TEXT_REGION_LENGTH__+0x610516>
    2b9c:	76 7e       	andi	r23, 0xE6	; 230
    2b9e:	8e 84       	ldd	r8, Y+14	; 0x0e
    2ba0:	8f 8b       	std	Y+23, r24	; 0x17
    2ba2:	79 7c       	andi	r23, 0xC9	; 201
    2ba4:	7b 84       	ldd	r7, Y+11	; 0x0b
    2ba6:	7b 85       	ldd	r23, Y+11	; 0x0b
    2ba8:	84 79       	andi	r24, 0x94	; 148
    2baa:	7b 7a       	andi	r23, 0xAB	; 171
    2bac:	88 80       	ld	r8, Y
    2bae:	76 73       	andi	r23, 0x36	; 54
    2bb0:	71 88       	ldd	r7, Z+17	; 0x11
    2bb2:	8b 8e       	std	Y+27, r8	; 0x1b
    2bb4:	85 6f       	ori	r24, 0xF5	; 245
    2bb6:	7b 7d       	andi	r23, 0xDB	; 219
    2bb8:	7a 78       	andi	r23, 0x8A	; 138
    2bba:	7a 7e       	andi	r23, 0xEA	; 234
    2bbc:	81 7a       	andi	r24, 0xA1	; 161
    2bbe:	8f 8b       	std	Y+23, r24	; 0x17
    2bc0:	82 78       	andi	r24, 0x82	; 130
    2bc2:	73 77       	andi	r23, 0x73	; 115
    2bc4:	74 87       	std	Z+12, r23	; 0x0c
    2bc6:	83 91       	.word	0x9183	; ????
    2bc8:	83 7d       	andi	r24, 0xD3	; 211
    2bca:	7f 7b       	andi	r23, 0xBF	; 191
    2bcc:	79 76       	andi	r23, 0x69	; 105
    2bce:	83 79       	andi	r24, 0x93	; 147
    2bd0:	76 7e       	andi	r23, 0xE6	; 230
    2bd2:	80 7c       	andi	r24, 0xC0	; 192
    2bd4:	84 89       	ldd	r24, Z+20	; 0x14
    2bd6:	7e 86       	std	Y+14, r7	; 0x0e
    2bd8:	85 87       	std	Z+13, r24	; 0x0d
    2bda:	8c 81       	ldd	r24, Y+4	; 0x04
    2bdc:	7b 7b       	andi	r23, 0xBB	; 187
    2bde:	7f 7a       	andi	r23, 0xAF	; 175
    2be0:	78 84       	ldd	r7, Y+8	; 0x08
    2be2:	78 6e       	ori	r23, 0xE8	; 232
    2be4:	7b 89       	ldd	r23, Y+19	; 0x13
    2be6:	88 7b       	andi	r24, 0xB8	; 184
    2be8:	7e 7e       	andi	r23, 0xEE	; 238
    2bea:	7a 89       	ldd	r23, Y+18	; 0x12
    2bec:	90 8a       	std	Z+16, r9	; 0x10
    2bee:	84 79       	andi	r24, 0x94	; 148
    2bf0:	87 7e       	andi	r24, 0xE7	; 231
    2bf2:	7a 7c       	andi	r23, 0xCA	; 202
    2bf4:	7b 84       	ldd	r7, Y+11	; 0x0b
    2bf6:	7e 7f       	andi	r23, 0xFE	; 254
    2bf8:	87 8e       	std	Z+31, r8	; 0x1f
    2bfa:	83 7d       	andi	r24, 0xD3	; 211
    2bfc:	7e 75       	andi	r23, 0x5E	; 94
    2bfe:	7e 8a       	std	Y+22, r7	; 0x16
    2c00:	89 87       	std	Y+9, r24	; 0x09
    2c02:	7d 83       	std	Y+5, r23	; 0x05
    2c04:	82 7c       	andi	r24, 0xC2	; 194
    2c06:	75 75       	andi	r23, 0x55	; 85
    2c08:	78 72       	andi	r23, 0x28	; 40
    2c0a:	74 79       	andi	r23, 0x94	; 148
    2c0c:	8c 85       	ldd	r24, Y+12	; 0x0c
    2c0e:	81 7b       	andi	r24, 0xB1	; 177
    2c10:	6b 6f       	ori	r22, 0xFB	; 251
    2c12:	87 86       	std	Z+15, r8	; 0x0f
    2c14:	88 82       	st	Y, r8
    2c16:	75 86       	std	Z+13, r7	; 0x0d
    2c18:	81 86       	std	Z+9, r8	; 0x09
    2c1a:	8a 80       	ldd	r8, Y+2	; 0x02
    2c1c:	76 6f       	ori	r23, 0xF6	; 246
    2c1e:	81 86       	std	Z+9, r8	; 0x09
    2c20:	87 7f       	andi	r24, 0xF7	; 247
    2c22:	7d 7c       	andi	r23, 0xCD	; 205
    2c24:	7a 92       	st	-Y, r7
    2c26:	8e 8c       	ldd	r8, Y+30	; 0x1e
    2c28:	84 78       	andi	r24, 0x84	; 132
    2c2a:	86 79       	andi	r24, 0x96	; 150
    2c2c:	7a 81       	ldd	r23, Y+2	; 0x02
    2c2e:	7b 7c       	andi	r23, 0xCB	; 203
    2c30:	7b 8e       	std	Y+27, r7	; 0x1b
    2c32:	8d 8b       	std	Y+21, r24	; 0x15
    2c34:	7d 75       	andi	r23, 0x5D	; 93
    2c36:	7a 70       	andi	r23, 0x0A	; 10
    2c38:	81 86       	std	Z+9, r8	; 0x09
    2c3a:	86 88       	ldd	r8, Z+22	; 0x16
    2c3c:	7f 84       	ldd	r7, Y+15	; 0x0f
    2c3e:	77 6f       	ori	r23, 0xF7	; 247
    2c40:	7b 79       	andi	r23, 0x9B	; 155
    2c42:	79 74       	andi	r23, 0x49	; 73
    2c44:	80 86       	std	Z+8, r8	; 0x08
    2c46:	87 8d       	ldd	r24, Z+31	; 0x1f
    2c48:	8b 7b       	andi	r24, 0xBB	; 187
    2c4a:	6f 7a       	andi	r22, 0xAF	; 175
    2c4c:	8b 85       	ldd	r24, Y+11	; 0x0b
    2c4e:	84 7e       	andi	r24, 0xE4	; 228
    2c50:	7a 87       	std	Y+10, r23	; 0x0a
    2c52:	7f 82       	std	Y+7, r7	; 0x07
    2c54:	80 7d       	andi	r24, 0xD0	; 208
    2c56:	77 79       	andi	r23, 0x97	; 151
    2c58:	84 8a       	std	Z+20, r8	; 0x14
    2c5a:	81 7d       	andi	r24, 0xD1	; 209
    2c5c:	7d 6f       	ori	r23, 0xFD	; 253
    2c5e:	84 8b       	std	Z+20, r24	; 0x14
    2c60:	87 87       	std	Z+15, r24	; 0x0f
    2c62:	79 7e       	andi	r23, 0xE9	; 233
    2c64:	7f 76       	andi	r23, 0x6F	; 111
    2c66:	80 76       	andi	r24, 0x60	; 96
    2c68:	7a 77       	andi	r23, 0x7A	; 122
    2c6a:	79 81       	ldd	r23, Y+1	; 0x01
    2c6c:	7f 82       	std	Y+7, r7	; 0x07
    2c6e:	85 83       	std	Z+5, r24	; 0x05
    2c70:	72 79       	andi	r23, 0x92	; 146
    2c72:	7e 91       	ld	r23, -X
    2c74:	8f 84       	ldd	r8, Y+15	; 0x0f
    2c76:	8b 7a       	andi	r24, 0xAB	; 171
    2c78:	7a 7b       	andi	r23, 0xBA	; 186
    2c7a:	78 7f       	andi	r23, 0xF8	; 248
    2c7c:	72 75       	andi	r23, 0x52	; 82
    2c7e:	7f 8e       	std	Y+31, r7	; 0x1f
    2c80:	90 8b       	std	Z+16, r25	; 0x10
    2c82:	83 73       	andi	r24, 0x33	; 51
    2c84:	75 83       	std	Z+5, r23	; 0x05
    2c86:	8f 83       	std	Y+7, r24	; 0x07
    2c88:	8d 73       	andi	r24, 0x3D	; 61
    2c8a:	73 80       	ldd	r7, Z+3	; 0x03
    2c8c:	86 8a       	std	Z+22, r8	; 0x16
    2c8e:	81 77       	andi	r24, 0x71	; 113
    2c90:	71 77       	andi	r23, 0x71	; 113
    2c92:	81 8b       	std	Z+17, r24	; 0x11
    2c94:	85 80       	ldd	r8, Z+5	; 0x05
    2c96:	76 75       	andi	r23, 0x56	; 86
    2c98:	7e 90       	ld	r7, -X
    2c9a:	7c 81       	ldd	r23, Y+4	; 0x04
    2c9c:	80 7c       	andi	r24, 0xC0	; 192
    2c9e:	7d 76       	andi	r23, 0x6D	; 109
    2ca0:	86 85       	ldd	r24, Z+14	; 0x0e
    2ca2:	7c 87       	std	Y+12, r23	; 0x0c
    2ca4:	81 80       	ldd	r8, Z+1	; 0x01
    2ca6:	83 84       	ldd	r8, Z+11	; 0x0b
    2ca8:	88 71       	andi	r24, 0x18	; 24
    2caa:	76 77       	andi	r23, 0x76	; 118
    2cac:	8c 91       	ld	r24, X
    2cae:	8b 8d       	ldd	r24, Y+27	; 0x1b
    2cb0:	7c 7f       	andi	r23, 0xFC	; 252
    2cb2:	7c 7b       	andi	r23, 0xBC	; 188
    2cb4:	7f 79       	andi	r23, 0x9F	; 159
    2cb6:	7a 7b       	andi	r23, 0xBA	; 186
    2cb8:	75 87       	std	Z+13, r23	; 0x0d
    2cba:	89 8c       	ldd	r8, Y+25	; 0x19
    2cbc:	84 70       	andi	r24, 0x04	; 4
    2cbe:	76 7c       	andi	r23, 0xC6	; 198
    2cc0:	8a 80       	ldd	r8, Y+2	; 0x02
    2cc2:	84 79       	andi	r24, 0x94	; 148
    2cc4:	79 80       	ldd	r7, Y+1	; 0x01
    2cc6:	77 7c       	andi	r23, 0xC7	; 199
    2cc8:	6f 72       	andi	r22, 0x2F	; 47
    2cca:	7a 81       	ldd	r23, Y+2	; 0x02
    2ccc:	7f 83       	std	Y+7, r23	; 0x07
    2cce:	85 85       	ldd	r24, Z+13	; 0x0d
    2cd0:	81 87       	std	Z+9, r24	; 0x09
    2cd2:	89 87       	std	Y+9, r24	; 0x09
    2cd4:	87 85       	ldd	r24, Z+15	; 0x0f
    2cd6:	84 79       	andi	r24, 0x94	; 148
    2cd8:	7a 7b       	andi	r23, 0xBA	; 186
    2cda:	7f 83       	std	Y+7, r23	; 0x07
    2cdc:	7c 7b       	andi	r23, 0xBC	; 188
    2cde:	7f 7c       	andi	r23, 0xCF	; 207
    2ce0:	8b 87       	std	Y+11, r24	; 0x0b
    2ce2:	84 78       	andi	r24, 0x84	; 132
    2ce4:	7a 79       	andi	r23, 0x9A	; 154
    2ce6:	7d 91       	ld	r23, X+
    2ce8:	82 8a       	std	Z+18, r8	; 0x12
    2cea:	7b 7b       	andi	r23, 0xBB	; 187
    2cec:	79 73       	andi	r23, 0x39	; 57
    2cee:	7a 75       	andi	r23, 0x5A	; 90
    2cf0:	73 74       	andi	r23, 0x43	; 67
    2cf2:	7d 8b       	std	Y+21, r23	; 0x15
    2cf4:	88 83       	st	Y, r24
    2cf6:	70 70       	andi	r23, 0x00	; 0
    2cf8:	7a 8b       	std	Y+18, r23	; 0x12
    2cfa:	8c 85       	ldd	r24, Y+12	; 0x0c
    2cfc:	8b 74       	andi	r24, 0x4B	; 75
    2cfe:	8b 86       	std	Y+11, r8	; 0x0b
    2d00:	85 7b       	andi	r24, 0xB5	; 181
    2d02:	73 76       	andi	r23, 0x63	; 99
    2d04:	76 7d       	andi	r23, 0xD6	; 214
    2d06:	82 8d       	ldd	r24, Z+26	; 0x1a
    2d08:	8d 8a       	std	Y+21, r8	; 0x15
    2d0a:	7d 81       	ldd	r23, Y+5	; 0x05
    2d0c:	7f 8c       	ldd	r7, Y+31	; 0x1f
    2d0e:	88 8c       	ldd	r8, Y+24	; 0x18
    2d10:	81 7c       	andi	r24, 0xC1	; 193
    2d12:	81 7c       	andi	r24, 0xC1	; 193
    2d14:	80 80       	ld	r8, Z
    2d16:	85 7d       	andi	r24, 0xD5	; 213
    2d18:	7b 7d       	andi	r23, 0xDB	; 219
    2d1a:	83 88       	ldd	r8, Z+19	; 0x13
    2d1c:	7a 7c       	andi	r23, 0xCA	; 202
    2d1e:	74 74       	andi	r23, 0x44	; 68
    2d20:	91 86       	std	Z+9, r9	; 0x09
    2d22:	86 81       	ldd	r24, Z+6	; 0x06
    2d24:	72 7d       	andi	r23, 0xD2	; 210
    2d26:	79 7f       	andi	r23, 0xF9	; 249
    2d28:	7d 78       	andi	r23, 0x8D	; 141
    2d2a:	83 7b       	andi	r24, 0xB3	; 179
    2d2c:	8a 8d       	ldd	r24, Y+26	; 0x1a
    2d2e:	81 83       	std	Z+1, r24	; 0x01
    2d30:	71 77       	andi	r23, 0x71	; 113
    2d32:	72 83       	std	Z+2, r23	; 0x02
    2d34:	86 80       	ldd	r8, Z+6	; 0x06
    2d36:	8c 7d       	andi	r24, 0xDC	; 220
    2d38:	83 80       	ldd	r8, Z+3	; 0x03
    2d3a:	75 78       	andi	r23, 0x85	; 133
    2d3c:	7b 73       	andi	r23, 0x3B	; 59
    2d3e:	76 7d       	andi	r23, 0xD6	; 214
    2d40:	83 7c       	andi	r24, 0xC3	; 195
    2d42:	80 89       	ldd	r24, Z+16	; 0x10
    2d44:	84 84       	ldd	r8, Z+12	; 0x0c
    2d46:	81 86       	std	Z+9, r8	; 0x09
    2d48:	87 87       	std	Z+15, r24	; 0x0f
    2d4a:	78 7c       	andi	r23, 0xC8	; 200
    2d4c:	78 74       	andi	r23, 0x48	; 72
    2d4e:	80 7b       	andi	r24, 0xB0	; 176
    2d50:	76 77       	andi	r23, 0x76	; 118
    2d52:	73 80       	ldd	r7, Z+3	; 0x03
    2d54:	8f 86       	std	Y+15, r8	; 0x0f
    2d56:	7b 7d       	andi	r23, 0xDB	; 219
    2d58:	7d 84       	ldd	r7, Y+13	; 0x0d
    2d5a:	96 89       	ldd	r25, Z+22	; 0x16
    2d5c:	88 7b       	andi	r24, 0xB8	; 184
    2d5e:	7d 7e       	andi	r23, 0xED	; 237
    2d60:	79 83       	std	Y+1, r23	; 0x01
    2d62:	79 7c       	andi	r23, 0xC9	; 201
    2d64:	7d 7f       	andi	r23, 0xFD	; 253
    2d66:	89 96       	adiw	r24, 0x29	; 41
    2d68:	87 85       	ldd	r24, Z+15	; 0x0f
    2d6a:	7f 76       	andi	r23, 0x6F	; 111
    2d6c:	7e 85       	ldd	r23, Y+14	; 0x0e
    2d6e:	92 85       	ldd	r25, Z+10	; 0x0a
    2d70:	81 80       	ldd	r8, Z+1	; 0x01
    2d72:	84 84       	ldd	r8, Z+12	; 0x0c
    2d74:	77 79       	andi	r23, 0x97	; 151
    2d76:	73 6e       	ori	r23, 0xE3	; 227
    2d78:	76 77       	andi	r23, 0x76	; 118
    2d7a:	81 81       	ldd	r24, Z+1	; 0x01
    2d7c:	82 78       	andi	r24, 0x82	; 130
    2d7e:	71 72       	andi	r23, 0x21	; 33
    2d80:	7b 8a       	std	Y+19, r7	; 0x13
    2d82:	82 85       	ldd	r24, Z+10	; 0x0a
    2d84:	6d 7b       	andi	r22, 0xBD	; 189
    2d86:	7f 84       	ldd	r7, Y+15	; 0x0f
    2d88:	92 7d       	andi	r25, 0xD2	; 210
    2d8a:	7a 72       	andi	r23, 0x2A	; 42
    2d8c:	77 84       	ldd	r7, Z+15	; 0x0f
    2d8e:	8f 85       	ldd	r24, Y+15	; 0x0f
    2d90:	7d 7d       	andi	r23, 0xDD	; 221
    2d92:	7b 8a       	std	Y+19, r7	; 0x13
    2d94:	97 8c       	ldd	r9, Z+31	; 0x1f
    2d96:	86 7d       	andi	r24, 0xD6	; 214
    2d98:	82 7b       	andi	r24, 0xB2	; 178
    2d9a:	76 84       	ldd	r7, Z+14	; 0x0e
    2d9c:	7f 81       	ldd	r23, Y+7	; 0x07
    2d9e:	7b 89       	ldd	r23, Y+19	; 0x13
    2da0:	90 88       	ldd	r9, Z+16	; 0x10
    2da2:	84 77       	andi	r24, 0x74	; 116
    2da4:	79 73       	andi	r23, 0x39	; 57
    2da6:	79 8f       	std	Y+25, r23	; 0x19
    2da8:	82 83       	std	Z+2, r24	; 0x02
    2daa:	85 7b       	andi	r24, 0xB5	; 181
    2dac:	7f 72       	andi	r23, 0x2F	; 47
    2dae:	77 7e       	andi	r23, 0xE7	; 231
    2db0:	73 75       	andi	r23, 0x53	; 83
    2db2:	78 7e       	andi	r23, 0xE8	; 232
    2db4:	88 8e       	std	Y+24, r8	; 0x18
    2db6:	8c 7c       	andi	r24, 0xCC	; 204
    2db8:	77 75       	andi	r23, 0x57	; 87
    2dba:	85 8b       	std	Z+21, r24	; 0x15
    2dbc:	88 82       	st	Y, r8
    2dbe:	76 80       	ldd	r7, Z+6	; 0x06
    2dc0:	7b 7e       	andi	r23, 0xEB	; 235
    2dc2:	85 7c       	andi	r24, 0xC5	; 197
    2dc4:	72 7a       	andi	r23, 0xA2	; 162
    2dc6:	7b 85       	ldd	r23, Y+11	; 0x0b
    2dc8:	84 7b       	andi	r24, 0xB4	; 180
    2dca:	85 77       	andi	r24, 0x75	; 117
    2dcc:	7e 8c       	ldd	r7, Y+30	; 0x1e
    2dce:	8b 89       	ldd	r24, Y+19	; 0x13
    2dd0:	7e 7b       	andi	r23, 0xBE	; 190
    2dd2:	7f 72       	andi	r23, 0x2F	; 47
    2dd4:	7d 79       	andi	r23, 0x9D	; 157
    2dd6:	70 73       	andi	r23, 0x30	; 48
    2dd8:	79 7d       	andi	r23, 0xD9	; 217
    2dda:	86 8c       	ldd	r8, Z+30	; 0x1e
    2ddc:	81 86       	std	Z+9, r8	; 0x09
    2dde:	76 7a       	andi	r23, 0xA6	; 166
    2de0:	7b 94       	des	7
    2de2:	97 8a       	std	Z+23, r9	; 0x17
    2de4:	8d 7d       	andi	r24, 0xDD	; 221
    2de6:	7b 7a       	andi	r23, 0xAB	; 171
    2de8:	78 7e       	andi	r23, 0xE8	; 232
    2dea:	76 75       	andi	r23, 0x56	; 86
    2dec:	7c 83       	std	Y+4, r23	; 0x04
    2dee:	8c 86       	std	Y+12, r8	; 0x0c
    2df0:	89 7c       	andi	r24, 0xC9	; 201
    2df2:	77 80       	ldd	r7, Z+7	; 0x07
    2df4:	8e 80       	ldd	r8, Y+6	; 0x06
    2df6:	89 7b       	andi	r24, 0xB9	; 185
    2df8:	77 81       	ldd	r23, Z+7	; 0x07
    2dfa:	80 87       	std	Z+8, r24	; 0x08
    2dfc:	84 76       	andi	r24, 0x64	; 100
    2dfe:	6c 7b       	andi	r22, 0xBC	; 188
    2e00:	7a 88       	ldd	r7, Y+18	; 0x12
    2e02:	83 7d       	andi	r24, 0xD3	; 211
    2e04:	72 71       	andi	r23, 0x12	; 18
    2e06:	7b 92       	.word	0x927b	; ????
    2e08:	88 81       	ld	r24, Y
    2e0a:	7e 79       	andi	r23, 0x9E	; 158
    2e0c:	7c 72       	andi	r23, 0x2C	; 44
    2e0e:	7d 86       	std	Y+13, r7	; 0x0d
    2e10:	7e 83       	std	Y+6, r23	; 0x06
    2e12:	82 7c       	andi	r24, 0xC2	; 194
    2e14:	86 7f       	andi	r24, 0xF6	; 246
    2e16:	84 7d       	andi	r24, 0xD4	; 212
    2e18:	7f 78       	andi	r23, 0x8F	; 143
    2e1a:	89 90       	ld	r8, Y+
    2e1c:	86 8e       	std	Z+30, r8	; 0x1e
    2e1e:	84 87       	std	Z+12, r24	; 0x0c
    2e20:	7d 7d       	andi	r23, 0xDD	; 221
    2e22:	7e 75       	andi	r23, 0x5E	; 94
    2e24:	7a 83       	std	Y+2, r23	; 0x02
    2e26:	7f 89       	ldd	r23, Y+23	; 0x17
    2e28:	8a 89       	ldd	r24, Y+18	; 0x12
    2e2a:	84 74       	andi	r24, 0x44	; 68
    2e2c:	77 7e       	andi	r23, 0xE7	; 231
    2e2e:	8d 82       	std	Y+5, r8	; 0x05
    2e30:	83 7a       	andi	r24, 0xA3	; 163
    2e32:	75 78       	andi	r23, 0x85	; 133
    2e34:	77 7f       	andi	r23, 0xF7	; 247
    2e36:	78 75       	andi	r23, 0x58	; 88
    2e38:	74 7c       	andi	r23, 0xC4	; 196
    2e3a:	78 7d       	andi	r23, 0xD8	; 216
    2e3c:	7f 84       	ldd	r7, Y+15	; 0x0f
    2e3e:	82 84       	ldd	r8, Z+10	; 0x0a
    2e40:	87 87       	std	Z+15, r24	; 0x0f
    2e42:	88 80       	ld	r8, Y
    2e44:	81 82       	std	Z+1, r8	; 0x01
    2e46:	80 78       	andi	r24, 0x80	; 128
    2e48:	7e 7d       	andi	r23, 0xDE	; 222
    2e4a:	75 7a       	andi	r23, 0xA5	; 165
    2e4c:	85 7f       	andi	r24, 0xF5	; 245
    2e4e:	84 82       	std	Z+4, r8	; 0x04
    2e50:	7c 76       	andi	r23, 0x6C	; 108
    2e52:	7b 7f       	andi	r23, 0xFB	; 251
    2e54:	8b 96       	adiw	r24, 0x2b	; 43
    2e56:	7f 88       	ldd	r7, Y+23	; 0x17
    2e58:	7f 7b       	andi	r23, 0xBF	; 191
    2e5a:	7d 78       	andi	r23, 0x8D	; 141
    2e5c:	7e 74       	andi	r23, 0x4E	; 78
    2e5e:	6e 75       	andi	r22, 0x5E	; 94
    2e60:	74 84       	ldd	r7, Z+12	; 0x0c
    2e62:	88 82       	st	Y, r8
    2e64:	7e 74       	andi	r23, 0x4E	; 78
    2e66:	78 8b       	std	Y+16, r23	; 0x10
    2e68:	8b 84       	ldd	r8, Y+11	; 0x0b
    2e6a:	86 7a       	andi	r24, 0xA6	; 166
    2e6c:	8c 81       	ldd	r24, Y+4	; 0x04
    2e6e:	88 81       	ld	r24, Y
    2e70:	6e 75       	andi	r22, 0x5E	; 94
    2e72:	76 83       	std	Z+6, r23	; 0x06
    2e74:	8a 89       	ldd	r24, Y+18	; 0x12
    2e76:	83 7e       	andi	r24, 0xE3	; 227
    2e78:	78 7f       	andi	r23, 0xF8	; 248
    2e7a:	8f 97       	sbiw	r24, 0x2f	; 47
    2e7c:	85 87       	std	Z+13, r24	; 0x0d
    2e7e:	7a 78       	andi	r23, 0x8A	; 138
    2e80:	7c 80       	ldd	r7, Y+4	; 0x04
    2e82:	8b 81       	ldd	r24, Y+3	; 0x03
    2e84:	82 7d       	andi	r24, 0xD2	; 210
    2e86:	7b 7a       	andi	r23, 0xAB	; 171
    2e88:	84 82       	std	Z+4, r8	; 0x04
    2e8a:	7c 76       	andi	r23, 0x6C	; 108
    2e8c:	6f 7c       	andi	r22, 0xCF	; 207
    2e8e:	8b 83       	std	Y+3, r24	; 0x03
    2e90:	89 80       	ldd	r8, Y+1	; 0x01
    2e92:	7b 7d       	andi	r23, 0xDB	; 219
    2e94:	75 83       	std	Z+5, r23	; 0x05
    2e96:	77 73       	andi	r23, 0x37	; 55
    2e98:	83 7e       	andi	r24, 0xE3	; 227
    2e9a:	8d 8c       	ldd	r8, Y+29	; 0x1d
    2e9c:	82 7d       	andi	r24, 0xD2	; 210
    2e9e:	71 79       	andi	r23, 0x91	; 145
    2ea0:	75 92       	las	Z, r7
    2ea2:	8d 83       	std	Y+5, r24	; 0x05
    2ea4:	86 78       	andi	r24, 0x86	; 134
    2ea6:	7e 7b       	andi	r23, 0xBE	; 190
    2ea8:	85 7c       	andi	r24, 0xC5	; 197
    2eaa:	74 75       	andi	r23, 0x54	; 84
    2eac:	74 77       	andi	r23, 0x74	; 116
    2eae:	83 83       	std	Z+3, r24	; 0x03
    2eb0:	87 86       	std	Z+15, r8	; 0x0f
    2eb2:	86 83       	std	Z+6, r24	; 0x06
    2eb4:	89 8e       	std	Y+25, r8	; 0x19
    2eb6:	85 89       	ldd	r24, Z+21	; 0x15
    2eb8:	7c 76       	andi	r23, 0x6C	; 108
    2eba:	72 75       	andi	r23, 0x52	; 82
    2ebc:	79 76       	andi	r23, 0x69	; 105
    2ebe:	78 79       	andi	r23, 0x98	; 152
    2ec0:	79 86       	std	Y+9, r7	; 0x09
    2ec2:	85 7f       	andi	r24, 0xF5	; 245
    2ec4:	7a 75       	andi	r23, 0x5A	; 90
    2ec6:	7d 7f       	andi	r23, 0xFD	; 253
    2ec8:	95 88       	ldd	r9, Z+21	; 0x15
    2eca:	81 7f       	andi	r24, 0xF1	; 241
    2ecc:	79 7c       	andi	r23, 0xC9	; 201
    2ece:	7c 84       	ldd	r7, Y+12	; 0x0c
    2ed0:	7d 78       	andi	r23, 0x8D	; 141
    2ed2:	80 79       	andi	r24, 0x90	; 144
    2ed4:	8c 94 88 87 	jmp	0x210f10	; 0x210f10 <__TEXT_REGION_LENGTH__+0x1f0f10>
    2ed8:	7a 79       	andi	r23, 0x9A	; 154
    2eda:	79 7a       	andi	r23, 0xA9	; 169
    2edc:	8b 93       	.word	0x938b	; ????
    2ede:	8a 8d       	ldd	r24, Y+26	; 0x1a
    2ee0:	85 82       	std	Z+5, r8	; 0x05
    2ee2:	7c 79       	andi	r23, 0x9C	; 156
    2ee4:	73 74       	andi	r23, 0x43	; 67
    2ee6:	72 76       	andi	r23, 0x62	; 98
    2ee8:	80 7c       	andi	r24, 0xC0	; 192
    2eea:	7e 76       	andi	r23, 0x6E	; 110
    2eec:	77 78       	andi	r23, 0x87	; 135
    2eee:	7c 82       	std	Y+4, r7	; 0x04
    2ef0:	87 84       	ldd	r8, Z+15	; 0x0f
    2ef2:	86 74       	andi	r24, 0x46	; 70
    2ef4:	7c 84       	ldd	r7, Y+12	; 0x0c
    2ef6:	85 7f       	andi	r24, 0xF5	; 245
    2ef8:	72 78       	andi	r23, 0x82	; 130
    2efa:	70 7e       	andi	r23, 0xE0	; 224
    2efc:	88 86       	std	Y+8, r8	; 0x08
    2efe:	87 7e       	andi	r24, 0xE7	; 231
    2f00:	7c 81       	ldd	r23, Y+4	; 0x04
    2f02:	7f 85       	ldd	r23, Y+15	; 0x0f
    2f04:	92 88       	ldd	r9, Z+18	; 0x12
    2f06:	87 7c       	andi	r24, 0xC7	; 199
    2f08:	72 7a       	andi	r23, 0xA2	; 162
    2f0a:	7c 85       	ldd	r23, Y+12	; 0x0c
    2f0c:	7e 88       	ldd	r7, Y+22	; 0x16
    2f0e:	8d 8a       	std	Y+21, r8	; 0x15
    2f10:	8b 83       	std	Y+3, r24	; 0x03
    2f12:	7b 75       	andi	r23, 0x5B	; 91
    2f14:	76 78       	andi	r23, 0x86	; 134
    2f16:	75 80       	ldd	r7, Z+5	; 0x05
    2f18:	8a 86       	std	Y+10, r8	; 0x0a
    2f1a:	8c 82       	std	Y+4, r8	; 0x04
    2f1c:	7e 7b       	andi	r23, 0xBE	; 190
    2f1e:	74 78       	andi	r23, 0x84	; 132
    2f20:	75 7b       	andi	r23, 0xB5	; 181
    2f22:	7e 88       	ldd	r7, Y+22	; 0x16
    2f24:	90 82       	st	Z, r9
    2f26:	81 77       	andi	r24, 0x71	; 113
    2f28:	79 78       	andi	r23, 0x89	; 137
    2f2a:	7a 88       	ldd	r7, Y+18	; 0x12
    2f2c:	90 92 8d 87 	sts	0x878D, r9	; 0x80878d <__bss_end+0x8689>
    2f30:	80 7f       	andi	r24, 0xF0	; 240
    2f32:	7a 7b       	andi	r23, 0xBA	; 186
    2f34:	77 72       	andi	r23, 0x27	; 39
    2f36:	76 7c       	andi	r23, 0xC6	; 198
    2f38:	84 84       	ldd	r8, Z+12	; 0x0c
    2f3a:	8c 86       	std	Y+12, r8	; 0x0c
    2f3c:	82 7f       	andi	r24, 0xF2	; 242
    2f3e:	76 7b       	andi	r23, 0xB6	; 182
    2f40:	81 88       	ldd	r8, Z+17	; 0x11
    2f42:	82 7f       	andi	r24, 0xF2	; 242
    2f44:	73 73       	andi	r23, 0x33	; 51
    2f46:	71 72       	andi	r23, 0x21	; 33
    2f48:	76 76       	andi	r23, 0x66	; 102
    2f4a:	7b 81       	ldd	r23, Y+3	; 0x03
    2f4c:	82 7c       	andi	r24, 0xC2	; 194
    2f4e:	7c 78       	andi	r23, 0x8C	; 140
    2f50:	79 86       	std	Y+9, r7	; 0x09
    2f52:	86 82       	std	Z+6, r8	; 0x06
    2f54:	87 88       	ldd	r8, Z+23	; 0x17
    2f56:	88 85       	ldd	r24, Y+8	; 0x08
    2f58:	83 7b       	andi	r24, 0xB3	; 179
    2f5a:	7f 7b       	andi	r23, 0xBF	; 191
    2f5c:	7a 7b       	andi	r23, 0xBA	; 186
    2f5e:	83 83       	std	Z+3, r24	; 0x03
    2f60:	87 87       	std	Z+15, r24	; 0x0f
    2f62:	7a 7c       	andi	r23, 0xCA	; 202
    2f64:	72 77       	andi	r23, 0x72	; 114
    2f66:	83 85       	ldd	r24, Z+11	; 0x0b
    2f68:	96 98       	cbi	0x12, 6	; 18
    2f6a:	8d 8e       	std	Y+29, r8	; 0x1d
    2f6c:	84 81       	ldd	r24, Z+4	; 0x04
    2f6e:	79 76       	andi	r23, 0x69	; 105
    2f70:	7a 76       	andi	r23, 0x6A	; 106
    2f72:	76 7e       	andi	r23, 0xE6	; 230
    2f74:	81 80       	ldd	r8, Z+1	; 0x01
    2f76:	80 7f       	andi	r24, 0xF0	; 240
    2f78:	7f 80       	ldd	r7, Y+7	; 0x07
    2f7a:	7f 76       	andi	r23, 0x6F	; 111
    2f7c:	80 82       	st	Z, r8
    2f7e:	90 8c       	ldd	r9, Z+24	; 0x18
    2f80:	84 80       	ldd	r8, Z+4	; 0x04
    2f82:	72 77       	andi	r23, 0x72	; 114
    2f84:	71 79       	andi	r23, 0x91	; 145
    2f86:	7d 7c       	andi	r23, 0xCD	; 205
    2f88:	85 86       	std	Z+13, r8	; 0x0d
    2f8a:	7f 81       	ldd	r23, Y+7	; 0x07
    2f8c:	82 79       	andi	r24, 0x92	; 146
    2f8e:	7f 7d       	andi	r23, 0xDF	; 223
    2f90:	77 82       	std	Z+7, r7	; 0x07
    2f92:	82 85       	ldd	r24, Z+10	; 0x0a
    2f94:	84 86       	std	Z+12, r8	; 0x0c
    2f96:	8a 87       	std	Y+10, r24	; 0x0a
    2f98:	81 72       	andi	r24, 0x21	; 33
    2f9a:	79 73       	andi	r23, 0x39	; 57
    2f9c:	78 7d       	andi	r23, 0xD8	; 216
    2f9e:	7a 70       	andi	r23, 0x0A	; 10
    2fa0:	73 77       	andi	r23, 0x73	; 115
    2fa2:	75 7d       	andi	r23, 0xD5	; 213
    2fa4:	7f 82       	std	Y+7, r7	; 0x07
    2fa6:	8e 8a       	std	Y+22, r8	; 0x16
    2fa8:	88 82       	st	Y, r8
    2faa:	7b 81       	ldd	r23, Y+3	; 0x03
    2fac:	7b 90       	.word	0x907b	; ????
    2fae:	83 7f       	andi	r24, 0xF3	; 243
    2fb0:	80 78       	andi	r24, 0x80	; 128
    2fb2:	7c 85       	ldd	r23, Y+12	; 0x0c
    2fb4:	81 87       	std	Z+9, r24	; 0x09
    2fb6:	88 82       	st	Y, r8
    2fb8:	84 85       	ldd	r24, Z+12	; 0x0c
    2fba:	93 8a       	std	Z+19, r9	; 0x13
    2fbc:	8f 85       	ldd	r24, Y+15	; 0x0f
    2fbe:	7c 77       	andi	r23, 0x7C	; 124
    2fc0:	79 7d       	andi	r23, 0xD9	; 217
    2fc2:	89 83       	std	Y+1, r24	; 0x01
    2fc4:	87 8e       	std	Z+31, r8	; 0x1f
    2fc6:	81 81       	ldd	r24, Z+1	; 0x01
    2fc8:	77 79       	andi	r23, 0x97	; 151
    2fca:	72 73       	andi	r23, 0x32	; 50
    2fcc:	75 6f       	ori	r23, 0xF5	; 245
    2fce:	80 84       	ldd	r8, Z+8	; 0x08
    2fd0:	81 86       	std	Z+9, r8	; 0x09
    2fd2:	7f 79       	andi	r23, 0x9F	; 159
    2fd4:	7e 79       	andi	r23, 0x9E	; 158
    2fd6:	71 75       	andi	r23, 0x51	; 81
    2fd8:	7a 75       	andi	r23, 0x5A	; 90
    2fda:	7e 88       	ldd	r7, Y+22	; 0x16
    2fdc:	7c 7d       	andi	r23, 0xDC	; 220
    2fde:	75 76       	andi	r23, 0x65	; 101
    2fe0:	7b 78       	andi	r23, 0x8B	; 139
    2fe2:	84 8f       	std	Z+28, r24	; 0x1c
    2fe4:	92 8d       	ldd	r25, Z+26	; 0x1a
    2fe6:	87 85       	ldd	r24, Z+15	; 0x0f
    2fe8:	83 7f       	andi	r24, 0xF3	; 243
    2fea:	80 7d       	andi	r24, 0xD0	; 208
    2fec:	74 7a       	andi	r23, 0xA4	; 164
    2fee:	78 7f       	andi	r23, 0xF8	; 248
    2ff0:	88 8c       	ldd	r8, Y+24	; 0x18
    2ff2:	8d 8c       	ldd	r8, Y+29	; 0x1d
    2ff4:	85 77       	andi	r24, 0x75	; 117
    2ff6:	7f 84       	ldd	r7, Y+15	; 0x0f
    2ff8:	8a 86       	std	Y+10, r8	; 0x0a
    2ffa:	81 78       	andi	r24, 0x81	; 129
    2ffc:	77 7c       	andi	r23, 0xC7	; 199
    2ffe:	7b 7c       	andi	r23, 0xCB	; 203
    3000:	79 78       	andi	r23, 0x89	; 137
    3002:	82 80       	ldd	r8, Z+2	; 0x02
    3004:	74 7c       	andi	r23, 0xC4	; 196
    3006:	7c 7c       	andi	r23, 0xCC	; 204
    3008:	85 82       	std	Z+5, r8	; 0x05
    300a:	83 82       	std	Z+3, r8	; 0x03
    300c:	7d 85       	ldd	r23, Y+13	; 0x0d
    300e:	7f 7f       	andi	r23, 0xFF	; 255
    3010:	7b 81       	ldd	r23, Y+3	; 0x03
    3012:	81 7e       	andi	r24, 0xE1	; 225
    3014:	7d 7e       	andi	r23, 0xED	; 237
    3016:	80 7c       	andi	r24, 0xC0	; 192
    3018:	82 7c       	andi	r24, 0xC2	; 194
    301a:	79 76       	andi	r23, 0x69	; 105
    301c:	73 7e       	andi	r23, 0xE3	; 227
    301e:	89 8b       	std	Y+17, r24	; 0x11
    3020:	92 8c       	ldd	r9, Z+26	; 0x1a
    3022:	87 83       	std	Z+7, r24	; 0x07
    3024:	7b 80       	ldd	r7, Y+3	; 0x03
    3026:	79 7f       	andi	r23, 0xF9	; 249
    3028:	7c 76       	andi	r23, 0x6C	; 108
    302a:	7f 80       	ldd	r7, Y+7	; 0x07
    302c:	83 81       	ldd	r24, Z+3	; 0x03
    302e:	7c 81       	ldd	r23, Y+4	; 0x04
    3030:	84 80       	ldd	r8, Z+4	; 0x04
    3032:	73 79       	andi	r23, 0x93	; 147
    3034:	81 7c       	andi	r24, 0xC1	; 193
    3036:	8b 87       	std	Y+11, r24	; 0x0b
    3038:	86 7d       	andi	r24, 0xD6	; 214
    303a:	77 84       	ldd	r7, Z+15	; 0x0f
    303c:	7d 7e       	andi	r23, 0xED	; 237
    303e:	7f 87       	std	Y+15, r23	; 0x0f
    3040:	89 80       	ldd	r8, Y+1	; 0x01
    3042:	83 85       	ldd	r24, Z+11	; 0x0b
    3044:	7b 81       	ldd	r23, Y+3	; 0x03
    3046:	83 7d       	andi	r24, 0xD3	; 211
    3048:	7a 79       	andi	r23, 0x9A	; 154
    304a:	7a 80       	ldd	r7, Y+2	; 0x02
    304c:	84 8b       	std	Z+20, r24	; 0x14
    304e:	8d 8b       	std	Y+21, r24	; 0x15
    3050:	84 77       	andi	r24, 0x74	; 116
    3052:	7f 79       	andi	r23, 0x9F	; 159
    3054:	7b 7e       	andi	r23, 0xEB	; 235
    3056:	72 73       	andi	r23, 0x32	; 50
    3058:	78 83       	st	Y, r23
    305a:	85 77       	andi	r24, 0x75	; 117
    305c:	79 7d       	andi	r23, 0xD9	; 217
    305e:	83 81       	ldd	r24, Z+3	; 0x03
    3060:	77 7c       	andi	r23, 0xC7	; 199
    3062:	7c 7c       	andi	r23, 0xCC	; 204
    3064:	8a 85       	ldd	r24, Y+10	; 0x0a
    3066:	84 7c       	andi	r24, 0xC4	; 196
    3068:	7d 81       	ldd	r23, Y+5	; 0x05
    306a:	78 7e       	andi	r23, 0xE8	; 232
    306c:	7c 85       	ldd	r23, Y+12	; 0x0c
    306e:	85 7d       	andi	r24, 0xD5	; 213
    3070:	81 80       	ldd	r8, Z+1	; 0x01
    3072:	81 85       	ldd	r24, Z+9	; 0x09
    3074:	89 7f       	andi	r24, 0xF9	; 249
    3076:	76 80       	ldd	r7, Z+6	; 0x06
    3078:	80 85       	ldd	r24, Z+8	; 0x08
    307a:	81 8c       	ldd	r8, Z+25	; 0x19
    307c:	8e 89       	ldd	r24, Y+22	; 0x16
    307e:	86 82       	std	Z+6, r8	; 0x06
    3080:	87 7b       	andi	r24, 0xB7	; 183
    3082:	7c 7d       	andi	r23, 0xDC	; 220
    3084:	76 76       	andi	r23, 0x66	; 102
    3086:	7a 86       	std	Y+10, r7	; 0x0a
    3088:	85 80       	ldd	r8, Z+5	; 0x05
    308a:	80 7b       	andi	r24, 0xB0	; 176
    308c:	7d 75       	andi	r23, 0x5D	; 93
    308e:	71 7d       	andi	r23, 0xD1	; 209
    3090:	7d 82       	std	Y+5, r7	; 0x05
    3092:	89 7f       	andi	r24, 0xF9	; 249
    3094:	7d 76       	andi	r23, 0x6D	; 109
    3096:	84 80       	ldd	r8, Z+4	; 0x04
    3098:	79 84       	ldd	r7, Y+9	; 0x09
    309a:	7d 8b       	std	Y+21, r23	; 0x15
    309c:	83 84       	ldd	r8, Z+11	; 0x0b
    309e:	89 7f       	andi	r24, 0xF9	; 249
    30a0:	7d 7c       	andi	r23, 0xCD	; 205
    30a2:	7a 70       	andi	r23, 0x0A	; 10
    30a4:	74 79       	andi	r23, 0x94	; 148
    30a6:	87 80       	ldd	r8, Z+7	; 0x07
    30a8:	88 91       	.word	0x9188	; ????
    30aa:	89 89       	ldd	r24, Y+17	; 0x11
    30ac:	75 7d       	andi	r23, 0xD5	; 213
    30ae:	7d 79       	andi	r23, 0x9D	; 157
    30b0:	7c 7b       	andi	r23, 0xBC	; 188
    30b2:	7d 7b       	andi	r23, 0xBD	; 189
    30b4:	85 88       	ldd	r8, Z+21	; 0x15
    30b6:	7f 77       	andi	r23, 0x7F	; 127
    30b8:	78 78       	andi	r23, 0x88	; 136
    30ba:	7b 7d       	andi	r23, 0xDB	; 219
    30bc:	7b 82       	std	Y+3, r7	; 0x03
    30be:	80 87       	std	Z+8, r24	; 0x08
    30c0:	8c 88       	ldd	r8, Y+20	; 0x14
    30c2:	7f 7b       	andi	r23, 0xBF	; 191
    30c4:	83 7c       	andi	r24, 0xC3	; 195
    30c6:	80 84       	ldd	r8, Z+8	; 0x08
    30c8:	87 87       	std	Z+15, r24	; 0x0f
    30ca:	7a 83       	std	Y+2, r23	; 0x02
    30cc:	8f 88       	ldd	r8, Y+23	; 0x17
    30ce:	86 76       	andi	r24, 0x66	; 102
    30d0:	73 6a       	ori	r23, 0xA3	; 163
    30d2:	77 86       	std	Z+15, r7	; 0x0f
    30d4:	7f 86       	std	Y+15, r7	; 0x0f
    30d6:	84 8c       	ldd	r8, Z+28	; 0x1c
    30d8:	88 85       	ldd	r24, Y+8	; 0x08
    30da:	7e 77       	andi	r23, 0x7E	; 126
    30dc:	7d 74       	andi	r23, 0x4D	; 77
    30de:	6e 82       	std	Y+6, r6	; 0x06
    30e0:	8c 8a       	std	Y+20, r8	; 0x14
    30e2:	8b 87       	std	Y+11, r24	; 0x0b
    30e4:	7f 77       	andi	r23, 0x7F	; 127
    30e6:	77 7c       	andi	r23, 0xC7	; 199
    30e8:	75 78       	andi	r23, 0x85	; 133
    30ea:	7d 80       	ldd	r7, Y+5	; 0x05
    30ec:	7e 7e       	andi	r23, 0xEE	; 238
    30ee:	8a 78       	andi	r24, 0x8A	; 138
    30f0:	77 7a       	andi	r23, 0xA7	; 167
    30f2:	79 80       	ldd	r7, Y+1	; 0x01
    30f4:	90 92 8a 85 	sts	0x858A, r9	; 0x80858a <__bss_end+0x8486>
    30f8:	7f 7d       	andi	r23, 0xDF	; 223
    30fa:	78 82       	st	Y, r7
    30fc:	72 75       	andi	r23, 0x52	; 82
    30fe:	7b 76       	andi	r23, 0x6B	; 107
    3100:	80 86       	std	Z+8, r8	; 0x08
    3102:	88 7e       	andi	r24, 0xE8	; 232
    3104:	7f 82       	std	Y+7, r7	; 0x07
    3106:	7c 7e       	andi	r23, 0xEC	; 236
    3108:	91 91       	ld	r25, Z+
    310a:	8c 82       	std	Y+4, r8	; 0x04
    310c:	73 7a       	andi	r23, 0xA3	; 163
    310e:	6f 72       	andi	r22, 0x2F	; 47
    3110:	82 7c       	andi	r24, 0xC2	; 194
    3112:	7b 7b       	andi	r23, 0xBB	; 187
    3114:	7f 7f       	andi	r23, 0xFF	; 255
    3116:	7f 8a       	std	Y+23, r7	; 0x17
    3118:	7b 84       	ldd	r7, Y+11	; 0x0b
    311a:	7e 6e       	ori	r23, 0xEE	; 238
    311c:	8b 8e       	std	Y+27, r8	; 0x1b
    311e:	85 89       	ldd	r24, Z+21	; 0x15
    3120:	86 79       	andi	r24, 0x96	; 150
    3122:	78 78       	andi	r23, 0x88	; 136
    3124:	84 7a       	andi	r24, 0xA4	; 164
    3126:	7a 7b       	andi	r23, 0xBA	; 186
    3128:	82 83       	std	Z+2, r24	; 0x02
    312a:	73 87       	std	Z+11, r23	; 0x0b
    312c:	73 75       	andi	r23, 0x53	; 83
    312e:	81 82       	std	Z+1, r8	; 0x01
    3130:	8b 95       	.word	0x958b	; ????
    3132:	95 8c       	ldd	r9, Z+29	; 0x1d
    3134:	86 7b       	andi	r24, 0xB6	; 182
    3136:	7e 74       	andi	r23, 0x4E	; 78
    3138:	80 7b       	andi	r24, 0xB0	; 176
    313a:	75 81       	ldd	r23, Z+5	; 0x05
    313c:	77 7d       	andi	r23, 0xD7	; 215
    313e:	80 8a       	std	Z+16, r8	; 0x10
    3140:	7d 73       	andi	r23, 0x3D	; 61
    3142:	80 74       	andi	r24, 0x40	; 64
    3144:	7d 92       	st	X+, r7
    3146:	91 8f       	std	Z+25, r25	; 0x19
    3148:	85 74       	andi	r24, 0x45	; 69
    314a:	79 72       	andi	r23, 0x29	; 41
    314c:	79 87       	std	Y+9, r23	; 0x09
    314e:	7c 7d       	andi	r23, 0xDC	; 220
    3150:	7c 82       	std	Y+4, r7	; 0x04
    3152:	83 81       	ldd	r24, Z+3	; 0x03
    3154:	82 75       	andi	r24, 0x52	; 82
    3156:	83 78       	andi	r24, 0x83	; 131
    3158:	72 8a       	std	Z+18, r7	; 0x12
    315a:	8c 85       	ldd	r24, Y+12	; 0x0c
    315c:	8d 85       	ldd	r24, Y+13	; 0x0d
    315e:	79 7a       	andi	r23, 0xA9	; 169
    3160:	7b 87       	std	Y+11, r23	; 0x0b
    3162:	7b 7f       	andi	r23, 0xFB	; 251
    3164:	79 7b       	andi	r23, 0xB9	; 185
    3166:	81 73       	andi	r24, 0x31	; 49
    3168:	82 76       	andi	r24, 0x62	; 98
    316a:	71 7d       	andi	r23, 0xD1	; 209
    316c:	80 87       	std	Z+8, r24	; 0x08
    316e:	8d 8b       	std	Y+21, r24	; 0x15
    3170:	88 7f       	andi	r24, 0xF8	; 248
    3172:	7a 84       	ldd	r7, Y+10	; 0x0a
    3174:	77 89       	ldd	r23, Z+23	; 0x17
    3176:	8a 76       	andi	r24, 0x6A	; 106
    3178:	7b 73       	andi	r23, 0x3B	; 59
    317a:	72 78       	andi	r23, 0x82	; 130
    317c:	83 79       	andi	r24, 0x93	; 147
    317e:	74 81       	ldd	r23, Z+4	; 0x04
    3180:	7c 7e       	andi	r23, 0xEC	; 236
    3182:	90 91 8d 81 	lds	r25, 0x818D	; 0x80818d <__bss_end+0x8089>
    3186:	74 77       	andi	r23, 0x74	; 116
    3188:	70 7c       	andi	r23, 0xC0	; 192
    318a:	8e 84       	ldd	r8, Y+14	; 0x0e
    318c:	85 84       	ldd	r8, Z+13	; 0x0d
    318e:	8d 83       	std	Y+5, r24	; 0x05
    3190:	85 83       	std	Z+5, r24	; 0x05
    3192:	6f 76       	andi	r22, 0x6F	; 111
    3194:	72 74       	andi	r23, 0x42	; 66
    3196:	8e 9d       	mul	r24, r14
    3198:	86 8b       	std	Z+22, r24	; 0x16
    319a:	81 77       	andi	r24, 0x71	; 113
    319c:	6d 75       	andi	r22, 0x5D	; 93
    319e:	83 6f       	ori	r24, 0xF3	; 243
    31a0:	79 7f       	andi	r23, 0xF9	; 249
    31a2:	7a 89       	ldd	r23, Y+18	; 0x12
    31a4:	83 83       	std	Z+3, r24	; 0x03
    31a6:	7b 69       	ori	r23, 0x9B	; 155
    31a8:	80 74       	andi	r24, 0x40	; 64
    31aa:	82 97       	sbiw	r24, 0x22	; 34
    31ac:	8d 94 85 81 	jmp	0x23030a	; 0x23030a <__TEXT_REGION_LENGTH__+0x21030a>
    31b0:	7a 7a       	andi	r23, 0xAA	; 170
    31b2:	89 79       	andi	r24, 0x99	; 153
    31b4:	74 77       	andi	r23, 0x74	; 116
    31b6:	77 75       	andi	r23, 0x57	; 87
    31b8:	81 89       	ldd	r24, Z+17	; 0x11
    31ba:	86 76       	andi	r24, 0x66	; 102
    31bc:	87 84       	ldd	r8, Z+15	; 0x0f
    31be:	7b 9d       	mul	r23, r11
    31c0:	8d 84       	ldd	r8, Y+13	; 0x0d
    31c2:	87 7a       	andi	r24, 0xA7	; 167
    31c4:	84 7b       	andi	r24, 0xB4	; 180
    31c6:	7f 84       	ldd	r7, Y+15	; 0x0f
    31c8:	76 79       	andi	r23, 0x96	; 150
    31ca:	72 80       	ldd	r7, Z+2	; 0x02
    31cc:	78 7a       	andi	r23, 0xA8	; 168
    31ce:	74 7a       	andi	r23, 0xA4	; 164
    31d0:	7e 73       	andi	r23, 0x3E	; 62
    31d2:	80 85       	ldd	r24, Z+8	; 0x08
    31d4:	93 81       	ldd	r25, Z+3	; 0x03
    31d6:	87 85       	ldd	r24, Z+15	; 0x0f
    31d8:	78 74       	andi	r23, 0x48	; 72
    31da:	7d 88       	ldd	r7, Y+21	; 0x15
    31dc:	7d 7a       	andi	r23, 0xAD	; 173
    31de:	74 78       	andi	r23, 0x84	; 132
    31e0:	7a 7f       	andi	r23, 0xFA	; 250
    31e2:	80 72       	andi	r24, 0x20	; 32
    31e4:	75 7e       	andi	r23, 0xE5	; 229
    31e6:	81 86       	std	Z+9, r8	; 0x09
    31e8:	90 89       	ldd	r25, Z+16	; 0x10
    31ea:	8e 8a       	std	Y+22, r8	; 0x16
    31ec:	84 81       	ldd	r24, Z+4	; 0x04
    31ee:	73 81       	ldd	r23, Z+3	; 0x03
    31f0:	78 7e       	andi	r23, 0xE8	; 232
    31f2:	86 81       	ldd	r24, Z+6	; 0x06
    31f4:	7d 7f       	andi	r23, 0xFD	; 253
    31f6:	85 78       	andi	r24, 0x85	; 133
    31f8:	78 82       	st	Y, r7
    31fa:	7e 78       	andi	r23, 0x8E	; 142
    31fc:	8f 9b       	sbis	0x11, 7	; 17
    31fe:	89 86       	std	Y+9, r8	; 0x09
    3200:	81 78       	andi	r24, 0x81	; 129
    3202:	7b 7c       	andi	r23, 0xCB	; 203
    3204:	81 81       	ldd	r24, Z+1	; 0x01
    3206:	73 78       	andi	r23, 0x83	; 131
    3208:	80 81       	ld	r24, Z
    320a:	87 81       	ldd	r24, Z+7	; 0x07
    320c:	73 77       	andi	r23, 0x73	; 115
    320e:	77 77       	andi	r23, 0x77	; 119
    3210:	84 8e       	std	Z+28, r8	; 0x1c
    3212:	85 86       	std	Z+13, r8	; 0x0d
    3214:	81 81       	ldd	r24, Z+1	; 0x01
    3216:	7b 84       	ldd	r7, Y+11	; 0x0b
    3218:	8d 7a       	andi	r24, 0xAD	; 173
    321a:	80 7b       	andi	r24, 0xB0	; 176
    321c:	72 73       	andi	r23, 0x32	; 50
    321e:	7e 83       	std	Y+6, r23	; 0x06
    3220:	79 76       	andi	r23, 0x69	; 105
    3222:	7c 75       	andi	r23, 0x5C	; 92
    3224:	78 8b       	std	Y+16, r23	; 0x10
    3226:	8a 89       	ldd	r24, Y+18	; 0x12
    3228:	84 71       	andi	r24, 0x14	; 20
    322a:	78 81       	ld	r23, Y
    322c:	8a 91       	ld	r24, -Y
    322e:	82 81       	ldd	r24, Z+2	; 0x02
    3230:	78 76       	andi	r23, 0x68	; 104
    3232:	79 7d       	andi	r23, 0xD9	; 217
    3234:	77 6d       	ori	r23, 0xD7	; 215
    3236:	7e 83       	std	Y+6, r23	; 0x06
    3238:	7f 96       	adiw	r30, 0x1f	; 31
    323a:	91 8b       	std	Z+17, r25	; 0x11
    323c:	8a 80       	ldd	r8, Y+2	; 0x02
    323e:	7a 6f       	ori	r23, 0xFA	; 250
    3240:	7c 89       	ldd	r23, Y+20	; 0x14
    3242:	7f 85       	ldd	r23, Y+15	; 0x0f
    3244:	85 84       	ldd	r8, Z+13	; 0x0d
    3246:	88 87       	std	Y+8, r24	; 0x08
    3248:	8b 75       	andi	r24, 0x5B	; 91
    324a:	74 73       	andi	r23, 0x34	; 52
    324c:	74 8b       	std	Z+20, r23	; 0x14
    324e:	9e 8f       	std	Y+30, r25	; 0x1e
    3250:	88 7b       	andi	r24, 0xB8	; 184
    3252:	6c 6f       	ori	r22, 0xFC	; 252
    3254:	72 84       	ldd	r7, Z+10	; 0x0a
    3256:	78 6f       	ori	r23, 0xF8	; 248
    3258:	77 78       	andi	r23, 0x87	; 135
    325a:	87 8b       	std	Z+23, r24	; 0x17
    325c:	80 75       	andi	r24, 0x50	; 80
    325e:	69 7c       	andi	r22, 0xC9	; 201
    3260:	76 79       	andi	r23, 0x96	; 150
    3262:	94 88       	ldd	r9, Z+20	; 0x14
    3264:	8c 8b       	std	Y+20, r24	; 0x14
    3266:	82 83       	std	Z+2, r24	; 0x02
    3268:	6e 82       	std	Y+6, r6	; 0x06
    326a:	80 7d       	andi	r24, 0xD0	; 208
    326c:	7c 75       	andi	r23, 0x5C	; 92
    326e:	7b 79       	andi	r23, 0x9B	; 155
    3270:	87 84       	ldd	r8, Z+15	; 0x0f
    3272:	76 78       	andi	r23, 0x86	; 134
    3274:	86 77       	andi	r24, 0x76	; 118
    3276:	98 99       	sbic	0x13, 0	; 19
    3278:	83 86       	std	Z+11, r8	; 0x0b
    327a:	79 83       	std	Y+1, r23	; 0x01
    327c:	7a 7f       	andi	r23, 0xFA	; 250
    327e:	8c 75       	andi	r24, 0x5C	; 92
    3280:	76 76       	andi	r23, 0x66	; 102
    3282:	81 7b       	andi	r24, 0xB1	; 177
    3284:	82 7c       	andi	r24, 0xC2	; 194
    3286:	79 87       	std	Y+9, r23	; 0x09
    3288:	79 84       	ldd	r7, Y+9	; 0x09
    328a:	80 95       	com	r24
    328c:	87 84       	ldd	r8, Z+15	; 0x0f
    328e:	82 76       	andi	r24, 0x62	; 98
    3290:	72 70       	andi	r23, 0x02	; 2
    3292:	8c 83       	std	Y+4, r24	; 0x04
    3294:	82 79       	andi	r24, 0x92	; 146
    3296:	75 7d       	andi	r23, 0xD5	; 213
    3298:	7f 85       	ldd	r23, Y+15	; 0x0f
    329a:	6d 6f       	ori	r22, 0xFD	; 253
    329c:	78 7c       	andi	r23, 0xC8	; 200
    329e:	89 95       	.word	0x9589	; ????
    32a0:	8c 85       	ldd	r24, Y+12	; 0x0c
    32a2:	8e 83       	std	Y+6, r24	; 0x06
    32a4:	89 79       	andi	r24, 0x99	; 153
    32a6:	7f 80       	ldd	r7, Y+7	; 0x07
    32a8:	78 84       	ldd	r7, Y+8	; 0x08
    32aa:	80 84       	ldd	r8, Z+8	; 0x08
    32ac:	79 82       	std	Y+1, r7	; 0x01
    32ae:	77 75       	andi	r23, 0x57	; 87
    32b0:	7f 79       	andi	r23, 0x9F	; 159
    32b2:	7e 82       	std	Y+6, r7	; 0x06
    32b4:	9a 96       	adiw	r26, 0x2a	; 42
    32b6:	8e 88       	ldd	r8, Y+22	; 0x16
    32b8:	73 74       	andi	r23, 0x43	; 67
    32ba:	76 7c       	andi	r23, 0xC6	; 198
    32bc:	81 77       	andi	r24, 0x71	; 113
    32be:	76 77       	andi	r23, 0x76	; 118
    32c0:	7c 88       	ldd	r7, Y+20	; 0x14
    32c2:	8b 75       	andi	r24, 0x5B	; 91
    32c4:	76 7e       	andi	r23, 0xE6	; 230
    32c6:	7b 80       	ldd	r7, Y+3	; 0x03
    32c8:	90 89       	ldd	r25, Z+16	; 0x10
    32ca:	83 7f       	andi	r24, 0xF3	; 243
    32cc:	80 83       	st	Z, r24
    32ce:	78 88       	ldd	r7, Y+16	; 0x10
    32d0:	7e 7f       	andi	r23, 0xFE	; 254
    32d2:	7e 78       	andi	r23, 0x8E	; 142
    32d4:	75 79       	andi	r23, 0x95	; 149
    32d6:	7c 76       	andi	r23, 0x6C	; 108
    32d8:	79 7b       	andi	r23, 0xB9	; 185
    32da:	79 79       	andi	r23, 0x99	; 153
    32dc:	88 8f       	std	Y+24, r24	; 0x18
    32de:	83 8a       	std	Z+19, r8	; 0x13
    32e0:	7c 70       	andi	r23, 0x0C	; 12
    32e2:	7e 89       	ldd	r23, Y+22	; 0x16
    32e4:	9a 84       	ldd	r9, Y+10	; 0x0a
    32e6:	7f 7b       	andi	r23, 0xBF	; 191
    32e8:	74 76       	andi	r23, 0x64	; 100
    32ea:	85 79       	andi	r24, 0x95	; 149
    32ec:	6f 7a       	andi	r22, 0xAF	; 175
    32ee:	7e 81       	ldd	r23, Y+6	; 0x06
    32f0:	8e 95 89 8f 	call	0x611f12	; 0x611f12 <__TEXT_REGION_LENGTH__+0x5f1f12>
    32f4:	81 7a       	andi	r24, 0xA1	; 161
    32f6:	71 6e       	ori	r23, 0xE1	; 225
    32f8:	7f 82       	std	Y+7, r7	; 0x07
    32fa:	8c 89       	ldd	r24, Y+20	; 0x14
    32fc:	82 7f       	andi	r24, 0xF2	; 242
    32fe:	8b 89       	ldd	r24, Y+19	; 0x13
    3300:	76 7a       	andi	r23, 0xA6	; 166
    3302:	74 72       	andi	r23, 0x24	; 36
    3304:	76 9b       	sbis	0x0e, 6	; 14
    3306:	98 88       	ldd	r9, Y+16	; 0x10
    3308:	84 74       	andi	r24, 0x44	; 68
    330a:	76 6f       	ori	r23, 0xF6	; 246
    330c:	77 7f       	andi	r23, 0xF7	; 247
    330e:	75 73       	andi	r23, 0x35	; 53
    3310:	7d 89       	ldd	r23, Y+21	; 0x15
    3312:	8e 80       	ldd	r8, Y+6	; 0x06
    3314:	72 69       	ori	r23, 0x92	; 146
    3316:	78 77       	andi	r23, 0x78	; 120
    3318:	79 8d       	ldd	r23, Y+25	; 0x19
    331a:	90 88       	ldd	r9, Z+16	; 0x10
    331c:	91 87       	std	Z+9, r25	; 0x09
    331e:	85 77       	andi	r24, 0x75	; 117
    3320:	78 87       	std	Y+8, r23	; 0x08
    3322:	79 7f       	andi	r23, 0xF9	; 249
    3324:	76 71       	andi	r23, 0x16	; 22
    3326:	75 85       	ldd	r23, Z+13	; 0x0d
    3328:	8c 7c       	andi	r24, 0xCC	; 204
    332a:	74 7d       	andi	r23, 0xD4	; 212
    332c:	7c 87       	std	Y+12, r23	; 0x0c
    332e:	9d 8e       	std	Y+29, r9	; 0x1d
    3330:	8d 7f       	andi	r24, 0xFD	; 253
    3332:	76 82       	std	Z+6, r7	; 0x06
    3334:	76 86       	std	Z+14, r7	; 0x0e
    3336:	7c 75       	andi	r23, 0x5C	; 92
    3338:	76 7e       	andi	r23, 0xE6	; 230
    333a:	74 83       	std	Z+4, r23	; 0x04
    333c:	7c 74       	andi	r23, 0x4C	; 76
    333e:	89 7c       	andi	r24, 0xC9	; 201
    3340:	8a 7c       	andi	r24, 0xCA	; 202
    3342:	8d 8a       	std	Y+21, r8	; 0x15
    3344:	83 8a       	std	Z+19, r8	; 0x13
    3346:	75 7a       	andi	r23, 0xA5	; 165
    3348:	70 79       	andi	r23, 0x90	; 144
    334a:	8a 82       	std	Y+2, r8	; 0x02
    334c:	7d 79       	andi	r23, 0x9D	; 157
    334e:	7e 85       	ldd	r23, Y+14	; 0x0e
    3350:	85 75       	andi	r24, 0x55	; 85
    3352:	71 75       	andi	r23, 0x51	; 81
    3354:	75 86       	std	Z+13, r7	; 0x0d
    3356:	8d 93       	st	X+, r24
    3358:	85 89       	ldd	r24, Z+21	; 0x15
    335a:	8a 82       	std	Y+2, r8	; 0x02
    335c:	81 7a       	andi	r24, 0xA1	; 161
    335e:	81 7b       	andi	r24, 0xB1	; 177
    3360:	80 86       	std	Z+8, r8	; 0x08
    3362:	7e 7a       	andi	r23, 0xAE	; 174
    3364:	84 7c       	andi	r24, 0xC4	; 196
    3366:	73 7a       	andi	r23, 0xA3	; 163
    3368:	70 7a       	andi	r23, 0xA0	; 160
    336a:	78 8b       	std	Y+16, r23	; 0x10
    336c:	9b 8c       	ldd	r9, Y+27	; 0x1b
    336e:	8f 7a       	andi	r24, 0xAF	; 175
    3370:	75 7a       	andi	r23, 0xA5	; 165
    3372:	75 83       	std	Z+5, r23	; 0x05
    3374:	77 78       	andi	r23, 0x87	; 135
    3376:	7d 72       	andi	r23, 0x2D	; 45
    3378:	87 88       	ldd	r8, Z+23	; 0x17
    337a:	78 75       	andi	r23, 0x58	; 88
    337c:	7b 82       	std	Y+3, r7	; 0x03
    337e:	7c 8d       	ldd	r23, Y+28	; 0x1c
    3380:	8c 81       	ldd	r24, Y+4	; 0x04
    3382:	8a 7e       	andi	r24, 0xEA	; 234
    3384:	86 84       	ldd	r8, Z+14	; 0x0e
    3386:	78 78       	andi	r23, 0x88	; 136
    3388:	81 80       	ldd	r8, Z+1	; 0x01
    338a:	80 77       	andi	r24, 0x70	; 112
    338c:	76 7b       	andi	r23, 0xB6	; 182
    338e:	73 7c       	andi	r23, 0xC3	; 195
    3390:	7a 7d       	andi	r23, 0xDA	; 218
    3392:	76 7d       	andi	r23, 0xD6	; 214
    3394:	94 86       	std	Z+12, r9	; 0x0c
    3396:	86 88       	ldd	r8, Z+22	; 0x16
    3398:	73 7a       	andi	r23, 0xA3	; 163
    339a:	80 95       	com	r24
    339c:	89 7e       	andi	r24, 0xE9	; 233
    339e:	7c 75       	andi	r23, 0x5C	; 92
    33a0:	74 81       	ldd	r23, Z+4	; 0x04
    33a2:	7c 70       	andi	r23, 0x0C	; 12
    33a4:	7c 76       	andi	r23, 0x6C	; 108
    33a6:	83 84       	ldd	r8, Z+11	; 0x0b
    33a8:	95 8e       	std	Z+29, r9	; 0x1d
    33aa:	8d 8f       	std	Y+29, r24	; 0x1d
    33ac:	7b 76       	andi	r23, 0x6B	; 107
    33ae:	6c 79       	andi	r22, 0x9C	; 156
    33b0:	7f 84       	ldd	r7, Y+15	; 0x0f
    33b2:	90 89       	ldd	r25, Z+16	; 0x10
    33b4:	78 83       	st	Y, r23
    33b6:	8f 76       	andi	r24, 0x6F	; 111
    33b8:	7d 78       	andi	r23, 0x8D	; 141
    33ba:	73 75       	andi	r23, 0x53	; 83
    33bc:	8a 9f       	mul	r24, r26
    33be:	88 8e       	std	Y+24, r8	; 0x18
    33c0:	7b 74       	andi	r23, 0x4B	; 75
    33c2:	74 6e       	ori	r23, 0xE4	; 228
    33c4:	75 79       	andi	r23, 0x95	; 149
    33c6:	78 7a       	andi	r23, 0xA8	; 168
    33c8:	86 8f       	std	Z+30, r24	; 0x1e
    33ca:	84 76       	andi	r24, 0x64	; 100
    33cc:	6c 77       	andi	r22, 0x7C	; 124
    33ce:	77 73       	andi	r23, 0x37	; 55
    33d0:	7d 8f       	std	Y+29, r23	; 0x1d
    33d2:	8b 89       	ldd	r24, Y+19	; 0x13
    33d4:	95 88       	ldd	r9, Z+21	; 0x15
    33d6:	7f 75       	andi	r23, 0x5F	; 95
    33d8:	82 83       	std	Z+2, r24	; 0x02
    33da:	7c 7c       	andi	r23, 0xCC	; 204
    33dc:	71 73       	andi	r23, 0x31	; 49
    33de:	7e 88       	ldd	r7, Y+22	; 0x16
    33e0:	85 77       	andi	r24, 0x75	; 117
    33e2:	71 7c       	andi	r23, 0xC1	; 193
    33e4:	81 95       	neg	r24
    33e6:	9c 8b       	std	Y+20, r25	; 0x14
    33e8:	88 79       	andi	r24, 0x98	; 152
    33ea:	7f 7b       	andi	r23, 0xBF	; 191
    33ec:	81 82       	std	Z+1, r8	; 0x01
    33ee:	73 77       	andi	r23, 0x73	; 115
    33f0:	7c 71       	andi	r23, 0x1C	; 28
    33f2:	78 87       	std	Y+8, r23	; 0x08
    33f4:	74 7e       	andi	r23, 0xE4	; 228
    33f6:	7c 88       	ldd	r7, Y+20	; 0x14
    33f8:	7e 84       	ldd	r7, Y+14	; 0x0e
    33fa:	91 86       	std	Z+9, r9	; 0x09
    33fc:	8d 7f       	andi	r24, 0xFD	; 253
    33fe:	7c 78       	andi	r23, 0x8C	; 140
    3400:	73 7b       	andi	r23, 0xB3	; 179
    3402:	86 7d       	andi	r24, 0xD6	; 214
    3404:	7a 7a       	andi	r23, 0xAA	; 170
    3406:	7f 88       	ldd	r7, Y+23	; 0x17
    3408:	79 74       	andi	r23, 0x49	; 73
    340a:	78 75       	andi	r23, 0x58	; 88
    340c:	7d 89       	ldd	r23, Y+21	; 0x15
    340e:	98 8b       	std	Y+16, r25	; 0x10
    3410:	84 8f       	std	Z+28, r24	; 0x1c
    3412:	8b 80       	ldd	r8, Y+3	; 0x03
    3414:	7d 7a       	andi	r23, 0xAD	; 173
    3416:	7a 7a       	andi	r23, 0xAA	; 170
    3418:	83 84       	ldd	r8, Z+11	; 0x0b
    341a:	7d 84       	ldd	r7, Y+13	; 0x0d
    341c:	7f 73       	andi	r23, 0x3F	; 63
    341e:	78 71       	andi	r23, 0x18	; 24
    3420:	76 82       	std	Z+6, r7	; 0x06
    3422:	80 96       	adiw	r24, 0x20	; 32
    3424:	8e 89       	ldd	r24, Y+22	; 0x16
    3426:	84 75       	andi	r24, 0x54	; 84
    3428:	7b 75       	andi	r23, 0x5B	; 91
    342a:	7a 7a       	andi	r23, 0xAA	; 170
    342c:	71 7c       	andi	r23, 0xC1	; 193
    342e:	75 82       	std	Z+5, r7	; 0x05
    3430:	93 79       	andi	r25, 0x93	; 147
    3432:	79 76       	andi	r23, 0x69	; 105
    3434:	7d 80       	ldd	r7, Y+5	; 0x05
    3436:	84 92       	xch	Z, r8
    3438:	85 88       	ldd	r8, Z+21	; 0x15
    343a:	84 8a       	std	Z+20, r8	; 0x14
    343c:	88 78       	andi	r24, 0x88	; 136
    343e:	76 7f       	andi	r23, 0xF6	; 246
    3440:	83 7e       	andi	r24, 0xE3	; 227
    3442:	80 75       	andi	r24, 0x50	; 80
    3444:	7d 74       	andi	r23, 0x4D	; 77
    3446:	76 83       	std	Z+6, r23	; 0x06
    3448:	78 7d       	andi	r23, 0xD8	; 216
    344a:	79 8b       	std	Y+17, r23	; 0x11
    344c:	8a 86       	std	Y+10, r8	; 0x0a
    344e:	91 7e       	andi	r25, 0xE1	; 225
    3450:	76 79       	andi	r23, 0x96	; 150
    3452:	90 89       	ldd	r25, Z+16	; 0x10
    3454:	83 7e       	andi	r24, 0xE3	; 227
    3456:	74 78       	andi	r23, 0x84	; 132
    3458:	7d 85       	ldd	r23, Y+13	; 0x0d
    345a:	6c 76       	andi	r22, 0x6C	; 108
    345c:	72 7b       	andi	r23, 0xB2	; 178
    345e:	86 8b       	std	Z+22, r24	; 0x16
    3460:	98 85       	ldd	r25, Y+8	; 0x08
    3462:	8f 84       	ldd	r8, Y+15	; 0x0f
    3464:	7e 79       	andi	r23, 0x9E	; 158
    3466:	71 7c       	andi	r23, 0xC1	; 193
    3468:	7b 8b       	std	Y+19, r23	; 0x13
    346a:	88 7a       	andi	r24, 0xA8	; 168
    346c:	80 8f       	std	Z+24, r24	; 0x18
    346e:	78 79       	andi	r23, 0x98	; 152
    3470:	7c 74       	andi	r23, 0x4C	; 76
    3472:	77 80       	ldd	r7, Z+7	; 0x07
    3474:	99 8f       	std	Y+25, r25	; 0x19
    3476:	88 88       	ldd	r8, Y+16	; 0x10
    3478:	7c 76       	andi	r23, 0x6C	; 108
    347a:	6b 71       	andi	r22, 0x1B	; 27
    347c:	78 79       	andi	r23, 0x98	; 152
    347e:	76 7b       	andi	r23, 0xB6	; 182
    3480:	8f 86       	std	Y+15, r8	; 0x0f
    3482:	82 70       	andi	r24, 0x02	; 2
    3484:	74 79       	andi	r23, 0x94	; 148
    3486:	72 7b       	andi	r23, 0xB2	; 178
    3488:	84 90       	lpm	r8, Z
    348a:	8a 93       	st	-Y, r24
    348c:	8e 7f       	andi	r24, 0xFE	; 254
    348e:	75 75       	andi	r23, 0x55	; 85
    3490:	80 80       	ld	r8, Z
    3492:	7b 7b       	andi	r23, 0xBB	; 187
    3494:	77 7c       	andi	r23, 0xC7	; 199
    3496:	8a 87       	std	Y+10, r24	; 0x0a
    3498:	7c 70       	andi	r23, 0x0C	; 12
    349a:	79 7e       	andi	r23, 0xE9	; 233
    349c:	89 9a       	sbi	0x11, 1	; 17
    349e:	8c 87       	std	Y+12, r24	; 0x0c
    34a0:	80 80       	ld	r8, Z
    34a2:	84 7e       	andi	r24, 0xE4	; 228
    34a4:	81 7c       	andi	r24, 0xC1	; 193
    34a6:	74 7b       	andi	r23, 0xB4	; 180
    34a8:	75 7d       	andi	r23, 0xD5	; 213
    34aa:	82 7a       	andi	r24, 0xA2	; 162
    34ac:	79 72       	andi	r23, 0x29	; 41
    34ae:	85 80       	ldd	r8, Z+5	; 0x05
    34b0:	80 8b       	std	Z+16, r24	; 0x10
    34b2:	87 8c       	ldd	r8, Z+31	; 0x1f
    34b4:	84 81       	ldd	r24, Z+4	; 0x04
    34b6:	7d 74       	andi	r23, 0x4D	; 77
    34b8:	79 87       	std	Y+9, r23	; 0x09
    34ba:	82 7a       	andi	r24, 0xA2	; 162
    34bc:	7c 79       	andi	r23, 0x9C	; 156
    34be:	86 80       	ldd	r8, Z+6	; 0x06
    34c0:	74 77       	andi	r23, 0x74	; 116
    34c2:	73 7d       	andi	r23, 0xD3	; 211
    34c4:	7c 93       	st	X, r23
    34c6:	94 86       	std	Z+12, r9	; 0x0c
    34c8:	93 90       	.word	0x9093	; ????
    34ca:	86 80       	ldd	r8, Z+6	; 0x06
    34cc:	7b 79       	andi	r23, 0x9B	; 155
    34ce:	7a 79       	andi	r23, 0x9A	; 154
    34d0:	81 80       	ldd	r8, Z+1	; 0x01
    34d2:	85 82       	std	Z+5, r8	; 0x05
    34d4:	74 75       	andi	r23, 0x54	; 84
    34d6:	73 77       	andi	r23, 0x73	; 115
    34d8:	7f 7e       	andi	r23, 0xEF	; 239
    34da:	90 8d       	ldd	r25, Z+24	; 0x18
    34dc:	89 8f       	std	Y+25, r24	; 0x19
    34de:	7d 7e       	andi	r23, 0xED	; 237
    34e0:	76 75       	andi	r23, 0x56	; 86
    34e2:	7c 71       	andi	r23, 0x1C	; 28
    34e4:	74 7d       	andi	r23, 0xD4	; 212
    34e6:	81 92       	st	Z+, r8
    34e8:	7c 76       	andi	r23, 0x6C	; 108
    34ea:	7b 74       	andi	r23, 0x4B	; 75
    34ec:	88 80       	ld	r8, Y
    34ee:	8f 8b       	std	Y+23, r24	; 0x17
    34f0:	83 8a       	std	Z+19, r8	; 0x13
    34f2:	80 8e       	std	Z+24, r8	; 0x18
    34f4:	7d 77       	andi	r23, 0x7D	; 125
    34f6:	7a 7e       	andi	r23, 0xEA	; 234
    34f8:	81 7a       	andi	r24, 0xA1	; 161
    34fa:	7c 7d       	andi	r23, 0xDC	; 220
    34fc:	79 70       	andi	r23, 0x09	; 9
    34fe:	7d 79       	andi	r23, 0x9D	; 157
    3500:	7c 79       	andi	r23, 0x9C	; 156
    3502:	84 8f       	std	Z+28, r24	; 0x1c
    3504:	80 94       	com	r8
    3506:	7f 7d       	andi	r23, 0xDF	; 223
    3508:	7c 89       	ldd	r23, Y+20	; 0x14
    350a:	8f 7e       	andi	r24, 0xEF	; 239
    350c:	7f 70       	andi	r23, 0x0F	; 15
    350e:	79 7e       	andi	r23, 0xE9	; 233
    3510:	86 71       	andi	r24, 0x16	; 22
    3512:	6b 75       	andi	r22, 0x5B	; 91
    3514:	76 82       	std	Z+6, r7	; 0x06
    3516:	86 97       	sbiw	r24, 0x26	; 38
    3518:	88 85       	ldd	r24, Y+8	; 0x08
    351a:	91 7e       	andi	r25, 0xE1	; 225
    351c:	80 78       	andi	r24, 0x80	; 128
    351e:	77 7b       	andi	r23, 0xB7	; 183
    3520:	80 8c       	ldd	r8, Z+24	; 0x18
    3522:	7b 83       	std	Y+3, r23	; 0x03
    3524:	8c 7d       	andi	r24, 0xDC	; 220
    3526:	7e 74       	andi	r23, 0x4E	; 78
    3528:	77 7c       	andi	r23, 0xC7	; 199
    352a:	78 90       	.word	0x9078	; ????
    352c:	97 8d       	ldd	r25, Z+31	; 0x1f
    352e:	8b 82       	std	Y+3, r8	; 0x03
    3530:	7e 78       	andi	r23, 0x8E	; 142
    3532:	72 76       	andi	r23, 0x62	; 98
    3534:	74 7b       	andi	r23, 0xB4	; 180
    3536:	73 86       	std	Z+11, r7	; 0x0b
    3538:	8d 82       	std	Y+5, r8	; 0x05
    353a:	77 6d       	ori	r23, 0xD7	; 215
    353c:	7a 73       	andi	r23, 0x3A	; 58
    353e:	76 81       	ldd	r23, Z+6	; 0x06
    3540:	90 90 8c 8e 	lds	r9, 0x8E8C	; 0x808e8c <__bss_end+0x8d88>
    3544:	86 7c       	andi	r24, 0xC6	; 198
    3546:	78 78       	andi	r23, 0x88	; 136
    3548:	83 77       	andi	r24, 0x73	; 115
    354a:	74 79       	andi	r23, 0x94	; 148
    354c:	79 88       	ldd	r7, Y+17	; 0x11
    354e:	81 82       	std	Z+1, r8	; 0x01
    3550:	73 77       	andi	r23, 0x73	; 115
    3552:	7c 84       	ldd	r7, Y+12	; 0x0c
    3554:	9d 8d       	ldd	r25, Y+29	; 0x1d
    3556:	8b 87       	std	Y+11, r24	; 0x0b
    3558:	7e 7f       	andi	r23, 0xFE	; 254
    355a:	82 7c       	andi	r24, 0xC2	; 194
    355c:	7d 75       	andi	r23, 0x5D	; 93
    355e:	77 78       	andi	r23, 0x87	; 135
    3560:	7a 84       	ldd	r7, Y+10	; 0x0a
    3562:	77 7f       	andi	r23, 0xF7	; 247
    3564:	72 81       	ldd	r23, Z+2	; 0x02
    3566:	86 7d       	andi	r24, 0xD6	; 214
    3568:	8a 87       	std	Y+10, r24	; 0x0a
    356a:	8b 85       	ldd	r24, Y+11	; 0x0b
    356c:	82 7f       	andi	r24, 0xF2	; 242
    356e:	7c 7d       	andi	r23, 0xDC	; 220
    3570:	78 85       	ldd	r23, Y+8	; 0x08
    3572:	7c 77       	andi	r23, 0x7C	; 124
    3574:	7d 83       	std	Y+5, r23	; 0x05
    3576:	8a 72       	andi	r24, 0x2A	; 42
    3578:	79 71       	andi	r23, 0x19	; 25
    357a:	7a 76       	andi	r23, 0x6A	; 106
    357c:	85 98       	cbi	0x10, 5	; 16
    357e:	88 8b       	std	Y+16, r24	; 0x10
    3580:	8a 8a       	std	Y+18, r8	; 0x12
    3582:	83 7e       	andi	r24, 0xE3	; 227
    3584:	7b 7c       	andi	r23, 0xCB	; 203
    3586:	76 78       	andi	r23, 0x86	; 134
    3588:	82 85       	ldd	r24, Z+10	; 0x0a
    358a:	8b 79       	andi	r24, 0x9B	; 155
    358c:	72 74       	andi	r23, 0x42	; 66
    358e:	6e 7c       	andi	r22, 0xCE	; 206
    3590:	7d 8d       	ldd	r23, Y+29	; 0x1d
    3592:	8e 83       	std	Y+6, r24	; 0x06
    3594:	90 87       	std	Z+8, r25	; 0x08
    3596:	81 81       	ldd	r24, Z+1	; 0x01
    3598:	79 78       	andi	r23, 0x89	; 137
    359a:	77 71       	andi	r23, 0x17	; 23
    359c:	7b 7d       	andi	r23, 0xDB	; 219
    359e:	87 82       	std	Z+7, r8	; 0x07
    35a0:	75 7c       	andi	r23, 0xC5	; 197
    35a2:	75 83       	std	Z+5, r23	; 0x05
    35a4:	82 84       	ldd	r8, Z+10	; 0x0a
    35a6:	95 84       	ldd	r9, Z+13	; 0x0d
    35a8:	87 81       	ldd	r24, Z+7	; 0x07
    35aa:	86 89       	ldd	r24, Z+22	; 0x16
    35ac:	7d 77       	andi	r23, 0x7D	; 125
    35ae:	78 7f       	andi	r23, 0xF8	; 248
    35b0:	7a 77       	andi	r23, 0x7A	; 122
    35b2:	85 81       	ldd	r24, Z+5	; 0x05
    35b4:	6b 79       	andi	r22, 0x9B	; 155
    35b6:	7a 78       	andi	r23, 0x8A	; 138
    35b8:	7e 82       	std	Y+6, r7	; 0x06
    35ba:	95 86       	std	Z+13, r9	; 0x0d
    35bc:	89 86       	std	Y+9, r8	; 0x09
    35be:	7a 85       	ldd	r23, Y+10	; 0x0a
    35c0:	88 8c       	ldd	r8, Y+24	; 0x18
    35c2:	81 7b       	andi	r24, 0xB1	; 177
    35c4:	72 78       	andi	r23, 0x82	; 130
    35c6:	7b 85       	ldd	r23, Y+11	; 0x0b
    35c8:	78 6c       	ori	r23, 0xC8	; 200
    35ca:	75 71       	andi	r23, 0x15	; 21
    35cc:	7b 80       	ldd	r7, Y+3	; 0x03
    35ce:	90 8f       	std	Z+24, r25	; 0x18
    35d0:	85 8e       	std	Z+29, r8	; 0x1d
    35d2:	86 7e       	andi	r24, 0xE6	; 230
    35d4:	7f 79       	andi	r23, 0x9F	; 159
    35d6:	79 80       	ldd	r7, Y+1	; 0x01
    35d8:	83 80       	ldd	r8, Z+3	; 0x03
    35da:	82 89       	ldd	r24, Z+18	; 0x12
    35dc:	7d 7f       	andi	r23, 0xFD	; 253
    35de:	7e 74       	andi	r23, 0x4E	; 78
    35e0:	80 75       	andi	r24, 0x50	; 80
    35e2:	83 97       	sbiw	r24, 0x23	; 35
    35e4:	8f 8d       	ldd	r24, Y+31	; 0x1f
    35e6:	89 81       	ldd	r24, Y+1	; 0x01
    35e8:	7d 75       	andi	r23, 0x5D	; 93
    35ea:	73 76       	andi	r23, 0x63	; 99
    35ec:	77 72       	andi	r23, 0x27	; 39
    35ee:	7f 90       	pop	r7
    35f0:	86 7c       	andi	r24, 0xC6	; 198
    35f2:	6e 73       	andi	r22, 0x3E	; 62
    35f4:	71 74       	andi	r23, 0x41	; 65
    35f6:	7b 8c       	ldd	r7, Y+27	; 0x1b
    35f8:	8f 88       	ldd	r8, Y+23	; 0x17
    35fa:	88 84       	ldd	r8, Y+8	; 0x08
    35fc:	85 7f       	andi	r24, 0xF5	; 245
    35fe:	7f 81       	ldd	r23, Y+7	; 0x07
    3600:	79 72       	andi	r23, 0x29	; 41
    3602:	7b 74       	andi	r23, 0x4B	; 75
    3604:	85 81       	ldd	r24, Z+5	; 0x05
    3606:	7f 78       	andi	r23, 0x8F	; 143
    3608:	71 7e       	andi	r23, 0xE1	; 225
    360a:	76 97       	sbiw	r30, 0x16	; 22
    360c:	96 88       	ldd	r9, Z+22	; 0x16
    360e:	8c 83       	std	Y+4, r24	; 0x04
    3610:	81 85       	ldd	r24, Z+9	; 0x09
    3612:	81 7b       	andi	r24, 0xB1	; 177
    3614:	7e 74       	andi	r23, 0x4E	; 78
    3616:	76 7a       	andi	r23, 0xA6	; 166
    3618:	7c 7b       	andi	r23, 0xBC	; 188
    361a:	77 7a       	andi	r23, 0xA7	; 167
    361c:	7f 82       	std	Y+7, r7	; 0x07
    361e:	82 83       	std	Z+2, r24	; 0x02
    3620:	92 8c       	ldd	r9, Z+26	; 0x1a
    3622:	84 86       	std	Z+12, r8	; 0x0c
    3624:	81 7c       	andi	r24, 0xC1	; 193
    3626:	7b 7a       	andi	r23, 0xAB	; 171
    3628:	7c 7e       	andi	r23, 0xEC	; 236
    362a:	77 7b       	andi	r23, 0xB7	; 183
    362c:	82 8b       	std	Z+18, r24	; 0x12
    362e:	78 77       	andi	r23, 0x78	; 120
    3630:	74 74       	andi	r23, 0x44	; 68
    3632:	75 79       	andi	r23, 0x95	; 149
    3634:	95 8d       	ldd	r25, Z+29	; 0x1d
    3636:	8a 84       	ldd	r8, Y+10	; 0x0a
    3638:	83 8d       	ldd	r24, Z+27	; 0x1b
    363a:	84 7c       	andi	r24, 0xC4	; 196
    363c:	80 77       	andi	r24, 0x70	; 112
    363e:	6f 7b       	andi	r22, 0xBF	; 191
    3640:	85 88       	ldd	r8, Z+21	; 0x15
    3642:	83 74       	andi	r24, 0x43	; 67
    3644:	73 70       	andi	r23, 0x03	; 3
    3646:	78 80       	ld	r7, Y
    3648:	80 92 83 8c 	sts	0x8C83, r8	; 0x808c83 <__bss_end+0x8b7f>
    364c:	88 83       	st	Y, r24
    364e:	87 79       	andi	r24, 0x97	; 151
    3650:	7b 7a       	andi	r23, 0xAB	; 171
    3652:	72 77       	andi	r23, 0x72	; 114
    3654:	7d 85       	ldd	r23, Y+13	; 0x0d
    3656:	87 7c       	andi	r24, 0xC7	; 199
    3658:	7d 77       	andi	r23, 0x7D	; 125
    365a:	7d 84       	ldd	r7, Y+13	; 0x0d
    365c:	7c 90       	ld	r7, X
    365e:	91 83       	std	Z+1, r25	; 0x01
    3660:	82 7e       	andi	r24, 0xE2	; 226
    3662:	87 85       	ldd	r24, Z+15	; 0x0f
    3664:	80 7c       	andi	r24, 0xC0	; 192
    3666:	7a 7d       	andi	r23, 0xDA	; 218
    3668:	78 7e       	andi	r23, 0xE8	; 232
    366a:	86 76       	andi	r24, 0x66	; 102
    366c:	72 7b       	andi	r23, 0xB2	; 178
    366e:	77 7d       	andi	r23, 0xD7	; 215
    3670:	7c 8a       	std	Y+20, r7	; 0x14
    3672:	8d 83       	std	Y+5, r24	; 0x05
    3674:	86 79       	andi	r24, 0x96	; 150
    3676:	83 8a       	std	Z+19, r8	; 0x13
    3678:	88 8d       	ldd	r24, Y+24	; 0x18
    367a:	7c 71       	andi	r23, 0x1C	; 28
    367c:	78 78       	andi	r23, 0x88	; 136
    367e:	7f 7d       	andi	r23, 0xDF	; 223
    3680:	6d 70       	andi	r22, 0x0D	; 13
    3682:	6d 77       	andi	r22, 0x7D	; 125
    3684:	7d 84       	ldd	r7, Y+13	; 0x0d
    3686:	98 8b       	std	Y+16, r25	; 0x10
    3688:	8c 8a       	std	Y+20, r8	; 0x14
    368a:	7e 80       	ldd	r7, Y+6	; 0x06
    368c:	7e 7b       	andi	r23, 0xBE	; 190
    368e:	83 7e       	andi	r24, 0xE3	; 227
    3690:	76 83       	std	Z+6, r23	; 0x06
    3692:	85 82       	std	Z+5, r8	; 0x05
    3694:	81 86       	std	Z+9, r8	; 0x09
    3696:	76 78       	andi	r23, 0x86	; 134
    3698:	7d 78       	andi	r23, 0x8D	; 141
    369a:	90 98       	cbi	0x12, 0	; 18
    369c:	8f 8b       	std	Y+23, r24	; 0x17
    369e:	7e 7e       	andi	r23, 0xEE	; 238
    36a0:	7b 71       	andi	r23, 0x1B	; 27
    36a2:	7f 79       	andi	r23, 0x9F	; 159
    36a4:	71 7a       	andi	r23, 0xA1	; 161
    36a6:	8d 88       	ldd	r8, Y+21	; 0x15
    36a8:	82 76       	andi	r24, 0x62	; 98
    36aa:	75 6f       	ori	r23, 0xF5	; 245
    36ac:	70 75       	andi	r23, 0x50	; 80
    36ae:	80 8f       	std	Z+24, r24	; 0x18
    36b0:	86 87       	std	Z+14, r24	; 0x0e
    36b2:	80 84       	ldd	r8, Z+8	; 0x08
    36b4:	86 81       	ldd	r24, Z+6	; 0x06
    36b6:	7f 80       	ldd	r7, Y+7	; 0x07
    36b8:	6f 77       	andi	r22, 0x7F	; 127
    36ba:	7c 7f       	andi	r23, 0xFC	; 252
    36bc:	82 79       	andi	r24, 0x92	; 146
    36be:	7d 71       	andi	r23, 0x1D	; 29
    36c0:	77 73       	andi	r23, 0x37	; 55
    36c2:	84 9c       	mul	r8, r4
    36c4:	8f 8d       	ldd	r24, Y+31	; 0x1f
    36c6:	85 7d       	andi	r24, 0xD5	; 213
    36c8:	83 84       	ldd	r8, Z+11	; 0x0b
    36ca:	80 80       	ld	r8, Z
    36cc:	7d 73       	andi	r23, 0x3D	; 61
    36ce:	7a 7a       	andi	r23, 0xAA	; 170
    36d0:	79 7c       	andi	r23, 0xC9	; 201
    36d2:	7d 87       	std	Y+13, r23	; 0x0d
    36d4:	79 7e       	andi	r23, 0xE9	; 233
    36d6:	7b 8b       	std	Y+19, r23	; 0x13
    36d8:	99 84       	ldd	r9, Y+9	; 0x09
    36da:	88 81       	ld	r24, Y
    36dc:	7d 7f       	andi	r23, 0xFD	; 253
    36de:	7c 82       	std	Y+4, r7	; 0x04
    36e0:	82 74       	andi	r24, 0x42	; 66
    36e2:	7f 81       	ldd	r23, Y+7	; 0x07
    36e4:	87 7e       	andi	r24, 0xE7	; 231
    36e6:	79 7b       	andi	r23, 0xB9	; 185
    36e8:	71 72       	andi	r23, 0x21	; 33
    36ea:	73 8a       	std	Z+19, r7	; 0x13
    36ec:	92 8f       	std	Z+26, r25	; 0x1a
    36ee:	88 80       	ld	r8, Y
    36f0:	86 8b       	std	Z+22, r24	; 0x16
    36f2:	81 7f       	andi	r24, 0xF1	; 241
    36f4:	7d 72       	andi	r23, 0x2D	; 45
    36f6:	75 7f       	andi	r23, 0xF5	; 245
    36f8:	86 83       	std	Z+6, r24	; 0x06
    36fa:	79 72       	andi	r23, 0x29	; 41
    36fc:	70 6e       	ori	r23, 0xE0	; 224
    36fe:	7b 7a       	andi	r23, 0xAB	; 171
    3700:	8c 8f       	std	Y+28, r24	; 0x1c
    3702:	87 88       	ldd	r8, Z+23	; 0x17
    3704:	7d 87       	std	Y+13, r23	; 0x0d
    3706:	7d 76       	andi	r23, 0x6D	; 109
    3708:	81 78       	andi	r24, 0x81	; 129
    370a:	75 77       	andi	r23, 0x75	; 117
    370c:	7e 83       	std	Y+6, r23	; 0x06
    370e:	7e 81       	ldd	r23, Y+6	; 0x06
    3710:	7e 7d       	andi	r23, 0xDE	; 222
    3712:	7f 7f       	andi	r23, 0xFF	; 255
    3714:	88 97       	sbiw	r24, 0x28	; 40
    3716:	8b 80       	ldd	r8, Y+3	; 0x03
    3718:	7c 80       	ldd	r7, Y+4	; 0x04
    371a:	88 83       	st	Y, r24
    371c:	82 7c       	andi	r24, 0xC2	; 194
    371e:	7b 7e       	andi	r23, 0xEB	; 235
    3720:	80 82       	st	Z, r8
    3722:	7a 76       	andi	r23, 0x6A	; 106
    3724:	76 77       	andi	r23, 0x76	; 118
    3726:	79 7b       	andi	r23, 0xB9	; 185
    3728:	82 90       	ld	r8, -Z
    372a:	87 85       	ldd	r24, Z+15	; 0x0f
    372c:	80 7d       	andi	r24, 0xD0	; 208
    372e:	8d 87       	std	Y+13, r24	; 0x0d
    3730:	8b 81       	ldd	r24, Y+3	; 0x03
    3732:	77 7b       	andi	r23, 0xB7	; 183
    3734:	73 7a       	andi	r23, 0xA3	; 163
    3736:	7c 70       	andi	r23, 0x0C	; 12
    3738:	70 6e       	ori	r23, 0xE0	; 224
    373a:	72 7a       	andi	r23, 0xA2	; 162
    373c:	78 91       	.word	0x9178	; ????
    373e:	93 89       	ldd	r25, Z+19	; 0x13
    3740:	89 82       	std	Y+1, r8	; 0x01
    3742:	80 7f       	andi	r24, 0xF0	; 240
    3744:	7c 88       	ldd	r7, Y+20	; 0x14
    3746:	84 76       	andi	r24, 0x64	; 100
    3748:	7e 80       	ldd	r7, Y+6	; 0x06
    374a:	81 7e       	andi	r24, 0xE1	; 225
    374c:	82 81       	ldd	r24, Z+2	; 0x02
    374e:	78 7b       	andi	r23, 0xB8	; 184
    3750:	7b 88       	ldd	r7, Y+19	; 0x13
    3752:	96 90       	elpm	r9, Z
    3754:	8c 85       	ldd	r24, Y+12	; 0x0c
    3756:	81 81       	ldd	r24, Z+1	; 0x01
    3758:	77 77       	andi	r23, 0x77	; 119
    375a:	7b 78       	andi	r23, 0x8B	; 139
    375c:	7b 87       	std	Y+11, r23	; 0x0b
    375e:	87 85       	ldd	r24, Z+15	; 0x0f
    3760:	78 77       	andi	r23, 0x78	; 120
    3762:	70 70       	andi	r23, 0x00	; 0
    3764:	76 79       	andi	r23, 0x96	; 150
    3766:	8e 87       	std	Y+14, r24	; 0x0e
    3768:	87 83       	std	Z+7, r24	; 0x07
    376a:	7d 8a       	std	Y+21, r7	; 0x15
    376c:	81 7c       	andi	r24, 0xC1	; 193
    376e:	80 7a       	andi	r24, 0xA0	; 160
    3770:	7a 75       	andi	r23, 0x5A	; 90
    3772:	7d 80       	ldd	r7, Y+5	; 0x05
    3774:	78 81       	ld	r23, Y
    3776:	75 7b       	andi	r23, 0xB5	; 181
    3778:	74 72       	andi	r23, 0x24	; 36
    377a:	92 97       	sbiw	r26, 0x22	; 34
    377c:	8e 87       	std	Y+14, r24	; 0x0e
    377e:	7f 83       	std	Y+7, r23	; 0x07
    3780:	7a 7f       	andi	r23, 0xFA	; 250
    3782:	84 80       	ldd	r8, Z+4	; 0x04
    3784:	7d 78       	andi	r23, 0x8D	; 141
    3786:	79 73       	andi	r23, 0x39	; 57
    3788:	7a 81       	ldd	r23, Y+2	; 0x02
    378a:	8e 79       	andi	r24, 0x9E	; 158
    378c:	77 7b       	andi	r23, 0xB7	; 183
    378e:	82 99       	sbic	0x10, 2	; 16
    3790:	88 8b       	std	Y+16, r24	; 0x10
    3792:	83 7c       	andi	r24, 0xC3	; 195
    3794:	82 7b       	andi	r24, 0xB2	; 178
    3796:	7e 80       	ldd	r7, Y+6	; 0x06
    3798:	7a 7f       	andi	r23, 0xFA	; 250
    379a:	80 85       	ldd	r24, Z+8	; 0x08
    379c:	84 79       	andi	r24, 0x94	; 148
    379e:	83 70       	andi	r24, 0x03	; 3
    37a0:	75 73       	andi	r23, 0x35	; 53
    37a2:	7d 90       	ld	r7, X+
    37a4:	8a 90       	ld	r8, -Y
    37a6:	81 7f       	andi	r24, 0xF1	; 241
    37a8:	8a 8b       	std	Y+18, r24	; 0x12
    37aa:	7e 82       	std	Y+6, r7	; 0x06
    37ac:	80 74       	andi	r24, 0x40	; 64
    37ae:	74 7f       	andi	r23, 0xF4	; 244
    37b0:	87 80       	ldd	r8, Z+7	; 0x07
    37b2:	77 74       	andi	r23, 0x47	; 71
    37b4:	6c 71       	andi	r22, 0x1C	; 28
    37b6:	71 88       	ldd	r7, Z+17	; 0x11
    37b8:	93 84       	ldd	r9, Z+11	; 0x0b
    37ba:	8a 82       	std	Y+2, r8	; 0x02
    37bc:	7f 7e       	andi	r23, 0xEF	; 239
    37be:	76 7e       	andi	r23, 0xE6	; 230
    37c0:	81 78       	andi	r24, 0x81	; 129
    37c2:	79 76       	andi	r23, 0x69	; 105
    37c4:	81 7e       	andi	r24, 0xE1	; 225
    37c6:	7f 82       	std	Y+7, r7	; 0x07
    37c8:	7b 7c       	andi	r23, 0xCB	; 203
    37ca:	7e 83       	std	Y+6, r23	; 0x06
    37cc:	90 91 83 84 	lds	r25, 0x8483	; 0x808483 <__bss_end+0x837f>
    37d0:	80 80       	ld	r8, Z
    37d2:	7f 82       	std	Y+7, r7	; 0x07
    37d4:	7f 78       	andi	r23, 0x8F	; 143
    37d6:	7f 83       	std	Y+7, r23	; 0x07
    37d8:	80 85       	ldd	r24, Z+8	; 0x08
    37da:	80 78       	andi	r24, 0x80	; 128
    37dc:	75 79       	andi	r23, 0x95	; 149
    37de:	7f 7d       	andi	r23, 0xDF	; 223
    37e0:	91 8b       	std	Z+17, r25	; 0x11
    37e2:	84 82       	std	Z+4, r8	; 0x04
    37e4:	7c 8a       	std	Y+20, r7	; 0x14
    37e6:	8b 83       	std	Y+3, r24	; 0x03
    37e8:	89 7d       	andi	r24, 0xD9	; 217
    37ea:	7a 7a       	andi	r23, 0xAA	; 170
    37ec:	6f 7e       	andi	r22, 0xEF	; 239
    37ee:	7a 72       	andi	r23, 0x2A	; 42
    37f0:	72 6f       	ori	r23, 0xF2	; 242
    37f2:	75 6e       	ori	r23, 0xE5	; 229
    37f4:	7f 99       	sbic	0x0f, 7	; 15
    37f6:	8a 8f       	std	Y+26, r24	; 0x1a
    37f8:	8a 7e       	andi	r24, 0xEA	; 234
    37fa:	7a 77       	andi	r23, 0x7A	; 122
    37fc:	89 8c       	ldd	r8, Y+25	; 0x19
    37fe:	7a 7b       	andi	r23, 0xBA	; 186
    3800:	7d 7c       	andi	r23, 0xCD	; 205
    3802:	83 7e       	andi	r24, 0xE3	; 227
    3804:	82 7b       	andi	r24, 0xB2	; 178
    3806:	78 7c       	andi	r23, 0xC8	; 200
    3808:	7c 90       	ld	r7, X
    380a:	8b 87       	std	Y+11, r24	; 0x0b
    380c:	8d 88       	ldd	r8, Y+21	; 0x15
    380e:	83 78       	andi	r24, 0x83	; 131
    3810:	7b 7b       	andi	r23, 0xBB	; 187
    3812:	77 7e       	andi	r23, 0xE7	; 231
    3814:	87 83       	std	Z+7, r24	; 0x07
    3816:	84 7a       	andi	r24, 0xA4	; 164
    3818:	73 76       	andi	r23, 0x63	; 99
    381a:	6a 78       	andi	r22, 0x8A	; 138
    381c:	73 81       	ldd	r23, Z+3	; 0x03
    381e:	90 82       	st	Z, r9
    3820:	8b 7f       	andi	r24, 0xFB	; 251
    3822:	84 87       	std	Z+12, r24	; 0x0c
    3824:	7b 86       	std	Y+11, r7	; 0x0b
    3826:	7c 7d       	andi	r23, 0xDC	; 220
    3828:	7a 79       	andi	r23, 0x9A	; 154
    382a:	83 7d       	andi	r24, 0xD3	; 211
    382c:	7c 72       	andi	r23, 0x2C	; 44
    382e:	76 79       	andi	r23, 0x96	; 150
    3830:	6d 7e       	andi	r22, 0xED	; 237
    3832:	98 94       	clz
    3834:	90 8c       	ldd	r9, Z+24	; 0x18
    3836:	82 7d       	andi	r24, 0xD2	; 210
    3838:	72 83       	std	Z+2, r23	; 0x02
    383a:	86 84       	ldd	r8, Z+14	; 0x0e
    383c:	7a 78       	andi	r23, 0x8A	; 138
    383e:	77 72       	andi	r23, 0x27	; 39
    3840:	83 8a       	std	Z+19, r8	; 0x13
    3842:	84 72       	andi	r24, 0x24	; 36
    3844:	7a 78       	andi	r23, 0x8A	; 138
    3846:	8d 96       	adiw	r24, 0x2d	; 45
    3848:	81 8d       	ldd	r24, Z+25	; 0x19
    384a:	80 80       	ld	r8, Z
    384c:	7d 79       	andi	r23, 0x9D	; 157
    384e:	81 75       	andi	r24, 0x51	; 81
    3850:	79 84       	ldd	r7, Y+9	; 0x09
    3852:	81 83       	std	Z+1, r24	; 0x01
    3854:	78 7c       	andi	r23, 0xC8	; 200
    3856:	76 73       	andi	r23, 0x36	; 54
    3858:	7f 73       	andi	r23, 0x3F	; 63
    385a:	82 8a       	std	Z+18, r8	; 0x12
    385c:	8d 8f       	std	Y+29, r24	; 0x1d
    385e:	86 85       	ldd	r24, Z+14	; 0x0e
    3860:	86 82       	std	Z+6, r8	; 0x06
    3862:	83 83       	std	Z+3, r24	; 0x03
    3864:	7b 79       	andi	r23, 0x9B	; 155
    3866:	78 81       	ld	r23, Y
    3868:	8c 80       	ldd	r8, Y+4	; 0x04
    386a:	73 6d       	ori	r23, 0xD3	; 211
    386c:	73 74       	andi	r23, 0x43	; 67
    386e:	77 95       	ror	r23
    3870:	8d 84       	ldd	r8, Y+13	; 0x0d
    3872:	86 81       	ldd	r24, Z+6	; 0x06
    3874:	7f 7a       	andi	r23, 0xAF	; 175
    3876:	78 82       	st	Y, r7
    3878:	79 7a       	andi	r23, 0xA9	; 169
    387a:	78 7e       	andi	r23, 0xE8	; 232
    387c:	82 7b       	andi	r24, 0xB2	; 178
    387e:	81 7b       	andi	r24, 0xB1	; 177
    3880:	7b 7b       	andi	r23, 0xBB	; 187
    3882:	7e 83       	std	Y+6, r23	; 0x06
    3884:	92 8a       	std	Z+18, r9	; 0x12
    3886:	86 84       	ldd	r8, Z+14	; 0x0e
    3888:	7c 7c       	andi	r23, 0xCC	; 204
    388a:	7e 87       	std	Y+14, r23	; 0x0e
    388c:	7c 7a       	andi	r23, 0xAC	; 172
    388e:	82 85       	ldd	r24, Z+10	; 0x0a
    3890:	80 85       	ldd	r24, Z+8	; 0x08
    3892:	7b 70       	andi	r23, 0x0B	; 11
    3894:	6f 7f       	andi	r22, 0xFF	; 255
    3896:	83 84       	ldd	r8, Z+11	; 0x0b
    3898:	8f 8b       	std	Y+23, r24	; 0x17
    389a:	89 86       	std	Y+9, r8	; 0x09
    389c:	87 8d       	ldd	r24, Z+31	; 0x1f
    389e:	84 7d       	andi	r24, 0xD4	; 212
    38a0:	80 78       	andi	r24, 0x80	; 128
    38a2:	7e 77       	andi	r23, 0x7E	; 126
    38a4:	77 7e       	andi	r23, 0xE7	; 231
    38a6:	77 71       	andi	r23, 0x17	; 23
    38a8:	6b 75       	andi	r22, 0x5B	; 91
    38aa:	78 70       	andi	r23, 0x08	; 8
    38ac:	8d 95 8c 8a 	jmp	0x631518	; 0x631518 <__TEXT_REGION_LENGTH__+0x611518>
    38b0:	80 7d       	andi	r24, 0xD0	; 208
    38b2:	74 89       	ldd	r23, Z+20	; 0x14
    38b4:	8d 7c       	andi	r24, 0xCD	; 205
    38b6:	73 7b       	andi	r23, 0xB3	; 179
    38b8:	81 83       	std	Z+1, r24	; 0x01
    38ba:	85 7c       	andi	r24, 0xC5	; 197
    38bc:	7c 75       	andi	r23, 0x5C	; 92
    38be:	7c 7c       	andi	r23, 0xCC	; 204
    38c0:	85 8f       	std	Z+29, r24	; 0x1d
    38c2:	84 8c       	ldd	r8, Z+28	; 0x1c
    38c4:	8b 88       	ldd	r8, Y+19	; 0x13
    38c6:	78 74       	andi	r23, 0x48	; 72
    38c8:	7d 75       	andi	r23, 0x5D	; 93
    38ca:	82 89       	ldd	r24, Z+18	; 0x12
    38cc:	8d 83       	std	Y+5, r24	; 0x05
    38ce:	7f 79       	andi	r23, 0x9F	; 159
    38d0:	73 6f       	ori	r23, 0xF3	; 243
    38d2:	70 7a       	andi	r23, 0xA0	; 160
    38d4:	73 89       	ldd	r23, Z+19	; 0x13
    38d6:	8a 89       	ldd	r24, Y+18	; 0x12
    38d8:	88 7e       	andi	r24, 0xE8	; 232
    38da:	87 7d       	andi	r24, 0xD7	; 215
    38dc:	81 7e       	andi	r24, 0xE1	; 225
    38de:	7d 80       	ldd	r7, Y+5	; 0x05
    38e0:	7d 8b       	std	Y+21, r23	; 0x15
    38e2:	7f 7c       	andi	r23, 0xCF	; 207
    38e4:	74 6e       	ori	r23, 0xE4	; 228
    38e6:	7c 75       	andi	r23, 0x5C	; 92
    38e8:	75 89       	ldd	r23, Z+21	; 0x15
    38ea:	95 8e       	std	Z+29, r9	; 0x1d
    38ec:	8a 89       	ldd	r24, Y+18	; 0x12
    38ee:	80 75       	andi	r24, 0x50	; 80
    38f0:	7f 89       	ldd	r23, Y+23	; 0x17
    38f2:	7e 82       	std	Y+6, r7	; 0x06
    38f4:	79 7e       	andi	r23, 0xE9	; 233
    38f6:	76 7f       	andi	r23, 0xF6	; 246
    38f8:	8b 82       	std	Y+3, r8	; 0x03
    38fa:	76 70       	andi	r23, 0x06	; 6
    38fc:	7b 7b       	andi	r23, 0xBB	; 187
    38fe:	97 8f       	std	Z+31, r25	; 0x1f
    3900:	86 89       	ldd	r24, Z+22	; 0x16
    3902:	81 7f       	andi	r24, 0xF1	; 241
    3904:	77 7e       	andi	r23, 0xE7	; 231
    3906:	76 72       	andi	r23, 0x26	; 38
    3908:	80 85       	ldd	r24, Z+8	; 0x08
    390a:	83 7a       	andi	r24, 0xA3	; 163
    390c:	78 7a       	andi	r23, 0xA8	; 168
    390e:	71 81       	ldd	r23, Z+1	; 0x01
    3910:	76 73       	andi	r23, 0x36	; 54
    3912:	88 8e       	std	Y+24, r8	; 0x18
    3914:	94 8b       	std	Z+20, r25	; 0x14
    3916:	89 86       	std	Y+9, r8	; 0x09
    3918:	7d 85       	ldd	r23, Y+13	; 0x0d
    391a:	81 7d       	andi	r24, 0xD1	; 209
    391c:	77 78       	andi	r23, 0x87	; 135
    391e:	7f 84       	ldd	r7, Y+15	; 0x0f
    3920:	88 7b       	andi	r24, 0xB8	; 184
    3922:	6f 73       	andi	r22, 0x3F	; 63
    3924:	77 75       	andi	r23, 0x57	; 87
    3926:	8b 90       	.word	0x908b	; ????
    3928:	85 7f       	andi	r24, 0xF5	; 245
    392a:	84 81       	ldd	r24, Z+4	; 0x04
    392c:	7b 7d       	andi	r23, 0xDB	; 219
    392e:	77 78       	andi	r23, 0x87	; 135
    3930:	77 7d       	andi	r23, 0xD7	; 215
    3932:	7c 84       	ldd	r7, Y+12	; 0x0c
    3934:	7e 81       	ldd	r23, Y+6	; 0x06
    3936:	7d 78       	andi	r23, 0x8D	; 141
    3938:	7d 7c       	andi	r23, 0xCD	; 205
    393a:	80 8c       	ldd	r8, Z+24	; 0x18
    393c:	94 86       	std	Z+12, r9	; 0x0c
    393e:	80 7b       	andi	r24, 0xB0	; 176
    3940:	7a 79       	andi	r23, 0x9A	; 154
    3942:	85 81       	ldd	r24, Z+5	; 0x05
    3944:	79 81       	ldd	r23, Y+1	; 0x01
    3946:	82 86       	std	Z+10, r8	; 0x0a
    3948:	87 81       	ldd	r24, Z+7	; 0x07
    394a:	77 6d       	ori	r23, 0xD7	; 215
    394c:	77 81       	ldd	r23, Z+7	; 0x07
    394e:	7e 90       	ld	r7, -X
    3950:	90 8a       	std	Z+16, r9	; 0x10
    3952:	8a 86       	std	Y+10, r8	; 0x0a
    3954:	8a 87       	std	Y+10, r24	; 0x0a
    3956:	7e 7e       	andi	r23, 0xEE	; 238
    3958:	79 7f       	andi	r23, 0xF9	; 249
    395a:	7f 7a       	andi	r23, 0xAF	; 175
    395c:	7d 77       	andi	r23, 0x7D	; 125
    395e:	7a 71       	andi	r23, 0x1A	; 26
    3960:	6b 79       	andi	r22, 0x9B	; 155
    3962:	6e 80       	ldd	r6, Y+6	; 0x06
    3964:	93 8a       	std	Z+19, r9	; 0x13
    3966:	8c 82       	std	Y+4, r8	; 0x04
    3968:	81 79       	andi	r24, 0x91	; 145
    396a:	87 89       	ldd	r24, Z+23	; 0x17
    396c:	75 73       	andi	r23, 0x35	; 53
    396e:	78 7d       	andi	r23, 0xD8	; 216
    3970:	87 8b       	std	Z+23, r24	; 0x17
    3972:	7a 79       	andi	r23, 0x9A	; 154
    3974:	6e 79       	andi	r22, 0x9E	; 158
    3976:	7e 7c       	andi	r23, 0xCE	; 206
    3978:	91 86       	std	Z+9, r9	; 0x09
    397a:	87 88       	ldd	r8, Z+23	; 0x17
    397c:	87 86       	std	Z+15, r8	; 0x0f
    397e:	73 7f       	andi	r23, 0xF3	; 243
    3980:	76 7d       	andi	r23, 0xD6	; 214
    3982:	86 88       	ldd	r8, Z+22	; 0x16
    3984:	88 7b       	andi	r24, 0xB8	; 184
    3986:	7d 7a       	andi	r23, 0xAD	; 173
    3988:	76 70       	andi	r23, 0x06	; 6
    398a:	79 74       	andi	r23, 0x49	; 73
    398c:	86 91       	elpm	r24, Z
    398e:	8a 8c       	ldd	r8, Y+26	; 0x1a
    3990:	82 83       	std	Z+2, r24	; 0x02
    3992:	7e 80       	ldd	r7, Y+6	; 0x06
    3994:	7b 7a       	andi	r23, 0xAB	; 171
    3996:	82 7e       	andi	r24, 0xE2	; 226
    3998:	8d 86       	std	Y+13, r8	; 0x0d
    399a:	7b 7c       	andi	r23, 0xCB	; 203
    399c:	6e 72       	andi	r22, 0x2E	; 46
    399e:	7c 76       	andi	r23, 0x6C	; 108
    39a0:	80 8e       	std	Z+24, r8	; 0x18
    39a2:	89 8a       	std	Y+17, r8	; 0x11
    39a4:	85 81       	ldd	r24, Z+5	; 0x05
    39a6:	7d 76       	andi	r23, 0x6D	; 109
    39a8:	82 7b       	andi	r24, 0xB2	; 178
    39aa:	81 81       	ldd	r24, Z+1	; 0x01
    39ac:	7f 7d       	andi	r23, 0xDF	; 223
    39ae:	82 89       	ldd	r24, Z+18	; 0x12
    39b0:	82 78       	andi	r24, 0x82	; 130
    39b2:	69 76       	andi	r22, 0x69	; 105
    39b4:	75 90       	lpm	r7, Z+
    39b6:	93 84       	ldd	r9, Z+11	; 0x0b
    39b8:	85 81       	ldd	r24, Z+5	; 0x05
    39ba:	83 7b       	andi	r24, 0xB3	; 179
    39bc:	80 7d       	andi	r24, 0xD0	; 208
    39be:	75 7c       	andi	r23, 0xC5	; 197
    39c0:	84 81       	ldd	r24, Z+4	; 0x04
    39c2:	78 76       	andi	r23, 0x68	; 104
    39c4:	7b 79       	andi	r23, 0x9B	; 155
    39c6:	7a 74       	andi	r23, 0x4A	; 74
    39c8:	72 86       	std	Z+10, r7	; 0x0a
    39ca:	8e 91       	ld	r24, -X
    39cc:	98 91       	.word	0x9198	; ????
    39ce:	8b 7f       	andi	r24, 0xFB	; 251
    39d0:	81 7e       	andi	r24, 0xE1	; 225
    39d2:	79 7c       	andi	r23, 0xC9	; 201
    39d4:	7b 7b       	andi	r23, 0xBB	; 187
    39d6:	7f 8a       	std	Y+23, r7	; 0x17
    39d8:	83 78       	andi	r24, 0x83	; 131
    39da:	6e 77       	andi	r22, 0x7E	; 126
    39dc:	77 86       	std	Z+15, r7	; 0x0f
    39de:	90 80       	ld	r9, Z
    39e0:	85 7a       	andi	r24, 0xA5	; 165
    39e2:	85 82       	std	Z+5, r8	; 0x05
    39e4:	81 79       	andi	r24, 0x91	; 145
    39e6:	70 7b       	andi	r23, 0xB0	; 176
    39e8:	7a 7d       	andi	r23, 0xDA	; 218
    39ea:	7c 83       	std	Y+4, r23	; 0x04
    39ec:	7e 81       	ldd	r23, Y+6	; 0x06
    39ee:	72 73       	andi	r23, 0x32	; 50
    39f0:	7d 77       	andi	r23, 0x7D	; 125
    39f2:	89 90       	ld	r8, Y+
    39f4:	84 84       	ldd	r8, Z+12	; 0x0c
    39f6:	80 7f       	andi	r24, 0xF0	; 240
    39f8:	78 83       	st	Y, r23
    39fa:	85 7d       	andi	r24, 0xD5	; 213
    39fc:	84 7c       	andi	r24, 0xC4	; 196
    39fe:	7f 85       	ldd	r23, Y+15	; 0x0f
    3a00:	83 81       	ldd	r24, Z+3	; 0x03
    3a02:	78 6e       	ori	r23, 0xE8	; 232
    3a04:	79 81       	ldd	r23, Y+1	; 0x01
    3a06:	8c 96       	adiw	r24, 0x2c	; 44
    3a08:	8a 8f       	std	Y+26, r24	; 0x1a
    3a0a:	8c 8b       	std	Y+20, r24	; 0x14
    3a0c:	85 7d       	andi	r24, 0xD5	; 213
    3a0e:	7d 70       	andi	r23, 0x0D	; 13
    3a10:	80 85       	ldd	r24, Z+8	; 0x08
    3a12:	7b 7d       	andi	r23, 0xDB	; 219
    3a14:	7c 7e       	andi	r23, 0xEC	; 236
    3a16:	7b 68       	ori	r23, 0x8B	; 139
    3a18:	74 72       	andi	r23, 0x24	; 36
    3a1a:	75 93       	las	Z, r23
    3a1c:	86 86       	std	Z+14, r8	; 0x0e
    3a1e:	85 7c       	andi	r24, 0xC5	; 197
    3a20:	7d 85       	ldd	r23, Y+13	; 0x0d
    3a22:	87 7e       	andi	r24, 0xE7	; 231
    3a24:	73 77       	andi	r23, 0x73	; 115
    3a26:	7a 82       	std	Y+2, r7	; 0x02
    3a28:	8f 87       	std	Y+15, r24	; 0x0f
    3a2a:	81 68       	ori	r24, 0x81	; 129
    3a2c:	6e 79       	andi	r22, 0x9E	; 158
    3a2e:	71 8a       	std	Z+17, r7	; 0x11
    3a30:	8e 7d       	andi	r24, 0xDE	; 222
    3a32:	88 8c       	ldd	r8, Y+24	; 0x18
    3a34:	8a 78       	andi	r24, 0x8A	; 138
    3a36:	7f 81       	ldd	r23, Y+7	; 0x07
    3a38:	82 88       	ldd	r8, Z+18	; 0x12
    3a3a:	80 84       	ldd	r8, Z+8	; 0x08
    3a3c:	7c 7b       	andi	r23, 0xBC	; 188
    3a3e:	87 7a       	andi	r24, 0xA7	; 167
    3a40:	6b 75       	andi	r22, 0x5B	; 91
    3a42:	6d 83       	std	Y+5, r22	; 0x05
    3a44:	91 8d       	ldd	r25, Z+25	; 0x19
    3a46:	8d 84       	ldd	r8, Y+13	; 0x0d
    3a48:	80 7a       	andi	r24, 0xA0	; 160
    3a4a:	7f 7f       	andi	r23, 0xFF	; 255
    3a4c:	79 7d       	andi	r23, 0xD9	; 217
    3a4e:	7c 86       	std	Y+12, r7	; 0x0c
    3a50:	8b 80       	ldd	r8, Y+3	; 0x03
    3a52:	80 71       	andi	r24, 0x10	; 16
    3a54:	69 7a       	andi	r22, 0xA9	; 169
    3a56:	7c 82       	std	Y+4, r7	; 0x04
    3a58:	8d 85       	ldd	r24, Y+13	; 0x0d
    3a5a:	87 89       	ldd	r24, Z+23	; 0x17
    3a5c:	82 7d       	andi	r24, 0xD2	; 210
    3a5e:	79 78       	andi	r23, 0x89	; 137
    3a60:	7c 84       	ldd	r7, Y+12	; 0x0c
    3a62:	7f 81       	ldd	r23, Y+7	; 0x07
    3a64:	7d 83       	std	Y+5, r23	; 0x05
    3a66:	90 85       	ldd	r25, Z+8	; 0x08
    3a68:	7b 6a       	ori	r23, 0xAB	; 171
    3a6a:	77 71       	andi	r23, 0x17	; 23
    3a6c:	8a 96       	adiw	r24, 0x2a	; 42
    3a6e:	84 8b       	std	Z+20, r24	; 0x14
    3a70:	80 81       	ld	r24, Z
    3a72:	79 7e       	andi	r23, 0xE9	; 233
    3a74:	7b 76       	andi	r23, 0x6B	; 107
    3a76:	75 79       	andi	r23, 0x95	; 149
    3a78:	83 7d       	andi	r24, 0xD3	; 211
    3a7a:	7e 7b       	andi	r23, 0xBE	; 190
    3a7c:	7a 79       	andi	r23, 0x9A	; 154
    3a7e:	76 76       	andi	r23, 0x66	; 102
    3a80:	7b 8b       	std	Y+19, r23	; 0x13
    3a82:	8d 98       	cbi	0x11, 5	; 17
    3a84:	93 8d       	ldd	r25, Z+27	; 0x1b
    3a86:	7c 7d       	andi	r23, 0xDC	; 220
    3a88:	83 7a       	andi	r24, 0xA3	; 163
    3a8a:	7f 7b       	andi	r23, 0xBF	; 191
    3a8c:	7e 7b       	andi	r23, 0xBE	; 190
    3a8e:	87 8e       	std	Z+31, r8	; 0x1f
    3a90:	76 73       	andi	r23, 0x36	; 54
    3a92:	7a 76       	andi	r23, 0x6A	; 106
    3a94:	82 8d       	ldd	r24, Z+26	; 0x1a
    3a96:	7d 84       	ldd	r7, Y+13	; 0x0d
    3a98:	80 82       	st	Z, r8
    3a9a:	83 7f       	andi	r24, 0xF3	; 243
    3a9c:	7e 71       	andi	r23, 0x1E	; 30
    3a9e:	77 7d       	andi	r23, 0xD7	; 215
    3aa0:	81 7f       	andi	r24, 0xF1	; 241
    3aa2:	85 83       	std	Z+5, r24	; 0x05
    3aa4:	78 72       	andi	r23, 0x28	; 40
    3aa6:	77 7c       	andi	r23, 0xC7	; 199
    3aa8:	7c 7e       	andi	r23, 0xEC	; 236
    3aaa:	8f 89       	ldd	r24, Y+23	; 0x17
    3aac:	86 87       	std	Z+14, r24	; 0x0e
    3aae:	7a 7c       	andi	r23, 0xCA	; 202
    3ab0:	7e 87       	std	Y+14, r23	; 0x0e
    3ab2:	81 81       	ldd	r24, Z+1	; 0x01
    3ab4:	80 7a       	andi	r24, 0xA0	; 160
    3ab6:	88 89       	ldd	r24, Y+16	; 0x10
    3ab8:	83 7a       	andi	r24, 0xA3	; 163
    3aba:	6f 77       	andi	r22, 0x7F	; 127
    3abc:	7a 88       	ldd	r7, Y+18	; 0x12
    3abe:	84 8f       	std	Z+28, r24	; 0x1c
    3ac0:	95 88       	ldd	r9, Z+21	; 0x15
    3ac2:	92 7f       	andi	r25, 0xF2	; 242
    3ac4:	7e 81       	ldd	r23, Y+6	; 0x06
    3ac6:	73 79       	andi	r23, 0x93	; 147
    3ac8:	7f 81       	ldd	r23, Y+7	; 0x07
    3aca:	80 7d       	andi	r24, 0xD0	; 208
    3acc:	7f 7c       	andi	r23, 0xCF	; 207
    3ace:	6f 7a       	andi	r22, 0xAF	; 175
    3ad0:	76 73       	andi	r23, 0x36	; 54
    3ad2:	75 78       	andi	r23, 0x85	; 133
    3ad4:	92 86       	std	Z+10, r9	; 0x0a
    3ad6:	8a 7b       	andi	r24, 0xBA	; 186
    3ad8:	86 87       	std	Z+14, r24	; 0x0e
    3ada:	7e 76       	andi	r23, 0x6E	; 110
    3adc:	6b 76       	andi	r22, 0x6B	; 107
    3ade:	80 94       	com	r8
    3ae0:	8d 89       	ldd	r24, Y+21	; 0x15
    3ae2:	70 6f       	ori	r23, 0xF0	; 240
    3ae4:	7c 77       	andi	r23, 0x7C	; 124
    3ae6:	7a 7b       	andi	r23, 0xBA	; 186
    3ae8:	78 89       	ldd	r23, Y+16	; 0x10
    3aea:	84 90       	lpm	r8, Z
    3aec:	85 80       	ldd	r8, Z+5	; 0x05
    3aee:	87 81       	ldd	r24, Z+7	; 0x07
    3af0:	88 7b       	andi	r24, 0xB8	; 184
    3af2:	85 85       	ldd	r24, Z+13	; 0x0d
    3af4:	7e 86       	std	Y+14, r7	; 0x0e
    3af6:	85 79       	andi	r24, 0x95	; 149
    3af8:	77 6e       	ori	r23, 0xE7	; 231
    3afa:	79 7a       	andi	r23, 0xA9	; 169
    3afc:	85 86       	std	Z+13, r8	; 0x0d
    3afe:	89 8a       	std	Y+17, r8	; 0x11
    3b00:	80 8b       	std	Z+16, r24	; 0x10
    3b02:	82 7f       	andi	r24, 0xF2	; 242
    3b04:	79 7c       	andi	r23, 0xC9	; 201
    3b06:	82 84       	ldd	r8, Z+10	; 0x0a
    3b08:	81 81       	ldd	r24, Z+1	; 0x01
    3b0a:	76 76       	andi	r23, 0x66	; 102
    3b0c:	7a 7e       	andi	r23, 0xEA	; 234
    3b0e:	79 79       	andi	r23, 0x99	; 153
    3b10:	76 77       	andi	r23, 0x76	; 118
    3b12:	7e 82       	std	Y+6, r7	; 0x06
    3b14:	92 82       	std	Z+2, r9	; 0x02
    3b16:	88 7c       	andi	r24, 0xC8	; 200
    3b18:	7a 7d       	andi	r23, 0xDA	; 218
    3b1a:	7a 8e       	std	Y+26, r7	; 0x1a
    3b1c:	82 86       	std	Z+10, r8	; 0x0a
    3b1e:	8b 80       	ldd	r8, Y+3	; 0x03
    3b20:	81 7b       	andi	r24, 0xB1	; 177
    3b22:	73 75       	andi	r23, 0x53	; 83
    3b24:	7c 80       	ldd	r7, Y+4	; 0x04
    3b26:	78 7c       	andi	r23, 0xC8	; 200
    3b28:	76 8a       	std	Z+22, r7	; 0x16
    3b2a:	8c 8c       	ldd	r8, Y+28	; 0x1c
    3b2c:	88 73       	andi	r24, 0x38	; 56
    3b2e:	78 73       	andi	r23, 0x38	; 56
    3b30:	81 84       	ldd	r8, Z+9	; 0x09
    3b32:	80 80       	ld	r8, Z
    3b34:	8e 80       	ldd	r8, Y+6	; 0x06
    3b36:	82 78       	andi	r24, 0x82	; 130
    3b38:	70 7f       	andi	r23, 0xF0	; 240
    3b3a:	82 89       	ldd	r24, Z+18	; 0x12
    3b3c:	81 80       	ldd	r8, Z+1	; 0x01
    3b3e:	87 8b       	std	Z+23, r24	; 0x17
    3b40:	87 8d       	ldd	r24, Z+31	; 0x1f
    3b42:	7f 7a       	andi	r23, 0xAF	; 175
    3b44:	76 72       	andi	r23, 0x26	; 38
    3b46:	7d 7b       	andi	r23, 0xBD	; 189
    3b48:	7e 83       	std	Y+6, r23	; 0x06
    3b4a:	8f 90       	pop	r8
    3b4c:	84 82       	std	Z+4, r8	; 0x04
    3b4e:	77 72       	andi	r23, 0x27	; 39
    3b50:	71 77       	andi	r23, 0x71	; 113
    3b52:	84 7c       	andi	r24, 0xC4	; 196
    3b54:	87 83       	std	Z+7, r24	; 0x07
    3b56:	7f 8f       	std	Y+31, r23	; 0x1f
    3b58:	86 89       	ldd	r24, Z+22	; 0x16
    3b5a:	7a 77       	andi	r23, 0x7A	; 122
    3b5c:	74 70       	andi	r23, 0x04	; 4
    3b5e:	7c 7d       	andi	r23, 0xDC	; 220
    3b60:	7a 84       	ldd	r7, Y+10	; 0x0a
    3b62:	8c 7e       	andi	r24, 0xEC	; 236
    3b64:	76 6e       	ori	r23, 0xE6	; 230
    3b66:	74 75       	andi	r23, 0x54	; 84
    3b68:	86 8e       	std	Z+30, r8	; 0x1e
    3b6a:	92 8e       	std	Z+26, r9	; 0x1a
    3b6c:	89 7f       	andi	r24, 0xF9	; 249
    3b6e:	7a 7a       	andi	r23, 0xAA	; 170
    3b70:	6d 75       	andi	r22, 0x5D	; 93
    3b72:	6b 73       	andi	r22, 0x3B	; 59
    3b74:	76 7a       	andi	r23, 0xA6	; 166
    3b76:	8b 8d       	ldd	r24, Y+27	; 0x1b
    3b78:	92 92       	st	-Z, r9
    3b7a:	86 85       	ldd	r24, Z+14	; 0x0e
    3b7c:	79 75       	andi	r23, 0x59	; 89
    3b7e:	75 8e       	std	Z+29, r7	; 0x1d
    3b80:	99 88       	ldd	r9, Y+17	; 0x11
    3b82:	8b 76       	andi	r24, 0x6B	; 107
    3b84:	7a 7d       	andi	r23, 0xDA	; 218
    3b86:	7e 88       	ldd	r7, Y+22	; 0x16
    3b88:	76 7e       	andi	r23, 0xE6	; 230
    3b8a:	7a 75       	andi	r23, 0x5A	; 90
    3b8c:	80 80       	ld	r8, Z
    3b8e:	7b 81       	ldd	r23, Y+3	; 0x03
    3b90:	93 81       	ldd	r25, Z+3	; 0x03
    3b92:	7b 77       	andi	r23, 0x7B	; 123
    3b94:	78 8b       	std	Y+16, r23	; 0x10
    3b96:	8f 95 8d 7c 	call	0x62f91a	; 0x62f91a <__TEXT_REGION_LENGTH__+0x60f91a>
    3b9a:	7d 70       	andi	r23, 0x0D	; 13
    3b9c:	79 71       	andi	r23, 0x19	; 25
    3b9e:	6c 79       	andi	r22, 0x9C	; 156
    3ba0:	75 7d       	andi	r23, 0xD5	; 213
    3ba2:	78 7f       	andi	r23, 0xF8	; 248
    3ba4:	83 81       	ldd	r24, Z+3	; 0x03
    3ba6:	89 86       	std	Y+9, r8	; 0x09
    3ba8:	83 7f       	andi	r24, 0xF3	; 243
    3baa:	7e 87       	std	Y+14, r23	; 0x0e
    3bac:	7e 8c       	ldd	r7, Y+30	; 0x1e
    3bae:	83 7e       	andi	r24, 0xE3	; 227
    3bb0:	74 6f       	ori	r23, 0xF4	; 244
    3bb2:	7b 78       	andi	r23, 0x8B	; 139
    3bb4:	7c 89       	ldd	r23, Y+20	; 0x14
    3bb6:	86 85       	ldd	r24, Z+14	; 0x0e
    3bb8:	80 75       	andi	r24, 0x50	; 80
    3bba:	7d 7b       	andi	r23, 0xBD	; 189
    3bbc:	7c 85       	ldd	r23, Y+12	; 0x0c
    3bbe:	90 86       	std	Z+8, r9	; 0x08
    3bc0:	8a 87       	std	Y+10, r24	; 0x0a
    3bc2:	8a 87       	std	Y+10, r24	; 0x0a
    3bc4:	86 86       	std	Z+14, r8	; 0x0e
    3bc6:	7b 80       	ldd	r7, Y+3	; 0x03
    3bc8:	76 70       	andi	r23, 0x06	; 6
    3bca:	7b 79       	andi	r23, 0x9B	; 155
    3bcc:	82 81       	ldd	r24, Z+2	; 0x02
    3bce:	79 75       	andi	r23, 0x59	; 89
    3bd0:	71 84       	ldd	r7, Z+9	; 0x09
    3bd2:	85 85       	ldd	r24, Z+13	; 0x0d
    3bd4:	88 8c       	ldd	r8, Y+24	; 0x18
    3bd6:	8c 84       	ldd	r8, Y+12	; 0x0c
    3bd8:	82 7c       	andi	r24, 0xC2	; 194
    3bda:	75 74       	andi	r23, 0x45	; 69
    3bdc:	7d 7e       	andi	r23, 0xED	; 237
    3bde:	6e 76       	andi	r22, 0x6E	; 110
    3be0:	83 85       	ldd	r24, Z+11	; 0x0b
    3be2:	8e 8b       	std	Y+22, r24	; 0x16
    3be4:	80 7b       	andi	r24, 0xB0	; 176
    3be6:	71 73       	andi	r23, 0x31	; 49
    3be8:	7c 7b       	andi	r23, 0xBC	; 188
    3bea:	7e 90       	ld	r7, -X
    3bec:	8a 85       	ldd	r24, Y+10	; 0x0a
    3bee:	85 78       	andi	r24, 0x85	; 133
    3bf0:	7c 76       	andi	r23, 0x6C	; 108
    3bf2:	83 84       	ldd	r8, Z+11	; 0x0b
    3bf4:	81 87       	std	Z+9, r24	; 0x09
    3bf6:	81 7f       	andi	r24, 0xF1	; 241
    3bf8:	84 76       	andi	r24, 0x64	; 100
    3bfa:	71 71       	andi	r23, 0x11	; 17
    3bfc:	73 76       	andi	r23, 0x63	; 99
    3bfe:	74 87       	std	Z+12, r23	; 0x0c
    3c00:	83 90       	.word	0x9083	; ????
    3c02:	8e 88       	ldd	r8, Y+22	; 0x16
    3c04:	90 75       	andi	r25, 0x50	; 80
    3c06:	78 71       	andi	r23, 0x18	; 24
    3c08:	78 7f       	andi	r23, 0xF8	; 248
    3c0a:	7d 85       	ldd	r23, Y+13	; 0x0d
    3c0c:	81 8a       	std	Z+17, r8	; 0x11
    3c0e:	89 84       	ldd	r8, Y+9	; 0x09
    3c10:	7f 7c       	andi	r23, 0xCF	; 207
    3c12:	7f 82       	std	Y+7, r7	; 0x07
    3c14:	71 7b       	andi	r23, 0xB1	; 177
    3c16:	7f 7d       	andi	r23, 0xDF	; 223
    3c18:	96 8a       	std	Z+22, r9	; 0x16
    3c1a:	91 7f       	andi	r25, 0xF1	; 241
    3c1c:	75 73       	andi	r23, 0x35	; 53
    3c1e:	75 80       	ldd	r7, Z+5	; 0x05
    3c20:	81 8b       	std	Z+17, r24	; 0x11
    3c22:	8e 8d       	ldd	r24, Y+30	; 0x1e
    3c24:	85 8a       	std	Z+21, r8	; 0x15
    3c26:	80 73       	andi	r24, 0x30	; 48
    3c28:	75 71       	andi	r23, 0x15	; 21
    3c2a:	7b 79       	andi	r23, 0x9B	; 155
    3c2c:	80 7d       	andi	r24, 0xD0	; 208
    3c2e:	85 92       	las	Z, r8
    3c30:	81 8d       	ldd	r24, Z+25	; 0x19
    3c32:	79 6e       	ori	r23, 0xE9	; 233
    3c34:	6c 70       	andi	r22, 0x0C	; 12
    3c36:	77 7c       	andi	r23, 0xC7	; 199
    3c38:	87 84       	ldd	r8, Z+15	; 0x0f
    3c3a:	81 81       	ldd	r24, Z+1	; 0x01
    3c3c:	85 7f       	andi	r24, 0xF5	; 245
    3c3e:	7f 7a       	andi	r23, 0xAF	; 175
    3c40:	7d 7b       	andi	r23, 0xBD	; 189
    3c42:	70 84       	ldd	r7, Z+8	; 0x08
    3c44:	80 90 94 88 	lds	r8, 0x8894	; 0x808894 <__bss_end+0x8790>
    3c48:	8f 7b       	andi	r24, 0xBF	; 191
    3c4a:	7b 75       	andi	r23, 0x5B	; 91
    3c4c:	79 81       	ldd	r23, Y+1	; 0x01
    3c4e:	88 8e       	std	Y+24, r8	; 0x18
    3c50:	92 89       	ldd	r25, Z+18	; 0x12
    3c52:	7c 79       	andi	r23, 0x9C	; 156
    3c54:	72 6f       	ori	r23, 0xF2	; 242
    3c56:	74 77       	andi	r23, 0x74	; 116
    3c58:	79 79       	andi	r23, 0x99	; 153
    3c5a:	7f 80       	ldd	r7, Y+7	; 0x07
    3c5c:	94 92       	xch	Z, r9
    3c5e:	83 85       	ldd	r24, Z+11	; 0x0b
    3c60:	72 75       	andi	r23, 0x52	; 82
    3c62:	74 79       	andi	r23, 0x94	; 148
    3c64:	81 84       	ldd	r8, Z+9	; 0x09
    3c66:	8a 88       	ldd	r8, Y+18	; 0x12
    3c68:	81 7e       	andi	r24, 0xE1	; 225
    3c6a:	77 7a       	andi	r23, 0xA7	; 167
    3c6c:	78 7b       	andi	r23, 0xB8	; 184
    3c6e:	84 7d       	andi	r24, 0xD4	; 212
    3c70:	72 78       	andi	r23, 0x82	; 130
    3c72:	7b 8e       	std	Y+27, r7	; 0x1b
    3c74:	88 85       	ldd	r24, Y+8	; 0x08
    3c76:	84 75       	andi	r24, 0x54	; 84
    3c78:	77 75       	andi	r23, 0x57	; 87
    3c7a:	82 85       	ldd	r24, Z+10	; 0x0a
    3c7c:	8e 8c       	ldd	r8, Y+30	; 0x1e
    3c7e:	8b 83       	std	Y+3, r24	; 0x03
    3c80:	7e 7f       	andi	r23, 0xFE	; 254
    3c82:	75 74       	andi	r23, 0x45	; 69
    3c84:	79 7a       	andi	r23, 0xA9	; 169
    3c86:	7c 80       	ldd	r7, Y+4	; 0x04
    3c88:	79 7e       	andi	r23, 0xE9	; 233
    3c8a:	92 8a       	std	Z+18, r9	; 0x12
    3c8c:	88 87       	std	Y+8, r24	; 0x08
    3c8e:	77 74       	andi	r23, 0x47	; 71
    3c90:	71 7c       	andi	r23, 0xC1	; 193
    3c92:	7a 85       	ldd	r23, Y+10	; 0x0a
    3c94:	8b 81       	ldd	r24, Y+3	; 0x03
    3c96:	7d 7c       	andi	r23, 0xCD	; 205
    3c98:	7d 7e       	andi	r23, 0xED	; 237
    3c9a:	82 82       	std	Z+2, r8	; 0x02
    3c9c:	84 7c       	andi	r24, 0xC4	; 196
    3c9e:	77 82       	std	Z+7, r7	; 0x07
    3ca0:	87 98       	cbi	0x10, 7	; 16
    3ca2:	8d 91       	ld	r24, X+
    3ca4:	86 7a       	andi	r24, 0xA6	; 166
    3ca6:	77 72       	andi	r23, 0x27	; 39
    3ca8:	7b 7a       	andi	r23, 0xAB	; 171
    3caa:	8b 8c       	ldd	r8, Y+27	; 0x1b
    3cac:	8e 83       	std	Y+6, r24	; 0x06
    3cae:	77 7b       	andi	r23, 0xB7	; 183
    3cb0:	72 74       	andi	r23, 0x42	; 66
    3cb2:	7a 75       	andi	r23, 0x5A	; 90
    3cb4:	78 78       	andi	r23, 0x88	; 136
    3cb6:	7a 87       	std	Y+10, r23	; 0x0a
    3cb8:	93 88       	ldd	r9, Z+19	; 0x13
    3cba:	88 7e       	andi	r24, 0xE8	; 232
    3cbc:	74 74       	andi	r23, 0x44	; 68
    3cbe:	78 79       	andi	r23, 0x98	; 152
    3cc0:	77 83       	std	Z+7, r23	; 0x07
    3cc2:	85 87       	std	Z+13, r24	; 0x0d
    3cc4:	82 7e       	andi	r24, 0xE2	; 226
    3cc6:	7e 78       	andi	r23, 0x8E	; 142
    3cc8:	80 82       	st	Z, r8
    3cca:	83 78       	andi	r24, 0x83	; 131
    3ccc:	70 7b       	andi	r23, 0xB0	; 176
    3cce:	86 93       	lac	Z, r24
    3cd0:	8b 8d       	ldd	r24, Y+27	; 0x1b
    3cd2:	81 72       	andi	r24, 0x21	; 33
    3cd4:	71 79       	andi	r23, 0x91	; 145
    3cd6:	7e 82       	std	Y+6, r7	; 0x06
    3cd8:	8c 8b       	std	Y+20, r24	; 0x14
    3cda:	8c 85       	ldd	r24, Y+12	; 0x0c
    3cdc:	83 80       	ldd	r8, Z+3	; 0x03
    3cde:	76 7b       	andi	r23, 0xB6	; 182
    3ce0:	7d 7c       	andi	r23, 0xCD	; 205
    3ce2:	7b 75       	andi	r23, 0x5B	; 91
    3ce4:	78 8b       	std	Y+16, r23	; 0x10
    3ce6:	8e 87       	std	Y+14, r24	; 0x0e
    3ce8:	89 7c       	andi	r24, 0xC9	; 201
    3cea:	70 6f       	ori	r23, 0xF0	; 240
    3cec:	77 75       	andi	r23, 0x57	; 87
    3cee:	7d 86       	std	Y+13, r7	; 0x0d
    3cf0:	86 82       	std	Z+6, r8	; 0x06
    3cf2:	7e 81       	ldd	r23, Y+6	; 0x06
    3cf4:	7c 7e       	andi	r23, 0xEC	; 236
    3cf6:	83 81       	ldd	r24, Z+3	; 0x03
    3cf8:	84 78       	andi	r24, 0x84	; 132
    3cfa:	78 82       	st	Y, r7
    3cfc:	8e 92       	st	-X, r8
    3cfe:	85 8c       	ldd	r8, Z+29	; 0x1d
    3d00:	7c 74       	andi	r23, 0x4C	; 76
    3d02:	71 78       	andi	r23, 0x81	; 129
    3d04:	7d 82       	std	Y+5, r7	; 0x05
    3d06:	8e 8f       	std	Y+30, r24	; 0x1e
    3d08:	8b 7e       	andi	r24, 0xEB	; 235
    3d0a:	7c 79       	andi	r23, 0x9C	; 156
    3d0c:	73 76       	andi	r23, 0x63	; 99
    3d0e:	79 78       	andi	r23, 0x89	; 137
    3d10:	70 74       	andi	r23, 0x40	; 64
    3d12:	7c 90       	ld	r7, X
    3d14:	8e 85       	ldd	r24, Y+14	; 0x0e
    3d16:	85 78       	andi	r24, 0x85	; 133
    3d18:	79 77       	andi	r23, 0x79	; 121
    3d1a:	79 7e       	andi	r23, 0xE9	; 233
    3d1c:	83 87       	std	Z+11, r24	; 0x0b
    3d1e:	8b 83       	std	Y+3, r24	; 0x03
    3d20:	79 7b       	andi	r23, 0xB9	; 185
    3d22:	79 78       	andi	r23, 0x89	; 137
    3d24:	82 85       	ldd	r24, Z+10	; 0x0a
    3d26:	84 73       	andi	r24, 0x34	; 52
    3d28:	75 80       	ldd	r7, Z+5	; 0x05
    3d2a:	95 92       	las	Z, r9
    3d2c:	89 89       	ldd	r24, Y+17	; 0x11
    3d2e:	76 75       	andi	r23, 0x56	; 86
    3d30:	73 7e       	andi	r23, 0xE3	; 227
    3d32:	80 83       	st	Z, r24
    3d34:	8d 8b       	std	Y+21, r24	; 0x15
    3d36:	8a 85       	ldd	r24, Y+10	; 0x0a
    3d38:	80 7b       	andi	r24, 0xB0	; 176
    3d3a:	79 7a       	andi	r23, 0xA9	; 169
    3d3c:	7f 7e       	andi	r23, 0xEF	; 239
    3d3e:	76 76       	andi	r23, 0x66	; 102
    3d40:	7f 8e       	std	Y+31, r7	; 0x1f
    3d42:	87 8c       	ldd	r8, Z+31	; 0x1f
    3d44:	85 7a       	andi	r24, 0xA5	; 165
    3d46:	74 71       	andi	r23, 0x14	; 20
    3d48:	7a 7c       	andi	r23, 0xCA	; 202
    3d4a:	80 80       	ld	r8, Z
    3d4c:	83 7a       	andi	r24, 0xA3	; 163
    3d4e:	77 7f       	andi	r23, 0xF7	; 247
    3d50:	7c 7c       	andi	r23, 0xCC	; 204
    3d52:	82 84       	ldd	r8, Z+10	; 0x0a
    3d54:	81 77       	andi	r24, 0x71	; 113
    3d56:	7b 87       	std	Y+11, r23	; 0x0b
    3d58:	97 8d       	ldd	r25, Z+31	; 0x1f
    3d5a:	8d 88       	ldd	r8, Y+21	; 0x15
    3d5c:	78 70       	andi	r23, 0x08	; 8
    3d5e:	70 7b       	andi	r23, 0xB0	; 176
    3d60:	7c 88       	ldd	r7, Y+20	; 0x14
    3d62:	8e 89       	ldd	r24, Y+22	; 0x16
    3d64:	85 7b       	andi	r24, 0xB5	; 181
    3d66:	7a 74       	andi	r23, 0x4A	; 74
    3d68:	7a 79       	andi	r23, 0x9A	; 154
    3d6a:	7b 74       	andi	r23, 0x4B	; 75
    3d6c:	73 77       	andi	r23, 0x73	; 115
    3d6e:	89 90       	ld	r8, Y+
    3d70:	87 8b       	std	Z+23, r24	; 0x17
    3d72:	7b 7d       	andi	r23, 0xDB	; 219
    3d74:	75 78       	andi	r23, 0x85	; 133
    3d76:	7c 7e       	andi	r23, 0xEC	; 236
    3d78:	84 84       	ldd	r8, Z+12	; 0x0c
    3d7a:	89 7e       	andi	r24, 0xE9	; 233
    3d7c:	76 7c       	andi	r23, 0xC6	; 198
    3d7e:	78 7d       	andi	r23, 0xD8	; 216
    3d80:	85 89       	ldd	r24, Z+21	; 0x15
    3d82:	81 71       	andi	r24, 0x11	; 17
    3d84:	78 8b       	std	Y+16, r23	; 0x10
    3d86:	93 8a       	std	Z+19, r9	; 0x13
    3d88:	87 7c       	andi	r24, 0xC7	; 199
    3d8a:	75 71       	andi	r23, 0x15	; 21
    3d8c:	77 7c       	andi	r23, 0xC7	; 199
    3d8e:	80 8d       	ldd	r24, Z+24	; 0x18
    3d90:	8c 8f       	std	Y+28, r24	; 0x1c
    3d92:	8a 7f       	andi	r24, 0xFA	; 250
    3d94:	7e 7b       	andi	r23, 0xBE	; 190
    3d96:	7a 7a       	andi	r23, 0xAA	; 170
    3d98:	84 76       	andi	r24, 0x64	; 100
    3d9a:	70 76       	andi	r23, 0x60	; 96
    3d9c:	89 8c       	ldd	r8, Y+25	; 0x19
    3d9e:	89 8d       	ldd	r24, Y+25	; 0x19
    3da0:	79 77       	andi	r23, 0x79	; 121
    3da2:	6f 75       	andi	r22, 0x5F	; 95
    3da4:	7b 7f       	andi	r23, 0xFB	; 251
    3da6:	7f 7d       	andi	r23, 0xDF	; 223
    3da8:	84 78       	andi	r24, 0x84	; 132
    3daa:	7a 7e       	andi	r23, 0xEA	; 234
    3dac:	7b 7d       	andi	r23, 0xDB	; 219
    3dae:	86 8d       	ldd	r24, Z+30	; 0x1e
    3db0:	7d 7a       	andi	r23, 0xAD	; 173
    3db2:	82 91       	ld	r24, -Z
    3db4:	93 90       	.word	0x9093	; ????
    3db6:	8b 7f       	andi	r24, 0xFB	; 251
    3db8:	74 6d       	ori	r23, 0xD4	; 212
    3dba:	74 79       	andi	r23, 0x94	; 148
    3dbc:	81 8a       	std	Z+17, r8	; 0x11
    3dbe:	8e 8c       	ldd	r8, Y+30	; 0x1e
    3dc0:	7f 7d       	andi	r23, 0xDF	; 223
    3dc2:	7c 7b       	andi	r23, 0xBC	; 188
    3dc4:	78 7d       	andi	r23, 0xD8	; 216
    3dc6:	7e 6f       	ori	r23, 0xFE	; 254
    3dc8:	77 7d       	andi	r23, 0xD7	; 215
    3dca:	90 88       	ldd	r9, Z+16	; 0x10
    3dcc:	88 89       	ldd	r24, Y+16	; 0x10
    3dce:	7d 7c       	andi	r23, 0xCD	; 205
    3dd0:	74 7b       	andi	r23, 0xB4	; 180
    3dd2:	7e 81       	ldd	r23, Y+6	; 0x06
    3dd4:	81 88       	ldd	r8, Z+17	; 0x11
    3dd6:	82 73       	andi	r24, 0x32	; 50
    3dd8:	77 79       	andi	r23, 0x97	; 151
    3dda:	78 7e       	andi	r23, 0xE8	; 232
    3ddc:	8c 84       	ldd	r8, Y+12	; 0x0c
    3dde:	73 74       	andi	r23, 0x43	; 67
    3de0:	7f 95 8e 89 	call	0x5f131c	; 0x5f131c <__TEXT_REGION_LENGTH__+0x5d131c>
    3de4:	81 7c       	andi	r24, 0xC1	; 193
    3de6:	74 72       	andi	r23, 0x24	; 36
    3de8:	7a 7f       	andi	r23, 0xFA	; 250
    3dea:	82 8b       	std	Z+18, r24	; 0x12
    3dec:	92 8a       	std	Z+18, r9	; 0x12
    3dee:	87 7c       	andi	r24, 0xC7	; 199
    3df0:	7c 7a       	andi	r23, 0xAC	; 172
    3df2:	74 87       	std	Z+12, r23	; 0x0c
    3df4:	7d 70       	andi	r23, 0x0D	; 13
    3df6:	76 7d       	andi	r23, 0xD6	; 214
    3df8:	8f 84       	ldd	r8, Y+15	; 0x0f
    3dfa:	8e 85       	ldd	r24, Y+14	; 0x0e
    3dfc:	7a 7a       	andi	r23, 0xAA	; 170
    3dfe:	72 7c       	andi	r23, 0xC2	; 194
    3e00:	7c 7b       	andi	r23, 0xBC	; 188
    3e02:	7e 85       	ldd	r23, Y+14	; 0x0e
    3e04:	7e 78       	andi	r23, 0x8E	; 142
    3e06:	79 7e       	andi	r23, 0xE9	; 233
    3e08:	76 80       	ldd	r7, Z+6	; 0x06
    3e0a:	94 83       	std	Z+4, r25	; 0x04
    3e0c:	81 7c       	andi	r24, 0xC1	; 193
    3e0e:	86 95       	lsr	r24
    3e10:	8a 8d       	ldd	r24, Y+26	; 0x1a
    3e12:	84 7b       	andi	r24, 0xB4	; 180
    3e14:	6d 6d       	ori	r22, 0xDD	; 221
    3e16:	79 7d       	andi	r23, 0xD9	; 217
    3e18:	83 8d       	ldd	r24, Z+27	; 0x1b
    3e1a:	8c 84       	ldd	r8, Y+12	; 0x0c
    3e1c:	7f 7d       	andi	r23, 0xDF	; 223
    3e1e:	7d 74       	andi	r23, 0x4D	; 77
    3e20:	77 81       	ldd	r23, Z+7	; 0x07
    3e22:	71 72       	andi	r23, 0x21	; 33
    3e24:	79 87       	std	Y+9, r23	; 0x09
    3e26:	8f 84       	ldd	r8, Y+15	; 0x0f
    3e28:	8e 81       	ldd	r24, Y+6	; 0x06
    3e2a:	7d 7c       	andi	r23, 0xCD	; 205
    3e2c:	77 7f       	andi	r23, 0xF7	; 247
    3e2e:	7d 7c       	andi	r23, 0xCD	; 205
    3e30:	81 86       	std	Z+9, r8	; 0x09
    3e32:	7b 71       	andi	r23, 0x1B	; 27
    3e34:	7b 78       	andi	r23, 0x8B	; 139
    3e36:	76 88       	ldd	r7, Z+22	; 0x16
    3e38:	8e 7e       	andi	r24, 0xEE	; 238
    3e3a:	7e 7a       	andi	r23, 0xAE	; 174
    3e3c:	8f 93       	push	r24
    3e3e:	89 89       	ldd	r24, Y+17	; 0x11
    3e40:	7f 7c       	andi	r23, 0xCF	; 207
    3e42:	6f 75       	andi	r22, 0x5F	; 95
    3e44:	7b 7c       	andi	r23, 0xCB	; 203
    3e46:	81 8c       	ldd	r8, Z+25	; 0x19
    3e48:	8f 89       	ldd	r24, Y+23	; 0x17
    3e4a:	81 83       	std	Z+1, r24	; 0x01
    3e4c:	7c 75       	andi	r23, 0x5C	; 92
    3e4e:	85 87       	std	Z+13, r24	; 0x0d
    3e50:	70 74       	andi	r23, 0x40	; 64
    3e52:	79 85       	ldd	r23, Y+9	; 0x09
    3e54:	8b 8a       	std	Y+19, r8	; 0x13
    3e56:	89 7c       	andi	r24, 0xC9	; 201
    3e58:	7a 72       	andi	r23, 0x2A	; 42
    3e5a:	77 82       	std	Z+7, r7	; 0x07
    3e5c:	7b 77       	andi	r23, 0x7B	; 123
    3e5e:	7a 80       	ldd	r7, Y+2	; 0x02
    3e60:	77 79       	andi	r23, 0x97	; 151
    3e62:	80 77       	andi	r24, 0x70	; 112
    3e64:	77 8a       	std	Z+23, r7	; 0x17
    3e66:	8b 7e       	andi	r24, 0xEB	; 235
    3e68:	83 7d       	andi	r24, 0xD3	; 211
    3e6a:	90 8b       	std	Z+16, r25	; 0x10
    3e6c:	8a 8a       	std	Y+18, r8	; 0x12
    3e6e:	7f 76       	andi	r23, 0x6F	; 111
    3e70:	69 76       	andi	r22, 0x69	; 105
    3e72:	7a 80       	ldd	r7, Y+2	; 0x02
    3e74:	84 8b       	std	Z+20, r24	; 0x14
    3e76:	8b 82       	std	Y+3, r8	; 0x03
    3e78:	85 7f       	andi	r24, 0xF5	; 245
    3e7a:	77 74       	andi	r23, 0x47	; 71
    3e7c:	7f 7d       	andi	r23, 0xDF	; 223
    3e7e:	6f 7a       	andi	r22, 0xAF	; 175
    3e80:	7d 89       	ldd	r23, Y+21	; 0x15
    3e82:	87 87       	std	Z+15, r24	; 0x0f
    3e84:	86 7e       	andi	r24, 0xE6	; 230
    3e86:	81 7c       	andi	r24, 0xC1	; 193
    3e88:	7d 81       	ldd	r23, Y+5	; 0x05
    3e8a:	7d 7e       	andi	r23, 0xED	; 237
    3e8c:	85 80       	ldd	r8, Z+5	; 0x05
    3e8e:	73 78       	andi	r23, 0x83	; 131
    3e90:	7b 79       	andi	r23, 0x9B	; 155
    3e92:	7c 8e       	std	Y+28, r7	; 0x1c
    3e94:	84 7d       	andi	r24, 0xD4	; 212
    3e96:	83 7f       	andi	r24, 0xF3	; 243
    3e98:	92 88       	ldd	r9, Z+18	; 0x12
    3e9a:	88 7f       	andi	r24, 0xF8	; 248
    3e9c:	79 77       	andi	r23, 0x79	; 121
    3e9e:	72 7a       	andi	r23, 0xA2	; 162
    3ea0:	7b 7f       	andi	r23, 0xFB	; 251
    3ea2:	82 8c       	ldd	r8, Z+26	; 0x1a
    3ea4:	8e 86       	std	Y+14, r8	; 0x0e
    3ea6:	89 7d       	andi	r24, 0xD9	; 217
    3ea8:	77 79       	andi	r23, 0x97	; 151
    3eaa:	88 77       	andi	r24, 0x78	; 120
    3eac:	6f 79       	andi	r22, 0x9F	; 159
    3eae:	7d 8b       	std	Y+21, r23	; 0x15
    3eb0:	87 89       	ldd	r24, Z+23	; 0x17
    3eb2:	7f 7d       	andi	r23, 0xDF	; 223
    3eb4:	7b 79       	andi	r23, 0x9B	; 155
    3eb6:	81 82       	std	Z+1, r8	; 0x01
    3eb8:	75 77       	andi	r23, 0x75	; 117
    3eba:	7d 7e       	andi	r23, 0xED	; 237
    3ebc:	76 7b       	andi	r23, 0xB6	; 182
    3ebe:	7a 74       	andi	r23, 0x4A	; 74
    3ec0:	7e 91       	ld	r23, -X
    3ec2:	83 87       	std	Z+11, r24	; 0x0b
    3ec4:	84 84       	ldd	r8, Z+12	; 0x0c
    3ec6:	95 8b       	std	Z+21, r25	; 0x15
    3ec8:	90 83       	st	Z, r25
    3eca:	7e 71       	andi	r23, 0x1E	; 30
    3ecc:	70 7c       	andi	r23, 0xC0	; 192
    3ece:	7b 81       	ldd	r23, Y+3	; 0x03
    3ed0:	82 87       	std	Z+10, r24	; 0x0a
    3ed2:	87 83       	std	Z+7, r24	; 0x07
    3ed4:	84 7c       	andi	r24, 0xC4	; 196
    3ed6:	77 79       	andi	r23, 0x97	; 151
    3ed8:	82 73       	andi	r24, 0x32	; 50
    3eda:	78 7b       	andi	r23, 0xB8	; 184
    3edc:	83 8b       	std	Z+19, r24	; 0x13
    3ede:	86 86       	std	Z+14, r8	; 0x0e
    3ee0:	7c 83       	std	Y+4, r23	; 0x04
    3ee2:	7e 7a       	andi	r23, 0xAE	; 174
    3ee4:	80 7f       	andi	r24, 0xF0	; 240
    3ee6:	7c 7b       	andi	r23, 0xBC	; 188
    3ee8:	80 7a       	andi	r24, 0xA0	; 160
    3eea:	76 7b       	andi	r23, 0xB6	; 182
    3eec:	77 79       	andi	r23, 0x97	; 151
    3eee:	84 8b       	std	Z+20, r24	; 0x14
    3ef0:	7d 86       	std	Y+13, r7	; 0x0d
    3ef2:	7d 86       	std	Y+13, r7	; 0x0d
    3ef4:	8f 86       	std	Y+15, r8	; 0x0f
    3ef6:	83 77       	andi	r24, 0x73	; 115
    3ef8:	7e 73       	andi	r23, 0x3E	; 62
    3efa:	75 7e       	andi	r23, 0xE5	; 229
    3efc:	7b 81       	ldd	r23, Y+3	; 0x03
    3efe:	83 92       	.word	0x9283	; ????
    3f00:	8d 8b       	std	Y+21, r24	; 0x15
    3f02:	85 7a       	andi	r24, 0xA5	; 165
    3f04:	7b 81       	ldd	r23, Y+3	; 0x03
    3f06:	83 72       	andi	r24, 0x23	; 35
    3f08:	77 79       	andi	r23, 0x97	; 151
    3f0a:	87 88       	ldd	r8, Z+23	; 0x17
    3f0c:	88 83       	st	Y, r24
    3f0e:	7a 7e       	andi	r23, 0xEA	; 234
    3f10:	7a 7f       	andi	r23, 0xFA	; 250
    3f12:	80 7d       	andi	r24, 0xD0	; 208
    3f14:	73 75       	andi	r23, 0x53	; 83
    3f16:	80 7a       	andi	r24, 0xA0	; 160
    3f18:	80 7b       	andi	r24, 0xB0	; 176
    3f1a:	76 79       	andi	r23, 0x96	; 150
    3f1c:	83 89       	ldd	r24, Z+19	; 0x13
    3f1e:	85 8a       	std	Z+21, r8	; 0x15
    3f20:	7e 8c       	ldd	r7, Y+30	; 0x1e
    3f22:	8e 8f       	std	Y+30, r24	; 0x1e
    3f24:	86 7b       	andi	r24, 0xB6	; 182
    3f26:	77 6e       	ori	r23, 0xE7	; 231
    3f28:	76 7b       	andi	r23, 0xB6	; 182
    3f2a:	7c 7d       	andi	r23, 0xDC	; 220
    3f2c:	81 8c       	ldd	r8, Z+25	; 0x19
    3f2e:	86 8a       	std	Z+22, r8	; 0x16
    3f30:	83 77       	andi	r24, 0x73	; 115
    3f32:	78 81       	ld	r23, Y
    3f34:	79 74       	andi	r23, 0x49	; 73
    3f36:	7b 7c       	andi	r23, 0xCB	; 203
    3f38:	88 84       	ldd	r8, Y+8	; 0x08
    3f3a:	87 84       	ldd	r8, Z+15	; 0x0f
    3f3c:	84 82       	std	Z+4, r8	; 0x04
    3f3e:	7e 83       	std	Y+6, r23	; 0x06
    3f40:	85 80       	ldd	r8, Z+5	; 0x05
    3f42:	79 7a       	andi	r23, 0xA9	; 169
    3f44:	7c 78       	andi	r23, 0x8C	; 140
    3f46:	79 76       	andi	r23, 0x69	; 105
    3f48:	78 7d       	andi	r23, 0xD8	; 216
    3f4a:	87 84       	ldd	r8, Z+15	; 0x0f
    3f4c:	82 86       	std	Z+10, r8	; 0x0a
    3f4e:	82 8e       	std	Z+26, r8	; 0x1a
    3f50:	8d 89       	ldd	r24, Y+21	; 0x15
    3f52:	80 7c       	andi	r24, 0xC0	; 192
    3f54:	7c 76       	andi	r23, 0x6C	; 108
    3f56:	79 7b       	andi	r23, 0xB9	; 185
    3f58:	7a 7d       	andi	r23, 0xDA	; 218
    3f5a:	86 8c       	ldd	r8, Z+30	; 0x1e
    3f5c:	86 86       	std	Z+14, r8	; 0x0e
    3f5e:	81 7b       	andi	r24, 0xB1	; 177
    3f60:	7f 86       	std	Y+15, r7	; 0x0f
    3f62:	79 75       	andi	r23, 0x59	; 89
    3f64:	75 7c       	andi	r23, 0xC5	; 197
    3f66:	87 85       	ldd	r24, Z+15	; 0x0f
    3f68:	84 7b       	andi	r24, 0xB4	; 180
    3f6a:	7b 7b       	andi	r23, 0xBB	; 187
    3f6c:	7b 81       	ldd	r23, Y+3	; 0x03
    3f6e:	80 77       	andi	r24, 0x70	; 112
    3f70:	73 79       	andi	r23, 0x93	; 147
    3f72:	7d 7f       	andi	r23, 0xFD	; 253
    3f74:	7e 74       	andi	r23, 0x4E	; 78
    3f76:	75 7e       	andi	r23, 0xE5	; 229
    3f78:	8b 85       	ldd	r24, Y+11	; 0x0b
    3f7a:	89 85       	ldd	r24, Y+9	; 0x09
    3f7c:	85 8d       	ldd	r24, Z+29	; 0x1d
    3f7e:	8c 8a       	std	Y+20, r8	; 0x14
    3f80:	7e 7c       	andi	r23, 0xCE	; 206
    3f82:	74 73       	andi	r23, 0x34	; 52
    3f84:	7b 7e       	andi	r23, 0xEB	; 235
    3f86:	7b 80       	ldd	r7, Y+3	; 0x03
    3f88:	87 89       	ldd	r24, Z+23	; 0x17
    3f8a:	8a 8a       	std	Y+18, r8	; 0x12
    3f8c:	7f 76       	andi	r23, 0x6F	; 111
    3f8e:	79 7f       	andi	r23, 0xF9	; 249
    3f90:	78 7c       	andi	r23, 0xC8	; 200
    3f92:	79 82       	std	Y+1, r7	; 0x01
    3f94:	86 83       	std	Z+6, r24	; 0x06
    3f96:	85 80       	ldd	r8, Z+5	; 0x05
    3f98:	85 7e       	andi	r24, 0xE5	; 229
    3f9a:	7f 86       	std	Y+15, r7	; 0x0f
    3f9c:	80 7b       	andi	r24, 0xB0	; 176
    3f9e:	79 7a       	andi	r23, 0xA9	; 169
    3fa0:	7a 7a       	andi	r23, 0xAA	; 170
    3fa2:	7a 75       	andi	r23, 0x5A	; 90
    3fa4:	78 84       	ldd	r7, Y+8	; 0x08
    3fa6:	85 7f       	andi	r24, 0xF5	; 245
    3fa8:	88 83       	st	Y, r24
    3faa:	8b 89       	ldd	r24, Y+19	; 0x13
    3fac:	85 81       	ldd	r24, Z+5	; 0x05
    3fae:	7c 7d       	andi	r23, 0xDC	; 220
    3fb0:	75 76       	andi	r23, 0x65	; 101
    3fb2:	7c 79       	andi	r23, 0x9C	; 156
    3fb4:	7a 84       	ldd	r7, Y+10	; 0x0a
    3fb6:	87 8a       	std	Z+23, r8	; 0x17
    3fb8:	8c 89       	ldd	r24, Y+20	; 0x14
    3fba:	7f 7a       	andi	r23, 0xAF	; 175
    3fbc:	83 7e       	andi	r24, 0xE3	; 227
    3fbe:	77 7a       	andi	r23, 0xA7	; 167
    3fc0:	74 86       	std	Z+12, r7	; 0x0c
    3fc2:	85 86       	std	Z+13, r8	; 0x0d
    3fc4:	81 7f       	andi	r24, 0xF1	; 241
    3fc6:	81 7b       	andi	r24, 0xB1	; 177
    3fc8:	83 85       	ldd	r24, Z+11	; 0x0b
    3fca:	7b 72       	andi	r23, 0x2B	; 43
    3fcc:	78 7a       	andi	r23, 0xA8	; 168
    3fce:	7a 7e       	andi	r23, 0xEA	; 234
    3fd0:	79 72       	andi	r23, 0x29	; 41
    3fd2:	77 85       	ldd	r23, Z+15	; 0x0f
    3fd4:	84 86       	std	Z+12, r8	; 0x0c
    3fd6:	88 86       	std	Y+8, r8	; 0x08
    3fd8:	91 8c       	ldd	r9, Z+25	; 0x19
    3fda:	8e 87       	std	Y+14, r24	; 0x0e
    3fdc:	80 7a       	andi	r24, 0xA0	; 160
    3fde:	75 74       	andi	r23, 0x45	; 69
    3fe0:	79 7b       	andi	r23, 0xB9	; 185
    3fe2:	7c 81       	ldd	r23, Y+4	; 0x04
    3fe4:	81 85       	ldd	r24, Z+9	; 0x09
    3fe6:	8c 84       	ldd	r8, Y+12	; 0x0c
    3fe8:	7e 78       	andi	r23, 0x8E	; 142
    3fea:	7e 7b       	andi	r23, 0xBE	; 190
    3fec:	7a 79       	andi	r23, 0x9A	; 154
    3fee:	79 88       	ldd	r7, Y+17	; 0x11
    3ff0:	82 86       	std	Z+10, r8	; 0x0a
    3ff2:	7f 80       	ldd	r7, Y+7	; 0x07
    3ff4:	80 7d       	andi	r24, 0xD0	; 208
    3ff6:	82 87       	std	Z+10, r24	; 0x0a
    3ff8:	80 7a       	andi	r24, 0xA0	; 160
    3ffa:	79 76       	andi	r23, 0x69	; 105
    3ffc:	7c 81       	ldd	r23, Y+4	; 0x04
    3ffe:	7a 7a       	andi	r23, 0xAA	; 170
    4000:	7a 83       	std	Y+2, r23	; 0x02
    4002:	7b 85       	ldd	r23, Y+11	; 0x0b
    4004:	88 86       	std	Y+8, r8	; 0x08
    4006:	8c 84       	ldd	r8, Y+12	; 0x0c
    4008:	85 7f       	andi	r24, 0xF5	; 245
    400a:	82 7c       	andi	r24, 0xC2	; 194
    400c:	78 78       	andi	r23, 0x88	; 136
    400e:	7c 7b       	andi	r23, 0xBC	; 188
    4010:	81 86       	std	Z+9, r8	; 0x09
    4012:	85 8b       	std	Z+21, r24	; 0x15
    4014:	8e 85       	ldd	r24, Y+14	; 0x0e
    4016:	84 7c       	andi	r24, 0xC4	; 196
    4018:	82 77       	andi	r24, 0x72	; 114
    401a:	77 78       	andi	r23, 0x87	; 135
    401c:	7a 87       	std	Y+10, r23	; 0x0a
    401e:	83 87       	std	Z+11, r24	; 0x0b
    4020:	7a 7d       	andi	r23, 0xDA	; 218
    4022:	7e 7b       	andi	r23, 0xBE	; 190
    4024:	82 85       	ldd	r24, Z+10	; 0x0a
    4026:	78 74       	andi	r23, 0x48	; 72
    4028:	75 74       	andi	r23, 0x45	; 69
    402a:	7b 7d       	andi	r23, 0xDB	; 219
    402c:	78 76       	andi	r23, 0x68	; 104
    402e:	7e 88       	ldd	r7, Y+22	; 0x16
    4030:	7e 8b       	std	Y+22, r23	; 0x16
    4032:	86 8b       	std	Z+22, r24	; 0x16
    4034:	91 8b       	std	Z+17, r25	; 0x11
    4036:	8a 82       	std	Y+2, r8	; 0x02
    4038:	7d 74       	andi	r23, 0x4D	; 77
    403a:	73 78       	andi	r23, 0x83	; 131
    403c:	7e 7b       	andi	r23, 0xBE	; 190
    403e:	80 80       	ld	r8, Z
    4040:	7f 8f       	std	Y+31, r23	; 0x1f
    4042:	8b 80       	ldd	r8, Y+3	; 0x03
    4044:	7e 7c       	andi	r23, 0xCE	; 206
    4046:	83 76       	andi	r24, 0x63	; 99
    4048:	7e 77       	andi	r23, 0x7E	; 126
    404a:	7f 87       	std	Y+15, r23	; 0x0f
    404c:	84 89       	ldd	r24, Z+20	; 0x14
    404e:	81 82       	std	Z+1, r8	; 0x01
    4050:	7c 7d       	andi	r23, 0xDC	; 220
    4052:	89 8b       	std	Y+17, r24	; 0x11
    4054:	7f 7c       	andi	r23, 0xCF	; 207
    4056:	76 71       	andi	r23, 0x16	; 22
    4058:	7e 7b       	andi	r23, 0xBE	; 190
    405a:	79 79       	andi	r23, 0x99	; 153
    405c:	7d 80       	ldd	r7, Y+5	; 0x05
    405e:	78 89       	ldd	r23, Y+16	; 0x10
    4060:	82 8e       	std	Z+26, r8	; 0x1a
    4062:	8e 87       	std	Y+14, r24	; 0x0e
    4064:	86 80       	ldd	r8, Z+6	; 0x06
    4066:	7e 75       	andi	r23, 0x5E	; 94
    4068:	72 79       	andi	r23, 0x92	; 146
    406a:	7c 7c       	andi	r23, 0xCC	; 204
    406c:	84 81       	ldd	r24, Z+4	; 0x04
    406e:	80 8d       	ldd	r24, Z+24	; 0x18
    4070:	86 86       	std	Z+14, r8	; 0x0e
    4072:	84 7f       	andi	r24, 0xF4	; 244
    4074:	7e 75       	andi	r23, 0x5E	; 94
    4076:	7c 74       	andi	r23, 0x4C	; 76
    4078:	83 86       	std	Z+11, r8	; 0x0b
    407a:	86 81       	ldd	r24, Z+6	; 0x06
    407c:	78 7c       	andi	r23, 0xC8	; 200
    407e:	77 78       	andi	r23, 0x87	; 135
    4080:	83 82       	std	Z+3, r8	; 0x03
    4082:	78 7a       	andi	r23, 0xA8	; 168
    4084:	76 75       	andi	r23, 0x56	; 86
    4086:	83 7b       	andi	r24, 0xB3	; 179
    4088:	79 79       	andi	r23, 0x99	; 153
    408a:	83 83       	std	Z+3, r24	; 0x03
    408c:	7d 89       	ldd	r23, Y+21	; 0x15
    408e:	80 93 90 8e 	sts	0x8E90, r24	; 0x808e90 <__bss_end+0x8d8c>
    4092:	87 7f       	andi	r24, 0xF7	; 247
    4094:	7a 72       	andi	r23, 0x2A	; 42
    4096:	76 7e       	andi	r23, 0xE6	; 230
    4098:	7e 7d       	andi	r23, 0xDE	; 222
    409a:	82 7f       	andi	r24, 0xF2	; 242
    409c:	85 90       	lpm	r8, Z+
    409e:	85 81       	ldd	r24, Z+5	; 0x05
    40a0:	7b 7f       	andi	r23, 0xFB	; 251
    40a2:	79 77       	andi	r23, 0x79	; 121
    40a4:	7c 75       	andi	r23, 0x5C	; 92
    40a6:	86 83       	std	Z+6, r24	; 0x06
    40a8:	8b 85       	ldd	r24, Y+11	; 0x0b
    40aa:	7f 80       	ldd	r7, Y+7	; 0x07
    40ac:	76 7f       	andi	r23, 0xF6	; 246
    40ae:	8a 87       	std	Y+10, r24	; 0x0a
    40b0:	7d 77       	andi	r23, 0x7D	; 125
    40b2:	6d 76       	andi	r22, 0x6D	; 109
    40b4:	81 78       	andi	r24, 0x81	; 129
    40b6:	7c 7a       	andi	r23, 0xAC	; 172
    40b8:	83 7d       	andi	r24, 0xD3	; 211
    40ba:	81 87       	std	Z+9, r24	; 0x09
    40bc:	82 92       	st	-Z, r8
    40be:	89 89       	ldd	r24, Y+17	; 0x11
    40c0:	84 81       	ldd	r24, Z+4	; 0x04
    40c2:	7a 74       	andi	r23, 0x4A	; 74
    40c4:	79 7c       	andi	r23, 0xC9	; 201
    40c6:	7d 7f       	andi	r23, 0xFD	; 253
    40c8:	86 7f       	andi	r24, 0xF6	; 246
    40ca:	85 8e       	std	Z+29, r8	; 0x1d
    40cc:	85 8a       	std	Z+21, r8	; 0x15
    40ce:	81 83       	std	Z+1, r24	; 0x01
    40d0:	76 78       	andi	r23, 0x86	; 134
    40d2:	7a 77       	andi	r23, 0x7A	; 122
    40d4:	88 84       	ldd	r8, Y+8	; 0x08
    40d6:	87 80       	ldd	r8, Z+7	; 0x07
    40d8:	7c 7a       	andi	r23, 0xAC	; 172
    40da:	7a 7f       	andi	r23, 0xFA	; 250
    40dc:	87 7e       	andi	r24, 0xE7	; 231
    40de:	78 78       	andi	r23, 0x88	; 136
    40e0:	6d 7a       	andi	r22, 0xAD	; 173
    40e2:	7e 73       	andi	r23, 0x3E	; 62
    40e4:	7a 7d       	andi	r23, 0xDA	; 218
    40e6:	86 7d       	andi	r24, 0xD6	; 214
    40e8:	82 82       	std	Z+2, r8	; 0x02
    40ea:	88 99       	sbic	0x11, 0	; 17
    40ec:	90 8c       	ldd	r9, Z+24	; 0x18
    40ee:	82 7e       	andi	r24, 0xE2	; 226
    40f0:	73 75       	andi	r23, 0x53	; 83
    40f2:	78 7c       	andi	r23, 0xC8	; 200
    40f4:	79 7e       	andi	r23, 0xE9	; 233
    40f6:	81 7a       	andi	r24, 0xA1	; 161
    40f8:	89 8a       	std	Y+17, r8	; 0x11
    40fa:	82 83       	std	Z+2, r24	; 0x02
    40fc:	7f 84       	ldd	r7, Y+15	; 0x0f
    40fe:	76 7e       	andi	r23, 0xE6	; 230
    4100:	78 7d       	andi	r23, 0xD8	; 216
    4102:	86 84       	ldd	r8, Z+14	; 0x0e
    4104:	8a 80       	ldd	r8, Y+2	; 0x02
    4106:	78 77       	andi	r23, 0x78	; 120
    4108:	7c 84       	ldd	r7, Y+12	; 0x0c
    410a:	8b 84       	ldd	r8, Y+11	; 0x0b
    410c:	80 75       	andi	r24, 0x50	; 80
    410e:	72 81       	ldd	r23, Z+2	; 0x02
    4110:	7c 79       	andi	r23, 0x9C	; 156
    4112:	7b 7c       	andi	r23, 0xCB	; 203
    4114:	85 79       	andi	r24, 0x95	; 149
    4116:	81 7e       	andi	r24, 0xE1	; 225
    4118:	8b 8f       	std	Y+27, r24	; 0x1b
    411a:	85 87       	std	Z+13, r24	; 0x0d
    411c:	80 7e       	andi	r24, 0xE0	; 224
    411e:	77 76       	andi	r23, 0x67	; 103
    4120:	7b 7f       	andi	r23, 0xFB	; 251
    4122:	7f 87       	std	Y+15, r23	; 0x0f
    4124:	80 7d       	andi	r24, 0xD0	; 208
    4126:	8a 86       	std	Y+10, r8	; 0x0a
    4128:	86 80       	ldd	r8, Z+6	; 0x06
    412a:	81 80       	ldd	r8, Z+1	; 0x01
    412c:	73 7c       	andi	r23, 0xC3	; 195
    412e:	74 80       	ldd	r7, Z+4	; 0x04
    4130:	86 86       	std	Z+14, r8	; 0x0e
    4132:	88 7b       	andi	r24, 0xB8	; 184
    4134:	76 75       	andi	r23, 0x56	; 86
    4136:	7c 83       	std	Y+4, r23	; 0x04
    4138:	82 7e       	andi	r24, 0xE2	; 226
    413a:	7f 72       	andi	r23, 0x2F	; 47
    413c:	74 7e       	andi	r23, 0xE4	; 228
    413e:	77 78       	andi	r23, 0x87	; 135
    4140:	79 86       	std	Y+9, r7	; 0x09
    4142:	84 79       	andi	r24, 0x94	; 148
    4144:	83 82       	std	Z+3, r8	; 0x03
    4146:	96 98       	cbi	0x12, 6	; 18
    4148:	90 88       	ldd	r9, Z+16	; 0x10
    414a:	7f 79       	andi	r23, 0x9F	; 159
    414c:	75 7a       	andi	r23, 0xA5	; 165
    414e:	7c 7c       	andi	r23, 0xCC	; 204
    4150:	7d 81       	ldd	r23, Y+5	; 0x05
    4152:	7d 81       	ldd	r23, Y+5	; 0x05
    4154:	8c 88       	ldd	r8, Y+20	; 0x14
    4156:	81 7b       	andi	r24, 0xB1	; 177
    4158:	83 7c       	andi	r24, 0xC3	; 195
    415a:	77 7e       	andi	r23, 0xE7	; 231
    415c:	75 83       	std	Z+5, r23	; 0x05
    415e:	84 8d       	ldd	r24, Z+28	; 0x1c
    4160:	88 7d       	andi	r24, 0xD8	; 216
    4162:	76 78       	andi	r23, 0x86	; 134
    4164:	83 8a       	std	Z+19, r8	; 0x13
    4166:	86 80       	ldd	r8, Z+6	; 0x06
    4168:	7c 71       	andi	r23, 0x1C	; 28
    416a:	74 7e       	andi	r23, 0xE4	; 228
    416c:	76 77       	andi	r23, 0x76	; 118
    416e:	7a 83       	std	Y+2, r23	; 0x02
    4170:	7a 78       	andi	r23, 0x8A	; 138
    4172:	7f 82       	std	Y+7, r7	; 0x07
    4174:	93 8d       	ldd	r25, Z+27	; 0x1b
    4176:	8e 85       	ldd	r24, Y+14	; 0x0e
    4178:	81 77       	andi	r24, 0x71	; 113
    417a:	75 76       	andi	r23, 0x65	; 101
    417c:	78 7b       	andi	r23, 0xB8	; 184
    417e:	82 80       	ldd	r8, Z+2	; 0x02
    4180:	78 84       	ldd	r7, Y+8	; 0x08
    4182:	8d 8c       	ldd	r8, Y+29	; 0x1d
    4184:	88 82       	st	Y, r8
    4186:	89 7a       	andi	r24, 0xA9	; 169
    4188:	78 7b       	andi	r23, 0xB8	; 184
    418a:	7a 84       	ldd	r7, Y+10	; 0x0a
    418c:	81 88       	ldd	r8, Z+17	; 0x11
    418e:	7e 78       	andi	r23, 0x8E	; 142
    4190:	72 79       	andi	r23, 0x92	; 146
    4192:	81 83       	std	Z+1, r24	; 0x01
    4194:	7f 83       	std	Y+7, r23	; 0x07
    4196:	7e 72       	andi	r23, 0x2E	; 46
    4198:	7b 7d       	andi	r23, 0xDB	; 219
    419a:	75 79       	andi	r23, 0x95	; 149
    419c:	80 87       	std	Z+8, r24	; 0x08
    419e:	77 7b       	andi	r23, 0xB7	; 183
    41a0:	7f 8b       	std	Y+23, r23	; 0x17
    41a2:	98 90       	.word	0x9098	; ????
    41a4:	8e 83       	std	Y+6, r24	; 0x06
    41a6:	7e 78       	andi	r23, 0x8E	; 142
    41a8:	7b 79       	andi	r23, 0x9B	; 155
    41aa:	7b 7d       	andi	r23, 0xDB	; 219
    41ac:	80 7b       	andi	r24, 0xB0	; 176
    41ae:	7b 88       	ldd	r7, Y+19	; 0x13
    41b0:	87 82       	std	Z+7, r8	; 0x07
    41b2:	7d 7f       	andi	r23, 0xFD	; 253
    41b4:	87 76       	andi	r24, 0x67	; 103
    41b6:	7c 78       	andi	r23, 0x8C	; 140
    41b8:	7a 85       	ldd	r23, Y+10	; 0x0a
    41ba:	88 8d       	ldd	r24, Y+24	; 0x18
    41bc:	7e 7a       	andi	r23, 0xAE	; 174
    41be:	77 80       	ldd	r7, Z+7	; 0x07
    41c0:	86 87       	std	Z+14, r24	; 0x0e
    41c2:	82 86       	std	Z+10, r8	; 0x0a
    41c4:	78 70       	andi	r23, 0x08	; 8
    41c6:	7e 7a       	andi	r23, 0xAE	; 174
    41c8:	76 78       	andi	r23, 0x86	; 134
    41ca:	82 82       	std	Z+2, r8	; 0x02
    41cc:	74 82       	std	Z+4, r7	; 0x04
    41ce:	7f 8c       	ldd	r7, Y+31	; 0x1f
    41d0:	91 8d       	ldd	r25, Z+25	; 0x19
    41d2:	8c 82       	std	Y+4, r8	; 0x04
    41d4:	7e 76       	andi	r23, 0x6E	; 110
    41d6:	79 7a       	andi	r23, 0xA9	; 169
    41d8:	7c 82       	std	Y+4, r7	; 0x04
    41da:	82 79       	andi	r24, 0x92	; 146
    41dc:	80 8a       	std	Z+16, r8	; 0x10
    41de:	89 8a       	std	Y+17, r8	; 0x11
    41e0:	7e 85       	ldd	r23, Y+14	; 0x0e
    41e2:	83 71       	andi	r24, 0x13	; 19
    41e4:	7f 75       	andi	r23, 0x5F	; 95
    41e6:	80 81       	ld	r24, Z
    41e8:	86 86       	std	Z+14, r8	; 0x0e
    41ea:	7a 78       	andi	r23, 0x8A	; 138
    41ec:	75 7d       	andi	r23, 0xD5	; 213
    41ee:	80 7e       	andi	r24, 0xE0	; 224
    41f0:	81 84       	ldd	r8, Z+9	; 0x09
    41f2:	74 73       	andi	r23, 0x34	; 52
    41f4:	7a 72       	andi	r23, 0x2A	; 42
    41f6:	76 7a       	andi	r23, 0xA6	; 166
    41f8:	84 7d       	andi	r24, 0xD4	; 212
    41fa:	76 84       	ldd	r7, Z+14	; 0x0e
    41fc:	81 97       	sbiw	r24, 0x21	; 33
    41fe:	93 94       	inc	r9
    4200:	8e 7c       	andi	r24, 0xCE	; 206
    4202:	7a 77       	andi	r23, 0x7A	; 122
    4204:	77 77       	andi	r23, 0x77	; 119
    4206:	7b 80       	ldd	r7, Y+3	; 0x03
    4208:	7c 79       	andi	r23, 0x9C	; 156
    420a:	86 87       	std	Z+14, r24	; 0x0e
    420c:	86 84       	ldd	r8, Z+14	; 0x0e
    420e:	7c 8a       	std	Y+20, r7	; 0x14
    4210:	81 75       	andi	r24, 0x51	; 81
    4212:	7d 76       	andi	r23, 0x6D	; 109
    4214:	83 86       	std	Z+11, r8	; 0x0b
    4216:	8e 86       	std	Y+14, r8	; 0x0e
    4218:	7c 79       	andi	r23, 0x9C	; 156
    421a:	77 81       	ldd	r23, Z+7	; 0x07
    421c:	84 85       	ldd	r24, Z+12	; 0x0c
    421e:	88 7e       	andi	r24, 0xE8	; 232
    4220:	76 79       	andi	r23, 0x96	; 150
    4222:	7a 75       	andi	r23, 0x5A	; 90
    4224:	7b 7c       	andi	r23, 0xCB	; 203
    4226:	80 77       	andi	r24, 0x70	; 112
    4228:	7a 80       	ldd	r7, Y+2	; 0x02
    422a:	7d 90       	ld	r7, X+
    422c:	88 92       	.word	0x9288	; ????
    422e:	8a 7e       	andi	r24, 0xEA	; 234
    4230:	7c 77       	andi	r23, 0x7C	; 124
    4232:	76 78       	andi	r23, 0x86	; 134
    4234:	80 83       	st	Z, r24
    4236:	7b 7b       	andi	r23, 0xBB	; 187
    4238:	86 87       	std	Z+14, r24	; 0x0e
    423a:	87 82       	std	Z+7, r8	; 0x07
    423c:	7c 89       	ldd	r23, Y+20	; 0x14
    423e:	79 79       	andi	r23, 0x99	; 153
    4240:	7e 79       	andi	r23, 0x9E	; 158
    4242:	87 84       	ldd	r8, Z+15	; 0x0f
    4244:	8a 81       	ldd	r24, Y+2	; 0x02
    4246:	7e 77       	andi	r23, 0x7E	; 126
    4248:	76 7e       	andi	r23, 0xE6	; 230
    424a:	7d 80       	ldd	r7, Y+5	; 0x05
    424c:	85 7c       	andi	r24, 0xC5	; 197
    424e:	74 79       	andi	r23, 0x94	; 148
    4250:	75 75       	andi	r23, 0x55	; 85
    4252:	7e 80       	ldd	r7, Y+6	; 0x06
    4254:	86 77       	andi	r24, 0x76	; 118
    4256:	80 81       	ld	r24, Z
    4258:	88 98       	cbi	0x11, 0	; 17
    425a:	8e 96       	adiw	r24, 0x2e	; 46
    425c:	86 7c       	andi	r24, 0xC6	; 198
    425e:	7a 78       	andi	r23, 0x8A	; 138
    4260:	79 79       	andi	r23, 0x99	; 153
    4262:	7e 7e       	andi	r23, 0xEE	; 238
    4264:	7a 7e       	andi	r23, 0xEA	; 234
    4266:	87 83       	std	Z+7, r24	; 0x07
    4268:	83 81       	ldd	r24, Z+3	; 0x03
    426a:	80 8a       	std	Z+16, r8	; 0x10
    426c:	73 7c       	andi	r23, 0xC3	; 195
    426e:	78 7a       	andi	r23, 0xA8	; 168
    4270:	86 85       	ldd	r24, Z+14	; 0x0e
    4272:	8c 80       	ldd	r8, Y+4	; 0x04
    4274:	7f 77       	andi	r23, 0x7F	; 127
    4276:	7e 84       	ldd	r7, Y+14	; 0x0e
    4278:	81 84       	ldd	r8, Z+9	; 0x09
    427a:	83 7b       	andi	r24, 0xB3	; 179
    427c:	75 7a       	andi	r23, 0xA5	; 165
    427e:	75 74       	andi	r23, 0x45	; 69
    4280:	7a 7d       	andi	r23, 0xDA	; 218
    4282:	83 78       	andi	r24, 0x83	; 131
    4284:	81 7a       	andi	r24, 0xA1	; 161
    4286:	84 91       	lpm	r24, Z
    4288:	8b 93       	.word	0x938b	; ????
    428a:	84 7b       	andi	r24, 0xB4	; 180
    428c:	77 76       	andi	r23, 0x67	; 103
    428e:	77 7b       	andi	r23, 0xB7	; 183
    4290:	83 83       	std	Z+3, r24	; 0x03
    4292:	7b 82       	std	Y+3, r7	; 0x03
    4294:	8a 84       	ldd	r8, Y+10	; 0x0a
    4296:	87 85       	ldd	r24, Z+15	; 0x0f
    4298:	84 88       	ldd	r8, Z+20	; 0x14
    429a:	74 7d       	andi	r23, 0xD4	; 212
    429c:	77 80       	ldd	r7, Z+7	; 0x07
    429e:	86 82       	std	Z+6, r8	; 0x06
    42a0:	85 7d       	andi	r24, 0xD5	; 213
    42a2:	7a 74       	andi	r23, 0x4A	; 74
    42a4:	79 7f       	andi	r23, 0xF9	; 249
    42a6:	82 87       	std	Z+10, r24	; 0x0a
    42a8:	85 7b       	andi	r24, 0xB5	; 181
    42aa:	76 77       	andi	r23, 0x76	; 118
    42ac:	72 76       	andi	r23, 0x62	; 98
    42ae:	79 7e       	andi	r23, 0xE9	; 233
    42b0:	80 74       	andi	r24, 0x40	; 64
    42b2:	81 7d       	andi	r24, 0xD1	; 209
    42b4:	90 96       	adiw	r26, 0x20	; 32
    42b6:	8e 92       	st	-X, r8
    42b8:	81 7c       	andi	r24, 0xC1	; 193
    42ba:	7a 79       	andi	r23, 0x9A	; 154
    42bc:	7a 7b       	andi	r23, 0xBA	; 186
    42be:	7f 7f       	andi	r23, 0xFF	; 255
    42c0:	7d 82       	std	Y+5, r7	; 0x05
    42c2:	86 7d       	andi	r24, 0xD6	; 214
    42c4:	81 7d       	andi	r24, 0xD1	; 209
    42c6:	83 84       	ldd	r8, Z+11	; 0x0b
    42c8:	73 7e       	andi	r23, 0xE3	; 227
    42ca:	77 86       	std	Z+15, r7	; 0x0f
    42cc:	88 8a       	std	Y+16, r8	; 0x10
    42ce:	89 7f       	andi	r24, 0xF9	; 249
    42d0:	7e 77       	andi	r23, 0x7E	; 126
    42d2:	80 84       	ldd	r8, Z+8	; 0x08
    42d4:	83 85       	ldd	r24, Z+11	; 0x0b
    42d6:	80 7a       	andi	r24, 0xA0	; 160
    42d8:	7a 78       	andi	r23, 0x8A	; 138
    42da:	73 79       	andi	r23, 0x93	; 147
    42dc:	76 84       	ldd	r7, Z+14	; 0x0e
    42de:	7e 7b       	andi	r23, 0xBE	; 190
    42e0:	82 77       	andi	r24, 0x72	; 114
    42e2:	8e 8e       	std	Y+30, r8	; 0x1e
    42e4:	91 90       	ld	r9, Z+
    42e6:	7f 79       	andi	r23, 0x9F	; 159
    42e8:	77 7a       	andi	r23, 0xA7	; 167
    42ea:	7a 7d       	andi	r23, 0xDA	; 218
    42ec:	7f 7c       	andi	r23, 0xCF	; 207
    42ee:	7c 82       	std	Y+4, r7	; 0x04
    42f0:	89 83       	std	Y+1, r24	; 0x01
    42f2:	88 80       	ld	r8, Y
    42f4:	87 7f       	andi	r24, 0xF7	; 247
    42f6:	77 7d       	andi	r23, 0xD7	; 215
    42f8:	76 87       	std	Z+14, r23	; 0x0e
    42fa:	81 85       	ldd	r24, Z+9	; 0x09
    42fc:	83 7e       	andi	r24, 0xE3	; 227
    42fe:	7c 74       	andi	r23, 0x4C	; 76
    4300:	7b 7a       	andi	r23, 0xAB	; 171
    4302:	81 84       	ldd	r8, Z+9	; 0x09
    4304:	7d 79       	andi	r23, 0x9D	; 157
    4306:	77 76       	andi	r23, 0x67	; 103
    4308:	74 7a       	andi	r23, 0xA4	; 164
    430a:	7b 86       	std	Y+11, r7	; 0x0b
    430c:	7e 7e       	andi	r23, 0xEE	; 238
    430e:	80 80       	ld	r8, Z
    4310:	97 90       	elpm	r9, Z+
    4312:	90 8d       	ldd	r25, Z+24	; 0x18
    4314:	7d 78       	andi	r23, 0x8D	; 141
    4316:	79 78       	andi	r23, 0x89	; 137
    4318:	7a 7c       	andi	r23, 0xCA	; 202
    431a:	7e 7f       	andi	r23, 0xFE	; 254
    431c:	7e 83       	std	Y+6, r23	; 0x06
    431e:	85 7d       	andi	r24, 0xD5	; 213
    4320:	85 84       	ldd	r8, Z+13	; 0x0d
    4322:	8a 7b       	andi	r24, 0xBA	; 186
    4324:	75 78       	andi	r23, 0x85	; 133
    4326:	7a 8d       	ldd	r23, Y+26	; 0x1a
    4328:	86 86       	std	Z+14, r8	; 0x0e
    432a:	80 7c       	andi	r24, 0xC0	; 192
    432c:	7c 7b       	andi	r23, 0xBC	; 188
    432e:	85 88       	ldd	r8, Z+21	; 0x15
    4330:	85 84       	ldd	r8, Z+13	; 0x0d
    4332:	7e 7a       	andi	r23, 0xAE	; 174
    4334:	7a 79       	andi	r23, 0x9A	; 154
    4336:	73 76       	andi	r23, 0x63	; 99
    4338:	79 85       	ldd	r23, Y+9	; 0x09
    433a:	7a 7a       	andi	r23, 0xAA	; 170
    433c:	79 7b       	andi	r23, 0xB9	; 185
    433e:	90 8d       	ldd	r25, Z+24	; 0x18
    4340:	91 89       	ldd	r25, Z+17	; 0x11
    4342:	7b 77       	andi	r23, 0x7B	; 123
    4344:	78 7f       	andi	r23, 0xF8	; 248
    4346:	82 81       	ldd	r24, Z+2	; 0x02
    4348:	7e 7f       	andi	r23, 0xFE	; 254
    434a:	7f 85       	ldd	r23, Y+15	; 0x0f
    434c:	85 81       	ldd	r24, Z+5	; 0x05
    434e:	81 81       	ldd	r24, Z+1	; 0x01
    4350:	87 76       	andi	r24, 0x67	; 103
    4352:	7b 77       	andi	r23, 0x7B	; 123
    4354:	7e 8d       	ldd	r23, Y+30	; 0x1e
    4356:	86 88       	ldd	r8, Z+22	; 0x16
    4358:	82 7d       	andi	r24, 0xD2	; 210
    435a:	75 76       	andi	r23, 0x65	; 101
    435c:	7d 81       	ldd	r23, Y+5	; 0x05
    435e:	87 81       	ldd	r24, Z+7	; 0x07
    4360:	7b 74       	andi	r23, 0x4B	; 75
    4362:	79 75       	andi	r23, 0x59	; 89
    4364:	79 79       	andi	r23, 0x99	; 153
    4366:	7d 88       	ldd	r7, Y+21	; 0x15
    4368:	77 80       	ldd	r7, Z+7	; 0x07
    436a:	7d 8a       	std	Y+21, r7	; 0x15
    436c:	96 8e       	std	Z+30, r9	; 0x1e
    436e:	94 86       	std	Z+12, r9	; 0x0c
    4370:	78 78       	andi	r23, 0x88	; 136
    4372:	7a 7c       	andi	r23, 0xCA	; 202
    4374:	7e 7d       	andi	r23, 0xDE	; 222
    4376:	7d 7f       	andi	r23, 0xFD	; 253
    4378:	7a 81       	ldd	r23, Y+2	; 0x02
    437a:	81 7f       	andi	r24, 0xF1	; 241
    437c:	82 86       	std	Z+10, r8	; 0x0a
    437e:	83 72       	andi	r24, 0x23	; 35
    4380:	7a 76       	andi	r23, 0x6A	; 106
    4382:	86 8e       	std	Z+30, r8	; 0x1e
    4384:	86 87       	std	Z+14, r24	; 0x0e
    4386:	7f 7c       	andi	r23, 0xCF	; 207
    4388:	78 7d       	andi	r23, 0xD8	; 216
    438a:	82 84       	ldd	r8, Z+10	; 0x0a
    438c:	84 7f       	andi	r24, 0xF4	; 244
    438e:	79 79       	andi	r23, 0x99	; 153
    4390:	7d 74       	andi	r23, 0x4D	; 77
    4392:	76 76       	andi	r23, 0x66	; 102
    4394:	81 85       	ldd	r24, Z+9	; 0x09
    4396:	79 7d       	andi	r23, 0xD9	; 217
    4398:	77 89       	ldd	r23, Z+23	; 0x17
    439a:	91 8e       	std	Z+25, r9	; 0x19
    439c:	8f 82       	std	Y+7, r8	; 0x07
    439e:	74 76       	andi	r23, 0x64	; 100
    43a0:	7d 7e       	andi	r23, 0xED	; 237
    43a2:	80 7e       	andi	r24, 0xE0	; 224
    43a4:	7d 7f       	andi	r23, 0xFD	; 253
    43a6:	7f 87       	std	Y+15, r23	; 0x0f
    43a8:	86 85       	ldd	r24, Z+14	; 0x0e
    43aa:	84 8a       	std	Z+20, r8	; 0x14
    43ac:	80 76       	andi	r24, 0x60	; 96
    43ae:	7a 75       	andi	r23, 0x5A	; 90
    43b0:	89 89       	ldd	r24, Y+17	; 0x11
    43b2:	85 86       	std	Z+13, r8	; 0x0d
    43b4:	7d 77       	andi	r23, 0x7D	; 125
    43b6:	72 78       	andi	r23, 0x82	; 130
    43b8:	81 86       	std	Z+9, r8	; 0x09
    43ba:	85 7f       	andi	r24, 0xF5	; 245
    43bc:	77 76       	andi	r23, 0x67	; 103
    43be:	7b 76       	andi	r23, 0x6B	; 107
    43c0:	78 77       	andi	r23, 0x78	; 120
    43c2:	83 80       	ldd	r8, Z+3	; 0x03
    43c4:	79 7e       	andi	r23, 0xE9	; 233
    43c6:	7c 8e       	std	Y+28, r7	; 0x1c
    43c8:	92 90       	ld	r9, -Z
    43ca:	8d 80       	ldd	r8, Y+5	; 0x05
    43cc:	78 7a       	andi	r23, 0xA8	; 168
    43ce:	7b 7f       	andi	r23, 0xFB	; 251
    43d0:	82 7c       	andi	r24, 0xC2	; 194
    43d2:	80 7d       	andi	r24, 0xD0	; 208
    43d4:	7e 80       	ldd	r7, Y+6	; 0x06
    43d6:	7d 7f       	andi	r23, 0xFD	; 253
    43d8:	82 8a       	std	Z+18, r8	; 0x12
    43da:	79 78       	andi	r23, 0x89	; 137
    43dc:	7b 79       	andi	r23, 0x9B	; 155
    43de:	8d 89       	ldd	r24, Y+21	; 0x15
    43e0:	88 84       	ldd	r8, Y+8	; 0x08
    43e2:	7f 7e       	andi	r23, 0xEF	; 239
    43e4:	79 80       	ldd	r7, Y+1	; 0x01
    43e6:	83 88       	ldd	r8, Z+19	; 0x13
    43e8:	81 7e       	andi	r24, 0xE1	; 225
    43ea:	78 7c       	andi	r23, 0xC8	; 200
    43ec:	7f 77       	andi	r23, 0x7F	; 127
    43ee:	7a 78       	andi	r23, 0x8A	; 138
    43f0:	83 7c       	andi	r24, 0xC3	; 195
    43f2:	7b 78       	andi	r23, 0x8B	; 139
    43f4:	7b 8c       	ldd	r7, Y+27	; 0x1b
    43f6:	8c 94 89 7b 	jmp	0x20f712	; 0x20f712 <__TEXT_REGION_LENGTH__+0x1ef712>
    43fa:	7b 7a       	andi	r23, 0xAB	; 171
    43fc:	7b 80       	ldd	r7, Y+3	; 0x03
    43fe:	82 79       	andi	r24, 0x92	; 146
    4400:	7f 7f       	andi	r23, 0xFF	; 255
    4402:	81 87       	std	Z+9, r24	; 0x09
    4404:	86 83       	std	Z+6, r24	; 0x06
    4406:	82 85       	ldd	r24, Z+10	; 0x0a
    4408:	77 7d       	andi	r23, 0xD7	; 215
    440a:	79 7a       	andi	r23, 0xA9	; 169
    440c:	8a 86       	std	Y+10, r8	; 0x0a
    440e:	85 84       	ldd	r8, Z+13	; 0x0d
    4410:	7d 71       	andi	r23, 0x1D	; 29
    4412:	73 7a       	andi	r23, 0xA3	; 163
    4414:	7f 88       	ldd	r7, Y+23	; 0x17
    4416:	7e 79       	andi	r23, 0x9E	; 158
    4418:	76 7c       	andi	r23, 0xC6	; 198
    441a:	7c 79       	andi	r23, 0x9C	; 156
    441c:	7b 78       	andi	r23, 0x8B	; 139
    441e:	7f 7c       	andi	r23, 0xCF	; 207
    4420:	80 7d       	andi	r24, 0xD0	; 208
    4422:	87 92       	lat	Z, r8
    4424:	8e 90       	ld	r8, -X
    4426:	85 7e       	andi	r24, 0xE5	; 229
    4428:	7b 7a       	andi	r23, 0xAB	; 171
    442a:	79 82       	std	Y+1, r7	; 0x01
    442c:	7f 7b       	andi	r23, 0xBF	; 191
    442e:	80 7c       	andi	r24, 0xC0	; 192
    4430:	7f 80       	ldd	r7, Y+7	; 0x07
    4432:	81 81       	ldd	r24, Z+1	; 0x01
    4434:	88 84       	ldd	r8, Y+8	; 0x08
    4436:	75 7d       	andi	r23, 0xD5	; 213
    4438:	78 83       	st	Y, r23
    443a:	91 86       	std	Z+9, r9	; 0x09
    443c:	84 85       	ldd	r24, Z+12	; 0x0c
    443e:	7e 78       	andi	r23, 0x8E	; 142
    4440:	7c 81       	ldd	r23, Y+4	; 0x04
    4442:	84 88       	ldd	r8, Z+20	; 0x14
    4444:	7f 7a       	andi	r23, 0xAF	; 175
    4446:	7a 7f       	andi	r23, 0xFA	; 250
    4448:	77 7a       	andi	r23, 0xA7	; 167
    444a:	78 79       	andi	r23, 0x98	; 152
    444c:	7f 77       	andi	r23, 0x7F	; 127
    444e:	7a 75       	andi	r23, 0x5A	; 90
    4450:	85 8d       	ldd	r24, Z+29	; 0x1d
    4452:	8d 91       	ld	r24, X+
    4454:	82 7d       	andi	r24, 0xD2	; 210
    4456:	7b 78       	andi	r23, 0x8B	; 139
    4458:	7d 83       	std	Y+5, r23	; 0x05
    445a:	7b 7d       	andi	r23, 0xDB	; 219
    445c:	84 7f       	andi	r24, 0xF4	; 244
    445e:	84 87       	std	Z+12, r24	; 0x0c
    4460:	84 7e       	andi	r24, 0xE4	; 228
    4462:	8a 82       	std	Y+2, r8	; 0x02
    4464:	77 80       	ldd	r7, Z+7	; 0x07
    4466:	75 82       	std	Z+5, r7	; 0x05
    4468:	8d 86       	std	Y+13, r8	; 0x0d
    446a:	88 84       	ldd	r8, Y+8	; 0x08
    446c:	7a 70       	andi	r23, 0x0A	; 10
    446e:	76 7b       	andi	r23, 0xB6	; 182
    4470:	81 84       	ldd	r8, Z+9	; 0x09
    4472:	7a 78       	andi	r23, 0x8A	; 138
    4474:	79 7e       	andi	r23, 0xE9	; 233
    4476:	7b 7f       	andi	r23, 0xFB	; 251
    4478:	77 7d       	andi	r23, 0xD7	; 215
    447a:	7e 7a       	andi	r23, 0xAE	; 174
    447c:	80 7c       	andi	r24, 0xC0	; 192
    447e:	8d 8b       	std	Y+21, r24	; 0x15
    4480:	8b 8c       	ldd	r8, Y+27	; 0x1b
    4482:	81 82       	std	Z+1, r8	; 0x01
    4484:	79 77       	andi	r23, 0x79	; 121
    4486:	7d 81       	ldd	r23, Y+5	; 0x05
    4488:	7a 7d       	andi	r23, 0xDA	; 218
    448a:	82 79       	andi	r24, 0x92	; 146
    448c:	81 84       	ldd	r8, Z+9	; 0x09
    448e:	81 80       	ldd	r8, Z+1	; 0x01
    4490:	88 79       	andi	r24, 0x98	; 152
    4492:	79 81       	ldd	r23, Y+1	; 0x01
    4494:	77 8b       	std	Z+23, r23	; 0x17
    4496:	8c 83       	std	Y+4, r24	; 0x04
    4498:	84 84       	ldd	r8, Z+12	; 0x0c
    449a:	7d 76       	andi	r23, 0x6D	; 109
    449c:	80 82       	st	Z, r8
    449e:	83 82       	std	Z+3, r8	; 0x03
    44a0:	7e 7d       	andi	r23, 0xDE	; 222
    44a2:	79 7b       	andi	r23, 0xB9	; 185
    44a4:	78 79       	andi	r23, 0x98	; 152
    44a6:	77 81       	ldd	r23, Z+7	; 0x07
    44a8:	7d 79       	andi	r23, 0x9D	; 157
    44aa:	75 79       	andi	r23, 0x95	; 149
    44ac:	8c 8b       	std	Y+20, r24	; 0x14
    44ae:	8b 86       	std	Y+11, r8	; 0x0b
    44b0:	79 84       	ldd	r7, Y+9	; 0x09
    44b2:	7d 7f       	andi	r23, 0xFD	; 253
    44b4:	87 75       	andi	r24, 0x57	; 87
    44b6:	7c 80       	ldd	r7, Y+4	; 0x04
    44b8:	83 80       	ldd	r8, Z+3	; 0x03
    44ba:	80 89       	ldd	r24, Z+16	; 0x10
    44bc:	7d 82       	std	Y+5, r7	; 0x05
    44be:	89 7e       	andi	r24, 0xE9	; 233
    44c0:	7f 7d       	andi	r23, 0xDF	; 223
    44c2:	72 82       	std	Z+2, r7	; 0x02
    44c4:	8c 83       	std	Y+4, r24	; 0x04
    44c6:	8a 88       	ldd	r8, Y+18	; 0x12
    44c8:	78 72       	andi	r23, 0x28	; 40
    44ca:	7b 7d       	andi	r23, 0xDB	; 219
    44cc:	80 7f       	andi	r24, 0xF0	; 240
    44ce:	7d 7a       	andi	r23, 0xAD	; 173
    44d0:	79 7b       	andi	r23, 0xB9	; 185
    44d2:	7d 7c       	andi	r23, 0xCD	; 205
    44d4:	7d 80       	ldd	r7, Y+5	; 0x05
    44d6:	87 83       	std	Z+7, r24	; 0x07
    44d8:	74 7c       	andi	r23, 0xC4	; 196
    44da:	84 8a       	std	Z+20, r8	; 0x14
    44dc:	87 8e       	std	Z+31, r8	; 0x1f
    44de:	89 7f       	andi	r24, 0xF9	; 249
    44e0:	7b 79       	andi	r23, 0x9B	; 155
    44e2:	7b 7c       	andi	r23, 0xCB	; 203
    44e4:	79 7d       	andi	r23, 0xD9	; 217
    44e6:	7c 7a       	andi	r23, 0xAC	; 172
    44e8:	82 82       	std	Z+2, r8	; 0x02
    44ea:	80 89       	ldd	r24, Z+16	; 0x10
    44ec:	8b 85       	ldd	r24, Y+11	; 0x0b
    44ee:	86 77       	andi	r24, 0x76	; 118
    44f0:	75 7e       	andi	r23, 0xE5	; 229
    44f2:	89 7c       	andi	r24, 0xC9	; 201
    44f4:	89 8a       	std	Y+17, r8	; 0x11
    44f6:	79 7e       	andi	r23, 0xE9	; 233
    44f8:	80 7d       	andi	r24, 0xD0	; 208
    44fa:	7b 82       	std	Y+3, r7	; 0x03
    44fc:	7e 7a       	andi	r23, 0xAE	; 174
    44fe:	7c 7b       	andi	r23, 0xBC	; 188
    4500:	7c 81       	ldd	r23, Y+4	; 0x04
    4502:	83 83       	std	Z+3, r24	; 0x03
    4504:	86 81       	ldd	r24, Z+6	; 0x06
    4506:	79 7b       	andi	r23, 0xB9	; 185
    4508:	79 7c       	andi	r23, 0xC9	; 201
    450a:	83 82       	std	Z+3, r8	; 0x03
    450c:	88 86       	std	Y+8, r8	; 0x08
    450e:	80 81       	ld	r24, Z
    4510:	7f 7d       	andi	r23, 0xDF	; 223
    4512:	7b 80       	ldd	r7, Y+3	; 0x03
    4514:	83 7e       	andi	r24, 0xE3	; 227
    4516:	84 86       	std	Z+12, r8	; 0x0c
    4518:	7e 85       	ldd	r23, Y+14	; 0x0e
    451a:	85 7e       	andi	r24, 0xE5	; 229
    451c:	7d 7b       	andi	r23, 0xBD	; 189
    451e:	78 7a       	andi	r23, 0xA8	; 168
    4520:	7f 78       	andi	r23, 0x8F	; 143
    4522:	7b 81       	ldd	r23, Y+3	; 0x03
    4524:	79 83       	std	Y+1, r23	; 0x01
    4526:	84 80       	ldd	r8, Z+4	; 0x04
    4528:	7f 7b       	andi	r23, 0xBF	; 191
    452a:	7c 7d       	andi	r23, 0xDC	; 220
    452c:	7f 7c       	andi	r23, 0xCF	; 207
    452e:	7b 79       	andi	r23, 0x9B	; 155
    4530:	7a 7e       	andi	r23, 0xEA	; 234
    4532:	86 87       	std	Z+14, r24	; 0x0e
    4534:	80 79       	andi	r24, 0x90	; 144
    4536:	79 7c       	andi	r23, 0xC9	; 201
    4538:	88 83       	st	Y, r24
    453a:	8b 85       	ldd	r24, Y+11	; 0x0b
    453c:	78 85       	ldd	r23, Y+8	; 0x08
    453e:	87 81       	ldd	r24, Z+7	; 0x07
    4540:	7d 7b       	andi	r23, 0xBD	; 189
    4542:	7e 7b       	andi	r23, 0xBE	; 190
    4544:	7f 80       	ldd	r7, Y+7	; 0x07
    4546:	7f 7f       	andi	r23, 0xFF	; 255
    4548:	7c 87       	std	Y+12, r23	; 0x0c
    454a:	80 84       	ldd	r8, Z+8	; 0x08
    454c:	7d 7d       	andi	r23, 0xDD	; 221
    454e:	7c 77       	andi	r23, 0x7C	; 124
    4550:	83 89       	ldd	r24, Z+19	; 0x13
    4552:	88 8c       	ldd	r8, Y+24	; 0x18
    4554:	87 88       	ldd	r8, Z+23	; 0x17
    4556:	88 81       	ld	r24, Y
    4558:	81 7e       	andi	r24, 0xE1	; 225
    455a:	7f 7d       	andi	r23, 0xDF	; 223
    455c:	83 7c       	andi	r24, 0xC3	; 195
    455e:	78 7a       	andi	r23, 0xA8	; 168
    4560:	7e 84       	ldd	r7, Y+14	; 0x0e
    4562:	84 80       	ldd	r8, Z+4	; 0x04
    4564:	80 78       	andi	r24, 0x80	; 128
    4566:	7b 7f       	andi	r23, 0xFB	; 251
    4568:	81 86       	std	Z+9, r8	; 0x09
    456a:	79 7d       	andi	r23, 0xD9	; 217
    456c:	79 78       	andi	r23, 0x89	; 137
    456e:	7a 7d       	andi	r23, 0xDA	; 218
    4570:	80 7f       	andi	r24, 0xF0	; 240
    4572:	7c 7e       	andi	r23, 0xEC	; 236
    4574:	7c 7e       	andi	r23, 0xEC	; 236
    4576:	7d 85       	ldd	r23, Y+13	; 0x0d
    4578:	7b 79       	andi	r23, 0x9B	; 155
    457a:	7c 82       	std	Y+4, r7	; 0x04
    457c:	85 78       	andi	r24, 0x85	; 133
    457e:	81 84       	ldd	r8, Z+9	; 0x09
    4580:	85 85       	ldd	r24, Z+13	; 0x0d
    4582:	81 81       	ldd	r24, Z+1	; 0x01
    4584:	7d 77       	andi	r23, 0x7D	; 125
    4586:	8d 87       	std	Y+13, r24	; 0x0d
    4588:	8a 8c       	ldd	r8, Y+26	; 0x1a
    458a:	7f 74       	andi	r23, 0x4F	; 79
    458c:	71 7f       	andi	r23, 0xF1	; 241
    458e:	7e 88       	ldd	r7, Y+22	; 0x16
    4590:	86 7f       	andi	r24, 0xF6	; 246
    4592:	80 81       	ld	r24, Z
    4594:	7d 78       	andi	r23, 0x8D	; 141
    4596:	7d 83       	std	Y+5, r23	; 0x05
    4598:	74 87       	std	Z+12, r23	; 0x0c
    459a:	8a 83       	std	Y+2, r24	; 0x02
    459c:	7e 8a       	std	Y+22, r7	; 0x16
    459e:	93 8a       	std	Z+19, r9	; 0x13
    45a0:	8f 81       	ldd	r24, Y+7	; 0x07
    45a2:	7b 6d       	ori	r23, 0xDB	; 219
    45a4:	7e 7c       	andi	r23, 0xCE	; 206
    45a6:	77 7d       	andi	r23, 0xD7	; 215
    45a8:	76 79       	andi	r23, 0x96	; 150
    45aa:	73 73       	andi	r23, 0x33	; 51
    45ac:	7d 7e       	andi	r23, 0xED	; 237
    45ae:	83 7b       	andi	r24, 0xB3	; 179
    45b0:	7b 82       	std	Y+3, r7	; 0x03
    45b2:	7c 77       	andi	r23, 0x7C	; 124
    45b4:	88 8d       	ldd	r24, Y+24	; 0x18
    45b6:	82 8a       	std	Z+18, r8	; 0x12
    45b8:	7b 72       	andi	r23, 0x2B	; 43
    45ba:	6e 7c       	andi	r22, 0xCE	; 206
    45bc:	7b 83       	std	Y+3, r23	; 0x03
    45be:	85 7b       	andi	r24, 0xB5	; 181
    45c0:	7a 74       	andi	r23, 0x4A	; 74
    45c2:	7e 7f       	andi	r23, 0xFE	; 254
    45c4:	82 81       	ldd	r24, Z+2	; 0x02
    45c6:	77 85       	ldd	r23, Z+15	; 0x0f
    45c8:	85 87       	std	Z+13, r24	; 0x0d
    45ca:	7c 8c       	ldd	r7, Y+28	; 0x1c
    45cc:	90 86       	std	Z+8, r9	; 0x08
    45ce:	97 82       	std	Z+7, r9	; 0x07
    45d0:	86 7a       	andi	r24, 0xA6	; 166
    45d2:	80 7d       	andi	r24, 0xD0	; 208
    45d4:	7a 7e       	andi	r23, 0xEA	; 234
    45d6:	76 7e       	andi	r23, 0xE6	; 230
    45d8:	78 78       	andi	r23, 0x88	; 136
    45da:	84 87       	std	Z+12, r24	; 0x0c
    45dc:	86 7e       	andi	r24, 0xE6	; 230
    45de:	85 83       	std	Z+5, r24	; 0x05
    45e0:	85 7a       	andi	r24, 0xA5	; 165
    45e2:	83 92       	.word	0x9283	; ????
    45e4:	7f 8d       	ldd	r23, Y+31	; 0x1f
    45e6:	7a 79       	andi	r23, 0x9A	; 154
    45e8:	74 79       	andi	r23, 0x94	; 148
    45ea:	84 83       	std	Z+4, r24	; 0x04
    45ec:	82 80       	ldd	r8, Z+2	; 0x02
    45ee:	75 77       	andi	r23, 0x75	; 117
    45f0:	7d 7e       	andi	r23, 0xED	; 237
    45f2:	89 7d       	andi	r24, 0xD9	; 217
    45f4:	7d 80       	ldd	r7, Y+5	; 0x05
    45f6:	81 8c       	ldd	r8, Z+25	; 0x19
    45f8:	75 7e       	andi	r23, 0xE5	; 229
    45fa:	8f 7e       	andi	r24, 0xEF	; 239
    45fc:	8f 78       	andi	r24, 0x8F	; 143
    45fe:	80 77       	andi	r24, 0x70	; 112
    4600:	72 7f       	andi	r23, 0xF2	; 242
    4602:	79 81       	ldd	r23, Y+1	; 0x01
    4604:	7a 76       	andi	r23, 0x6A	; 106
    4606:	79 73       	andi	r23, 0x39	; 57
    4608:	84 90       	lpm	r8, Z
    460a:	7a 83       	std	Y+2, r23	; 0x02
    460c:	7b 80       	ldd	r7, Y+3	; 0x03
    460e:	8b 7e       	andi	r24, 0xEB	; 235
    4610:	80 91 7f 89 	lds	r24, 0x897F	; 0x80897f <__bss_end+0x887b>
    4614:	80 77       	andi	r24, 0x70	; 112
    4616:	7b 73       	andi	r23, 0x3B	; 59
    4618:	87 86       	std	Z+15, r8	; 0x0f
    461a:	81 7f       	andi	r24, 0xF1	; 241
    461c:	74 7a       	andi	r23, 0xA4	; 164
    461e:	78 80       	ld	r7, Y
    4620:	8b 78       	andi	r24, 0x8B	; 139
    4622:	81 7e       	andi	r24, 0xE1	; 225
    4624:	87 90       	elpm	r8, Z+
    4626:	87 8a       	std	Z+23, r8	; 0x17
    4628:	86 88       	ldd	r8, Z+22	; 0x16
    462a:	8a 78       	andi	r24, 0x8A	; 138
    462c:	7c 72       	andi	r23, 0x2C	; 44
    462e:	73 7c       	andi	r23, 0xC3	; 195
    4630:	79 7d       	andi	r23, 0xD9	; 217
    4632:	7b 78       	andi	r23, 0x8B	; 139
    4634:	77 72       	andi	r23, 0x27	; 39
    4636:	86 87       	std	Z+14, r24	; 0x0e
    4638:	77 80       	ldd	r7, Z+7	; 0x07
    463a:	7a 82       	std	Y+2, r7	; 0x02
    463c:	84 8a       	std	Z+20, r8	; 0x14
    463e:	81 8b       	std	Z+17, r24	; 0x11
    4640:	88 80       	ld	r8, Y
    4642:	79 7b       	andi	r23, 0xB9	; 185
    4644:	77 70       	andi	r23, 0x07	; 7
    4646:	89 86       	std	Y+9, r8	; 0x09
    4648:	80 7d       	andi	r24, 0xD0	; 208
    464a:	79 7d       	andi	r23, 0xD9	; 217
    464c:	7c 88       	ldd	r7, Y+20	; 0x14
    464e:	85 77       	andi	r24, 0x75	; 117
    4650:	7c 7f       	andi	r23, 0xFC	; 252
    4652:	81 87       	std	Z+9, r24	; 0x09
    4654:	8a 83       	std	Y+2, r24	; 0x02
    4656:	8b 8b       	std	Y+19, r24	; 0x13
    4658:	89 7a       	andi	r24, 0xA9	; 169
    465a:	83 75       	andi	r24, 0x53	; 83
    465c:	6d 7f       	andi	r22, 0xFD	; 253
    465e:	7a 7d       	andi	r23, 0xDA	; 218
    4660:	78 7b       	andi	r23, 0xB8	; 184
    4662:	7d 76       	andi	r23, 0x6D	; 109
    4664:	88 84       	ldd	r8, Y+8	; 0x08
    4666:	77 84       	ldd	r7, Z+15	; 0x0f
    4668:	7f 82       	std	Y+7, r7	; 0x07
    466a:	8b 8e       	std	Y+27, r8	; 0x1b
    466c:	84 90       	lpm	r8, Z
    466e:	8a 80       	ldd	r8, Y+2	; 0x02
    4670:	76 77       	andi	r23, 0x76	; 118
    4672:	74 6f       	ori	r23, 0xF4	; 244
    4674:	88 83       	st	Y, r24
    4676:	7c 7b       	andi	r23, 0xBC	; 188
    4678:	76 7d       	andi	r23, 0xD6	; 214
    467a:	79 88       	ldd	r7, Y+17	; 0x11
    467c:	80 72       	andi	r24, 0x20	; 32
    467e:	7d 81       	ldd	r23, Y+5	; 0x05
    4680:	86 8c       	ldd	r8, Z+30	; 0x1e
    4682:	8a 7f       	andi	r24, 0xFA	; 250
    4684:	88 89       	ldd	r24, Y+16	; 0x10
    4686:	86 7d       	andi	r24, 0xD6	; 214
    4688:	86 75       	andi	r24, 0x56	; 86
    468a:	74 89       	ldd	r23, Z+20	; 0x14
    468c:	7d 7d       	andi	r23, 0xDD	; 221
    468e:	76 78       	andi	r23, 0x86	; 134
    4690:	78 71       	andi	r23, 0x18	; 24
    4692:	8c 7d       	andi	r24, 0xDC	; 220
    4694:	77 7f       	andi	r23, 0xF7	; 247
    4696:	78 84       	ldd	r7, Y+8	; 0x08
    4698:	8a 8f       	std	Y+26, r24	; 0x1a
    469a:	82 8b       	std	Z+18, r24	; 0x12
    469c:	86 7e       	andi	r24, 0xE6	; 230
    469e:	7b 7d       	andi	r23, 0xDB	; 219
    46a0:	73 71       	andi	r23, 0x13	; 19
    46a2:	8a 80       	ldd	r8, Y+2	; 0x02
    46a4:	84 7b       	andi	r24, 0xB4	; 180
    46a6:	7a 7c       	andi	r23, 0xCA	; 202
    46a8:	7a 8f       	std	Y+26, r23	; 0x1a
    46aa:	7e 7b       	andi	r23, 0xBE	; 190
    46ac:	7f 7e       	andi	r23, 0xEF	; 239
    46ae:	86 8d       	ldd	r24, Z+30	; 0x1e
    46b0:	8d 82       	std	Y+5, r8	; 0x05
    46b2:	88 86       	std	Y+8, r8	; 0x08
    46b4:	80 78       	andi	r24, 0x80	; 128
    46b6:	81 70       	andi	r24, 0x01	; 1
    46b8:	72 82       	std	Z+2, r7	; 0x02
    46ba:	76 77       	andi	r23, 0x76	; 118
    46bc:	73 7e       	andi	r23, 0xE3	; 227
    46be:	77 7a       	andi	r23, 0xA7	; 167
    46c0:	8c 77       	andi	r24, 0x7C	; 124
    46c2:	80 83       	st	Z, r24
    46c4:	81 87       	std	Z+9, r24	; 0x09
    46c6:	91 92       	st	Z+, r9
    46c8:	81 8d       	ldd	r24, Z+25	; 0x19
    46ca:	84 79       	andi	r24, 0x94	; 148
    46cc:	77 78       	andi	r23, 0x87	; 135
    46ce:	6f 77       	andi	r22, 0x7F	; 127
    46d0:	88 7f       	andi	r24, 0xF8	; 248
    46d2:	7d 76       	andi	r23, 0x6D	; 109
    46d4:	7d 75       	andi	r23, 0x5D	; 93
    46d6:	84 8c       	ldd	r8, Z+28	; 0x1c
    46d8:	76 7b       	andi	r23, 0xB6	; 182
    46da:	7b 83       	std	Y+3, r23	; 0x03
    46dc:	89 92       	st	Y+, r8
    46de:	88 81       	ld	r24, Y
    46e0:	8e 89       	ldd	r24, Y+22	; 0x16
    46e2:	84 81       	ldd	r24, Z+4	; 0x04
    46e4:	81 72       	andi	r24, 0x21	; 33
    46e6:	7d 83       	std	Y+5, r23	; 0x05
    46e8:	7a 79       	andi	r23, 0x9A	; 154
    46ea:	71 79       	andi	r23, 0x91	; 145
    46ec:	70 80       	ld	r7, Z
    46ee:	89 72       	andi	r24, 0x29	; 41
    46f0:	83 7c       	andi	r24, 0xC3	; 195
    46f2:	7e 88       	ldd	r7, Y+22	; 0x16
    46f4:	94 8a       	std	Z+20, r9	; 0x14
    46f6:	7d 88       	ldd	r7, Y+21	; 0x15
    46f8:	81 7a       	andi	r24, 0xA1	; 161
    46fa:	7e 7c       	andi	r23, 0xCE	; 206
    46fc:	6f 78       	andi	r22, 0x8F	; 143
    46fe:	88 84       	ldd	r8, Y+8	; 0x08
    4700:	83 7c       	andi	r24, 0xC3	; 195
    4702:	7a 74       	andi	r23, 0x4A	; 74
    4704:	88 83       	st	Y, r24
    4706:	78 80       	ld	r7, Y
    4708:	78 82       	st	Y, r7
    470a:	88 94       	clc
    470c:	83 81       	ldd	r24, Z+3	; 0x03
    470e:	89 83       	std	Y+1, r24	; 0x01
    4710:	7e 7f       	andi	r23, 0xFE	; 254
    4712:	7d 71       	andi	r23, 0x1D	; 29
    4714:	7b 7d       	andi	r23, 0xDB	; 219
    4716:	78 7b       	andi	r23, 0xB8	; 184
    4718:	75 7c       	andi	r23, 0xC5	; 197
    471a:	6f 82       	std	Y+7, r6	; 0x07
    471c:	80 71       	andi	r24, 0x10	; 16
    471e:	86 7f       	andi	r24, 0xF6	; 246
    4720:	82 8c       	ldd	r8, Z+26	; 0x1a
    4722:	99 8b       	std	Y+17, r25	; 0x11
    4724:	87 8f       	std	Z+31, r24	; 0x1f
    4726:	7f 77       	andi	r23, 0x7F	; 127
    4728:	7c 75       	andi	r23, 0x5C	; 92
    472a:	6e 7c       	andi	r22, 0xCE	; 206
    472c:	86 7e       	andi	r24, 0xE6	; 230
    472e:	7f 79       	andi	r23, 0x9F	; 159
    4730:	78 79       	andi	r23, 0x98	; 152
    4732:	8e 7c       	andi	r24, 0xCE	; 206
    4734:	74 81       	ldd	r23, Z+4	; 0x04
    4736:	7c 89       	ldd	r23, Y+20	; 0x14
    4738:	8f 93       	push	r24
    473a:	7e 85       	ldd	r23, Y+14	; 0x0e
    473c:	90 87       	std	Z+8, r25	; 0x08
    473e:	82 83       	std	Z+2, r24	; 0x02
    4740:	7d 73       	andi	r23, 0x3D	; 61
    4742:	7e 7b       	andi	r23, 0xBE	; 190
    4744:	78 7b       	andi	r23, 0xB8	; 184
    4746:	73 7b       	andi	r23, 0xB3	; 179
    4748:	72 87       	std	Z+10, r23	; 0x0a
    474a:	79 76       	andi	r23, 0x69	; 105
    474c:	86 78       	andi	r24, 0x86	; 134
    474e:	80 8c       	ldd	r8, Z+24	; 0x18
    4750:	92 81       	ldd	r25, Z+2	; 0x02
    4752:	82 89       	ldd	r24, Z+18	; 0x12
    4754:	7d 7d       	andi	r23, 0xDD	; 221
    4756:	7f 73       	andi	r23, 0x3F	; 63
    4758:	71 7e       	andi	r23, 0xE1	; 225
    475a:	82 83       	std	Z+2, r24	; 0x02
    475c:	83 79       	andi	r24, 0x93	; 147
    475e:	78 7a       	andi	r23, 0xA8	; 168
    4760:	8d 79       	andi	r24, 0x9D	; 157
    4762:	7d 7e       	andi	r23, 0xED	; 237
    4764:	79 87       	std	Y+9, r23	; 0x09
    4766:	8d 92       	st	X+, r8
    4768:	7d 83       	std	Y+5, r23	; 0x05
    476a:	89 80       	ldd	r8, Y+1	; 0x01
    476c:	7f 85       	ldd	r23, Y+15	; 0x0f
    476e:	7d 74       	andi	r23, 0x4D	; 77
    4770:	7c 78       	andi	r23, 0x8C	; 140
    4772:	77 79       	andi	r23, 0x97	; 151
    4774:	77 78       	andi	r23, 0x87	; 135
    4776:	75 87       	std	Z+13, r23	; 0x0d
    4778:	74 80       	ldd	r7, Z+4	; 0x04
    477a:	89 7f       	andi	r24, 0xF9	; 249
    477c:	89 96       	adiw	r24, 0x29	; 41
    477e:	94 83       	std	Z+4, r25	; 0x04
    4780:	89 88       	ldd	r8, Y+17	; 0x11
    4782:	78 7c       	andi	r23, 0xC8	; 200
    4784:	7d 70       	andi	r23, 0x0D	; 13
    4786:	73 7f       	andi	r23, 0xF3	; 243
    4788:	80 82       	st	Z, r8
    478a:	7d 79       	andi	r23, 0x9D	; 157
    478c:	76 7d       	andi	r23, 0xD6	; 214
    478e:	88 71       	andi	r24, 0x18	; 24
    4790:	80 7d       	andi	r24, 0xD0	; 208
    4792:	7f 8d       	ldd	r23, Y+31	; 0x1f
    4794:	93 8f       	std	Z+27, r25	; 0x1b
    4796:	7d 88       	ldd	r7, Y+21	; 0x15
    4798:	8b 7f       	andi	r24, 0xFB	; 251
    479a:	81 83       	std	Z+1, r24	; 0x01
    479c:	79 76       	andi	r23, 0x69	; 105
    479e:	81 7b       	andi	r24, 0xB1	; 177
    47a0:	77 78       	andi	r23, 0x87	; 135
    47a2:	78 76       	andi	r23, 0x68	; 104
    47a4:	7b 83       	std	Y+3, r23	; 0x03
    47a6:	6e 7b       	andi	r22, 0xBE	; 190
    47a8:	7e 7d       	andi	r23, 0xDE	; 222
    47aa:	89 98       	cbi	0x11, 1	; 17
    47ac:	8c 7e       	andi	r24, 0xEC	; 236
    47ae:	86 84       	ldd	r8, Z+14	; 0x0e
    47b0:	79 7f       	andi	r23, 0xF9	; 249
    47b2:	7d 6f       	ori	r23, 0xFD	; 253
    47b4:	72 7c       	andi	r23, 0xC2	; 194
    47b6:	83 86       	std	Z+11, r8	; 0x0b
    47b8:	7f 7d       	andi	r23, 0xDF	; 223
    47ba:	78 85       	ldd	r23, Y+8	; 0x08
    47bc:	89 77       	andi	r24, 0x79	; 121
    47be:	85 76       	andi	r24, 0x65	; 101
    47c0:	7d 87       	std	Y+13, r23	; 0x0d
    47c2:	92 88       	ldd	r9, Z+18	; 0x12
    47c4:	7d 89       	ldd	r23, Y+21	; 0x15
    47c6:	85 7c       	andi	r24, 0xC5	; 197
    47c8:	83 84       	ldd	r8, Z+11	; 0x0b
    47ca:	75 73       	andi	r23, 0x35	; 53
    47cc:	7f 78       	andi	r23, 0x8F	; 143
    47ce:	7a 7a       	andi	r23, 0xAA	; 170
    47d0:	79 78       	andi	r23, 0x89	; 137
    47d2:	80 7f       	andi	r24, 0xF0	; 240
    47d4:	74 84       	ldd	r7, Z+12	; 0x0c
    47d6:	82 7d       	andi	r24, 0xD2	; 210
    47d8:	8c 9b       	sbis	0x11, 4	; 17
    47da:	88 84       	ldd	r8, Y+8	; 0x08
    47dc:	88 81       	ld	r24, Y
    47de:	77 80       	ldd	r7, Z+7	; 0x07
    47e0:	7b 71       	andi	r23, 0x1B	; 27
    47e2:	7a 7e       	andi	r23, 0xEA	; 234
    47e4:	81 82       	std	Z+1, r8	; 0x01
    47e6:	7a 7b       	andi	r23, 0xBA	; 186
    47e8:	76 80       	ldd	r7, Z+6	; 0x06
    47ea:	7d 75       	andi	r23, 0x5D	; 93
    47ec:	83 79       	andi	r24, 0x93	; 147
    47ee:	84 91       	lpm	r24, Z
    47f0:	95 85       	ldd	r25, Z+13	; 0x0d
    47f2:	82 8b       	std	Z+18, r24	; 0x12
    47f4:	88 7e       	andi	r24, 0xE8	; 232
    47f6:	84 83       	std	Z+4, r24	; 0x04
    47f8:	77 78       	andi	r23, 0x87	; 135
    47fa:	7f 7a       	andi	r23, 0xAF	; 175
    47fc:	7b 75       	andi	r23, 0x5B	; 91
    47fe:	77 77       	andi	r23, 0x77	; 119
    4800:	7d 7a       	andi	r23, 0xAD	; 173
    4802:	73 81       	ldd	r23, Z+3	; 0x03
    4804:	7e 80       	ldd	r7, Y+6	; 0x06
    4806:	91 95       	neg	r25
    4808:	84 85       	ldd	r24, Z+12	; 0x0c
    480a:	88 82       	st	Y, r8
    480c:	77 7e       	andi	r23, 0xE7	; 231
    480e:	74 6d       	ori	r23, 0xD4	; 212
    4810:	79 80       	ldd	r7, Y+1	; 0x01
    4812:	86 87       	std	Z+14, r24	; 0x0e
    4814:	7b 7c       	andi	r23, 0xCB	; 203
    4816:	79 87       	std	Y+9, r23	; 0x09
    4818:	7f 7d       	andi	r23, 0xDF	; 223
    481a:	81 74       	andi	r24, 0x41	; 65
    481c:	82 94       	swap	r8
    481e:	94 84       	ldd	r9, Z+12	; 0x0c
    4820:	82 86       	std	Z+10, r8	; 0x0a
    4822:	81 7a       	andi	r24, 0xA1	; 161
    4824:	83 7c       	andi	r24, 0xC3	; 195
    4826:	74 76       	andi	r23, 0x64	; 100
    4828:	7a 7b       	andi	r23, 0xBA	; 186
    482a:	7f 78       	andi	r23, 0x8F	; 143
    482c:	7a 7b       	andi	r23, 0xBA	; 186
    482e:	82 77       	andi	r24, 0x72	; 114
    4830:	7c 86       	std	Y+12, r7	; 0x0c
    4832:	7f 81       	ldd	r23, Y+7	; 0x07
    4834:	92 93       	st	-Z, r25
    4836:	87 87       	std	Z+15, r24	; 0x0f
    4838:	86 7e       	andi	r24, 0xE6	; 230
    483a:	76 81       	ldd	r23, Z+6	; 0x06
    483c:	73 71       	andi	r23, 0x13	; 19
    483e:	79 7c       	andi	r23, 0xC9	; 201
    4840:	84 82       	std	Z+4, r8	; 0x04
    4842:	79 7a       	andi	r23, 0xA9	; 169
    4844:	78 83       	st	Y, r23
    4846:	78 81       	ld	r23, Y
    4848:	84 79       	andi	r24, 0x94	; 148
    484a:	86 92       	lac	Z, r8
    484c:	8d 84       	ldd	r8, Y+13	; 0x0d
    484e:	84 87       	std	Z+12, r24	; 0x0c
    4850:	83 7d       	andi	r24, 0xD3	; 211
    4852:	83 7c       	andi	r24, 0xC3	; 195
    4854:	7c 7d       	andi	r23, 0xDC	; 220
    4856:	7c 7b       	andi	r23, 0xBC	; 188
    4858:	7c 75       	andi	r23, 0x5C	; 92
    485a:	76 7a       	andi	r23, 0xA6	; 166
    485c:	7d 72       	andi	r23, 0x2D	; 45
    485e:	7e 7f       	andi	r23, 0xFE	; 254
    4860:	7e 84       	ldd	r7, Y+14	; 0x0e
    4862:	95 8e       	std	Z+29, r9	; 0x1d
    4864:	85 86       	std	Z+13, r8	; 0x0d
    4866:	84 7d       	andi	r24, 0xD4	; 212
    4868:	79 80       	ldd	r7, Y+1	; 0x01
    486a:	70 72       	andi	r23, 0x20	; 32
    486c:	7e 82       	std	Y+6, r7	; 0x06
    486e:	8a 84       	ldd	r8, Y+10	; 0x0a
    4870:	7b 78       	andi	r23, 0x8B	; 139
    4872:	7b 83       	std	Y+3, r23	; 0x03
    4874:	76 82       	std	Z+6, r7	; 0x06
    4876:	7e 77       	andi	r23, 0x7E	; 126
    4878:	86 95       	lsr	r24
    487a:	8c 86       	std	Y+12, r8	; 0x0c
    487c:	86 86       	std	Z+14, r8	; 0x0e
    487e:	7f 7d       	andi	r23, 0xDF	; 223
    4880:	81 76       	andi	r24, 0x61	; 97
    4882:	76 79       	andi	r23, 0x96	; 150
    4884:	7d 7f       	andi	r23, 0xFD	; 253
    4886:	7d 77       	andi	r23, 0x7D	; 125
    4888:	79 7e       	andi	r23, 0xE9	; 233
    488a:	7b 78       	andi	r23, 0x8B	; 139
    488c:	82 7f       	andi	r24, 0xF2	; 242
    488e:	81 88       	ldd	r8, Z+17	; 0x11
    4890:	9b 90       	.word	0x909b	; ????
    4892:	8b 87       	std	Y+11, r24	; 0x0b
    4894:	81 7b       	andi	r24, 0xB1	; 177
    4896:	78 7e       	andi	r23, 0xE8	; 232
    4898:	6f 72       	andi	r22, 0x2F	; 47
    489a:	7c 7d       	andi	r23, 0xDC	; 220
    489c:	86 82       	std	Z+6, r8	; 0x06
    489e:	7b 76       	andi	r23, 0x6B	; 107
    48a0:	7b 7d       	andi	r23, 0xDB	; 219
    48a2:	78 84       	ldd	r7, Y+8	; 0x08
    48a4:	7e 79       	andi	r23, 0x9E	; 158
    48a6:	8b 98       	cbi	0x11, 3	; 17
    48a8:	88 8a       	std	Y+16, r8	; 0x10
    48aa:	89 89       	ldd	r24, Y+17	; 0x11
    48ac:	80 7d       	andi	r24, 0xD0	; 208
    48ae:	82 7b       	andi	r24, 0xB2	; 178
    48b0:	7b 7a       	andi	r23, 0xAB	; 171
    48b2:	7d 7d       	andi	r23, 0xDD	; 221
    48b4:	76 77       	andi	r23, 0x76	; 118
    48b6:	76 80       	ldd	r7, Z+6	; 0x06
    48b8:	78 77       	andi	r23, 0x78	; 120
    48ba:	80 79       	andi	r24, 0x90	; 144
    48bc:	7e 88       	ldd	r7, Y+22	; 0x16
    48be:	96 87       	std	Z+14, r25	; 0x0e
    48c0:	88 82       	st	Y, r8
    48c2:	82 7b       	andi	r24, 0xB2	; 178
    48c4:	79 7e       	andi	r23, 0xE9	; 233
    48c6:	6f 7a       	andi	r22, 0xAF	; 175
    48c8:	7e 83       	std	Y+6, r23	; 0x06
    48ca:	88 7c       	andi	r24, 0xC8	; 200
    48cc:	7b 77       	andi	r23, 0x7B	; 123
    48ce:	82 7b       	andi	r24, 0xB2	; 178
    48d0:	7a 83       	std	Y+2, r23	; 0x02
    48d2:	79 7a       	andi	r23, 0xA9	; 169
    48d4:	91 96       	adiw	r26, 0x21	; 33
    48d6:	8a 8b       	std	Y+18, r24	; 0x12
    48d8:	83 83       	std	Z+3, r24	; 0x03
    48da:	7a 7f       	andi	r23, 0xFA	; 250
    48dc:	7e 75       	andi	r23, 0x5E	; 94
    48de:	79 79       	andi	r23, 0x99	; 153
    48e0:	7f 7f       	andi	r23, 0xFF	; 255
    48e2:	79 79       	andi	r23, 0x99	; 153
    48e4:	77 83       	std	Z+7, r23	; 0x07
    48e6:	77 7d       	andi	r23, 0xD7	; 215
    48e8:	80 7b       	andi	r24, 0xB0	; 176
    48ea:	80 90 99 8b 	lds	r8, 0x8B99	; 0x808b99 <__bss_end+0x8a95>
    48ee:	8c 84       	ldd	r8, Y+12	; 0x0c
    48f0:	7f 75       	andi	r23, 0x5F	; 95
    48f2:	7a 7a       	andi	r23, 0xAA	; 170
    48f4:	6d 7a       	andi	r22, 0xAD	; 173
    48f6:	7a 85       	ldd	r23, Y+10	; 0x0a
    48f8:	84 7a       	andi	r24, 0xA4	; 164
    48fa:	79 78       	andi	r23, 0x89	; 137
    48fc:	82 77       	andi	r24, 0x72	; 114
    48fe:	7f 81       	ldd	r23, Y+7	; 0x07
    4900:	7a 7b       	andi	r23, 0xBA	; 186
    4902:	91 93       	st	Z+, r25
    4904:	8b 8f       	std	Y+27, r24	; 0x1b
    4906:	85 84       	ldd	r8, Z+13	; 0x0d
    4908:	7a 7f       	andi	r23, 0xFA	; 250
    490a:	7e 79       	andi	r23, 0x9E	; 158
    490c:	7b 77       	andi	r23, 0x7B	; 123
    490e:	7c 78       	andi	r23, 0x8C	; 140
    4910:	78 77       	andi	r23, 0x78	; 120
    4912:	7c 84       	ldd	r7, Y+12	; 0x0c
    4914:	72 7e       	andi	r23, 0xE2	; 226
    4916:	7c 7c       	andi	r23, 0xCC	; 204
    4918:	80 91 92 87 	lds	r24, 0x8792	; 0x808792 <__bss_end+0x868e>
    491c:	8a 82       	std	Y+2, r8	; 0x02
    491e:	80 78       	andi	r24, 0x80	; 128
    4920:	7a 77       	andi	r23, 0x7A	; 122
    4922:	73 80       	ldd	r7, Z+3	; 0x03
    4924:	7e 8a       	std	Y+22, r7	; 0x16
    4926:	80 7a       	andi	r24, 0xA0	; 160
    4928:	7b 7f       	andi	r23, 0xFB	; 251
    492a:	82 78       	andi	r24, 0x82	; 130
    492c:	81 7e       	andi	r24, 0xE1	; 225
    492e:	7a 7f       	andi	r23, 0xFA	; 250
    4930:	94 8f       	std	Z+28, r25	; 0x1c
    4932:	8a 88       	ldd	r8, Y+18	; 0x12
    4934:	81 7e       	andi	r24, 0xE1	; 225
    4936:	79 7f       	andi	r23, 0xF9	; 249
    4938:	7a 79       	andi	r23, 0x9A	; 154
    493a:	7f 7c       	andi	r23, 0xCF	; 207
    493c:	82 7a       	andi	r24, 0xA2	; 162
    493e:	77 73       	andi	r23, 0x37	; 55
    4940:	7f 81       	ldd	r23, Y+7	; 0x07
    4942:	74 82       	std	Z+4, r7	; 0x04
    4944:	7a 7b       	andi	r23, 0xBA	; 186
    4946:	85 98       	cbi	0x10, 5	; 16
    4948:	94 8d       	ldd	r25, Z+28	; 0x1c
    494a:	8c 80       	ldd	r8, Y+4	; 0x04
    494c:	7d 7a       	andi	r23, 0xAD	; 173
    494e:	7b 75       	andi	r23, 0x5B	; 91
    4950:	73 7e       	andi	r23, 0xE3	; 227
    4952:	7e 84       	ldd	r7, Y+14	; 0x0e
    4954:	7b 79       	andi	r23, 0x9B	; 155
    4956:	77 7c       	andi	r23, 0xC7	; 199
    4958:	7a 77       	andi	r23, 0x7A	; 122
    495a:	80 7e       	andi	r24, 0xE0	; 224
    495c:	7d 82       	std	Y+5, r7	; 0x05
    495e:	98 91       	.word	0x9198	; ????
    4960:	8f 8d       	ldd	r24, Y+31	; 0x1f
    4962:	85 7f       	andi	r24, 0xF5	; 245
    4964:	7a 7d       	andi	r23, 0xDA	; 218
    4966:	78 78       	andi	r23, 0x88	; 136
    4968:	7c 78       	andi	r23, 0x8C	; 140
    496a:	80 77       	andi	r24, 0x70	; 112
    496c:	77 77       	andi	r23, 0x77	; 119
    496e:	82 7b       	andi	r24, 0xB2	; 178
    4970:	77 7e       	andi	r23, 0xE7	; 231
    4972:	77 7f       	andi	r23, 0xF7	; 247
    4974:	89 93       	st	Y+, r24
    4976:	8c 8c       	ldd	r8, Y+28	; 0x1c
    4978:	8b 80       	ldd	r8, Y+3	; 0x03
    497a:	7a 77       	andi	r23, 0x7A	; 122
    497c:	77 73       	andi	r23, 0x37	; 55
    497e:	75 7f       	andi	r23, 0xF5	; 245
    4980:	80 85       	ldd	r24, Z+8	; 0x08
    4982:	7b 7d       	andi	r23, 0xDB	; 219
    4984:	80 84       	ldd	r8, Z+8	; 0x08
    4986:	7a 7b       	andi	r23, 0xBA	; 186
    4988:	80 82       	st	Z, r8
    498a:	7d 84       	ldd	r7, Y+13	; 0x0d
    498c:	96 88       	ldd	r9, Z+22	; 0x16
    498e:	89 8a       	std	Y+17, r8	; 0x11
    4990:	81 7d       	andi	r24, 0xD1	; 209
    4992:	7b 7d       	andi	r23, 0xDB	; 219
    4994:	77 7b       	andi	r23, 0xB7	; 183
    4996:	80 7b       	andi	r24, 0xB0	; 176
    4998:	80 77       	andi	r24, 0x70	; 112
    499a:	78 7b       	andi	r23, 0xB8	; 184
    499c:	82 7a       	andi	r24, 0xA2	; 162
    499e:	7d 7c       	andi	r23, 0xCD	; 205
    49a0:	79 82       	std	Y+1, r7	; 0x01
    49a2:	8e 96       	adiw	r24, 0x2e	; 46
    49a4:	8e 8b       	std	Y+22, r24	; 0x16
    49a6:	87 80       	ldd	r8, Z+7	; 0x07
    49a8:	7b 78       	andi	r23, 0x8B	; 139
    49aa:	7a 75       	andi	r23, 0x5A	; 90
    49ac:	76 7d       	andi	r23, 0xD6	; 214
    49ae:	7c 83       	std	Y+4, r23	; 0x04
    49b0:	79 7c       	andi	r23, 0xC9	; 201
    49b2:	7d 7b       	andi	r23, 0xBD	; 189
    49b4:	73 7d       	andi	r23, 0xD3	; 211
    49b6:	82 81       	ldd	r24, Z+2	; 0x02
    49b8:	7d 8a       	std	Y+21, r7	; 0x15
    49ba:	95 8b       	std	Z+21, r25	; 0x15
    49bc:	8f 8a       	std	Y+23, r8	; 0x17
    49be:	7e 7a       	andi	r23, 0xAE	; 174
    49c0:	7d 83       	std	Y+5, r23	; 0x05
    49c2:	7c 7d       	andi	r23, 0xDC	; 220
    49c4:	7e 7b       	andi	r23, 0xBE	; 190
    49c6:	7e 74       	andi	r23, 0x4E	; 78
    49c8:	7a 7a       	andi	r23, 0xAA	; 170
    49ca:	7d 74       	andi	r23, 0x4D	; 77
    49cc:	77 77       	andi	r23, 0x77	; 119
    49ce:	78 83       	st	Y, r23
    49d0:	90 90 8c 8b 	lds	r9, 0x8B8C	; 0x808b8c <__bss_end+0x8a88>
    49d4:	8a 81       	ldd	r24, Y+2	; 0x02
    49d6:	7b 78       	andi	r23, 0x8B	; 139
    49d8:	76 72       	andi	r23, 0x26	; 38
    49da:	7a 80       	ldd	r7, Y+2	; 0x02
    49dc:	7f 7f       	andi	r23, 0xFF	; 255
    49de:	7b 82       	std	Y+3, r7	; 0x03
    49e0:	80 7e       	andi	r24, 0xE0	; 224
    49e2:	74 7e       	andi	r23, 0xE4	; 228
    49e4:	7f 80       	ldd	r7, Y+7	; 0x07
    49e6:	81 8e       	std	Z+25, r8	; 0x19
    49e8:	91 89       	ldd	r25, Z+17	; 0x11
    49ea:	8d 86       	std	Y+13, r8	; 0x0d
    49ec:	7d 7d       	andi	r23, 0xDD	; 221
    49ee:	7d 7c       	andi	r23, 0xCD	; 205
    49f0:	74 7c       	andi	r23, 0xC4	; 196
    49f2:	7d 7c       	andi	r23, 0xCD	; 205
    49f4:	7c 77       	andi	r23, 0x7C	; 124
    49f6:	7e 7f       	andi	r23, 0xFE	; 254
    49f8:	80 76       	andi	r24, 0x60	; 96
    49fa:	7b 77       	andi	r23, 0x7B	; 123
    49fc:	7e 89       	ldd	r23, Y+22	; 0x16
    49fe:	93 90       	.word	0x9093	; ????
    4a00:	8c 89       	ldd	r24, Y+20	; 0x14
    4a02:	85 7c       	andi	r24, 0xC5	; 197
    4a04:	7a 78       	andi	r23, 0x8A	; 138
    4a06:	76 73       	andi	r23, 0x36	; 54
    4a08:	7a 7d       	andi	r23, 0xDA	; 218
    4a0a:	7f 7c       	andi	r23, 0xCF	; 207
    4a0c:	7d 83       	std	Y+5, r23	; 0x05
    4a0e:	80 77       	andi	r24, 0x70	; 112
    4a10:	72 7d       	andi	r23, 0xD2	; 210
    4a12:	7d 85       	ldd	r23, Y+13	; 0x0d
    4a14:	81 8f       	std	Z+25, r24	; 0x19
    4a16:	91 8c       	ldd	r9, Z+25	; 0x19
    4a18:	8d 85       	ldd	r24, Y+13	; 0x0d
    4a1a:	7e 7f       	andi	r23, 0xFE	; 254
    4a1c:	80 7e       	andi	r24, 0xE0	; 224
    4a1e:	78 80       	ld	r7, Y
    4a20:	7d 7d       	andi	r23, 0xDD	; 221
    4a22:	7b 79       	andi	r23, 0x9B	; 155
    4a24:	7a 7b       	andi	r23, 0xBA	; 186
    4a26:	78 71       	andi	r23, 0x18	; 24
    4a28:	77 76       	andi	r23, 0x67	; 103
    4a2a:	80 89       	ldd	r24, Z+16	; 0x10
    4a2c:	94 8e       	std	Z+28, r9	; 0x1c
    4a2e:	8d 8c       	ldd	r8, Y+29	; 0x1d
    4a30:	87 7c       	andi	r24, 0xC7	; 199
    4a32:	79 75       	andi	r23, 0x59	; 89
    4a34:	75 74       	andi	r23, 0x45	; 69
    4a36:	7d 7e       	andi	r23, 0xED	; 237
    4a38:	7f 7e       	andi	r23, 0xEF	; 239
    4a3a:	83 86       	std	Z+11, r8	; 0x0b
    4a3c:	82 76       	andi	r24, 0x62	; 98
    4a3e:	74 7a       	andi	r23, 0xA4	; 164
    4a40:	7c 83       	std	Y+4, r23	; 0x04
    4a42:	83 90       	.word	0x9083	; ????
    4a44:	8f 8a       	std	Y+23, r8	; 0x17
    4a46:	8a 83       	std	Y+2, r24	; 0x02
    4a48:	7f 7c       	andi	r23, 0xCF	; 207
    4a4a:	7c 79       	andi	r23, 0x9C	; 156
    4a4c:	74 7f       	andi	r23, 0xF4	; 244
    4a4e:	7b 7e       	andi	r23, 0xEB	; 235
    4a50:	79 7c       	andi	r23, 0xC9	; 201
    4a52:	7d 81       	ldd	r23, Y+5	; 0x05
    4a54:	7b 76       	andi	r23, 0x6B	; 107
    4a56:	75 78       	andi	r23, 0x85	; 133
    4a58:	81 8e       	std	Z+25, r8	; 0x19
    4a5a:	97 8d       	ldd	r25, Z+31	; 0x1f
    4a5c:	8d 89       	ldd	r24, Y+21	; 0x15
    4a5e:	84 7f       	andi	r24, 0xF4	; 244
    4a60:	7a 76       	andi	r23, 0x6A	; 106
    4a62:	75 72       	andi	r23, 0x25	; 37
    4a64:	77 7a       	andi	r23, 0xA7	; 167
    4a66:	7d 7d       	andi	r23, 0xDD	; 221
    4a68:	81 80       	ldd	r8, Z+1	; 0x01
    4a6a:	7e 73       	andi	r23, 0x3E	; 62
    4a6c:	77 7d       	andi	r23, 0xD7	; 215
    4a6e:	84 86       	std	Z+12, r8	; 0x0c
    4a70:	86 91       	elpm	r24, Z
    4a72:	8f 8b       	std	Y+23, r24	; 0x17
    4a74:	8a 82       	std	Y+2, r8	; 0x02
    4a76:	80 7f       	andi	r24, 0xF0	; 240
    4a78:	81 7a       	andi	r24, 0xA1	; 161
    4a7a:	78 80       	ld	r7, Y
    4a7c:	7c 7d       	andi	r23, 0xDC	; 220
    4a7e:	7a 7b       	andi	r23, 0xBA	; 186
    4a80:	7e 7c       	andi	r23, 0xCE	; 206
    4a82:	74 76       	andi	r23, 0x64	; 100
    4a84:	73 7d       	andi	r23, 0xD3	; 211
    4a86:	82 8a       	std	Z+18, r8	; 0x12
    4a88:	8f 8c       	ldd	r8, Y+31	; 0x1f
    4a8a:	8a 85       	ldd	r24, Y+10	; 0x0a
    4a8c:	83 7b       	andi	r24, 0xB3	; 179
    4a8e:	77 77       	andi	r23, 0x77	; 119
    4a90:	78 78       	andi	r23, 0x88	; 136
    4a92:	7c 80       	ldd	r7, Y+4	; 0x04
    4a94:	7e 80       	ldd	r7, Y+6	; 0x06
    4a96:	86 85       	ldd	r24, Z+14	; 0x0e
    4a98:	7c 71       	andi	r23, 0x1C	; 28
    4a9a:	74 78       	andi	r23, 0x84	; 132
    4a9c:	83 83       	std	Z+3, r24	; 0x03
    4a9e:	87 90       	elpm	r8, Z+
    4aa0:	8b 87       	std	Y+11, r24	; 0x0b
    4aa2:	87 84       	ldd	r8, Z+15	; 0x0f
    4aa4:	82 7d       	andi	r24, 0xD2	; 210
    4aa6:	7f 7a       	andi	r23, 0xAF	; 175
    4aa8:	79 7f       	andi	r23, 0xF9	; 249
    4aaa:	7f 7d       	andi	r23, 0xDF	; 223
    4aac:	7a 7a       	andi	r23, 0xAA	; 170
    4aae:	81 7b       	andi	r24, 0xB1	; 177
    4ab0:	74 74       	andi	r23, 0x44	; 68
    4ab2:	74 81       	ldd	r23, Z+4	; 0x04
    4ab4:	87 97       	sbiw	r24, 0x27	; 39
    4ab6:	93 8f       	std	Z+27, r25	; 0x1b
    4ab8:	8e 87       	std	Y+14, r24	; 0x0e
    4aba:	84 7e       	andi	r24, 0xE4	; 228
    4abc:	75 75       	andi	r23, 0x55	; 85
    4abe:	75 72       	andi	r23, 0x25	; 37
    4ac0:	79 7d       	andi	r23, 0xD9	; 217
    4ac2:	7d 80       	ldd	r7, Y+5	; 0x05
    4ac4:	81 83       	std	Z+1, r24	; 0x01
    4ac6:	7a 76       	andi	r23, 0x6A	; 106
    4ac8:	76 79       	andi	r23, 0x96	; 150
    4aca:	86 84       	ldd	r8, Z+14	; 0x0e
    4acc:	8c 91       	ld	r24, X
    4ace:	8d 86       	std	Y+13, r8	; 0x0d
    4ad0:	87 82       	std	Z+7, r8	; 0x07
    4ad2:	80 7d       	andi	r24, 0xD0	; 208
    4ad4:	81 78       	andi	r24, 0x81	; 129
    4ad6:	78 7f       	andi	r23, 0xF8	; 248
    4ad8:	7b 79       	andi	r23, 0x9B	; 155
    4ada:	7b 7b       	andi	r23, 0xBB	; 187
    4adc:	82 75       	andi	r24, 0x52	; 82
    4ade:	72 72       	andi	r23, 0x22	; 34
    4ae0:	76 81       	ldd	r23, Z+6	; 0x06
    4ae2:	83 91       	.word	0x9183	; ????
    4ae4:	8e 8c       	ldd	r8, Y+30	; 0x1e
    4ae6:	8a 88       	ldd	r8, Y+18	; 0x12
    4ae8:	81 78       	andi	r24, 0x81	; 129
    4aea:	75 78       	andi	r23, 0x85	; 133
    4aec:	75 75       	andi	r23, 0x55	; 85
    4aee:	7d 7e       	andi	r23, 0xED	; 237
    4af0:	7e 87       	std	Y+14, r23	; 0x0e
    4af2:	87 85       	ldd	r24, Z+15	; 0x0f
    4af4:	79 75       	andi	r23, 0x59	; 89
    4af6:	70 7e       	andi	r23, 0xE0	; 224
    4af8:	86 85       	ldd	r24, Z+14	; 0x0e
    4afa:	90 8e       	std	Z+24, r9	; 0x18
    4afc:	8a 86       	std	Y+10, r8	; 0x0a
    4afe:	88 81       	ld	r24, Y
    4b00:	7f 7b       	andi	r23, 0xBF	; 191
    4b02:	7c 78       	andi	r23, 0x8C	; 140
    4b04:	7c 84       	ldd	r7, Y+12	; 0x0c
    4b06:	7a 79       	andi	r23, 0x9A	; 154
    4b08:	7d 80       	ldd	r7, Y+5	; 0x05
    4b0a:	84 75       	andi	r24, 0x54	; 84
    4b0c:	75 71       	andi	r23, 0x15	; 21
    4b0e:	78 82       	st	Y, r7
    4b10:	88 95       	sleep
    4b12:	8d 8d       	ldd	r24, Y+29	; 0x1d
    4b14:	88 85       	ldd	r24, Y+8	; 0x08
    4b16:	80 79       	andi	r24, 0x90	; 144
    4b18:	76 75       	andi	r23, 0x56	; 86
    4b1a:	73 76       	andi	r23, 0x63	; 99
    4b1c:	80 7b       	andi	r24, 0xB0	; 176
    4b1e:	7d 84       	ldd	r7, Y+13	; 0x0d
    4b20:	80 80       	ld	r8, Z
    4b22:	76 72       	andi	r23, 0x26	; 38
    4b24:	6f 81       	ldd	r22, Y+7	; 0x07
    4b26:	82 89       	ldd	r24, Z+18	; 0x12
    4b28:	92 8d       	ldd	r25, Z+26	; 0x1a
    4b2a:	8b 8a       	std	Y+19, r8	; 0x13
    4b2c:	8b 84       	ldd	r8, Y+11	; 0x0b
    4b2e:	83 81       	ldd	r24, Z+3	; 0x03
    4b30:	7d 76       	andi	r23, 0x6D	; 109
    4b32:	7c 7f       	andi	r23, 0xFC	; 252
    4b34:	75 7a       	andi	r23, 0xA5	; 165
    4b36:	7c 7f       	andi	r23, 0xFC	; 252
    4b38:	81 74       	andi	r24, 0x41	; 65
    4b3a:	74 71       	andi	r23, 0x14	; 20
    4b3c:	7d 80       	ldd	r7, Y+5	; 0x05
    4b3e:	8a 92       	st	-Y, r8
    4b40:	8c 8e       	std	Y+28, r8	; 0x1c
    4b42:	8a 82       	std	Y+2, r8	; 0x02
    4b44:	7b 7b       	andi	r23, 0xBB	; 187
    4b46:	78 74       	andi	r23, 0x48	; 72
    4b48:	76 79       	andi	r23, 0x96	; 150
    4b4a:	7e 78       	andi	r23, 0x8E	; 142
    4b4c:	81 89       	ldd	r24, Z+17	; 0x11
    4b4e:	87 83       	std	Z+7, r24	; 0x07
    4b50:	76 71       	andi	r23, 0x16	; 22
    4b52:	70 84       	ldd	r7, Z+8	; 0x08
    4b54:	83 8c       	ldd	r8, Z+27	; 0x1b
    4b56:	8b 88       	ldd	r8, Y+19	; 0x13
    4b58:	86 88       	ldd	r8, Z+22	; 0x16
    4b5a:	88 7e       	andi	r24, 0xE8	; 232
    4b5c:	7e 79       	andi	r23, 0x9E	; 158
    4b5e:	79 79       	andi	r23, 0x99	; 153
    4b60:	83 80       	ldd	r8, Z+3	; 0x03
    4b62:	71 7b       	andi	r23, 0xB1	; 177
    4b64:	83 80       	ldd	r8, Z+3	; 0x03
    4b66:	83 76       	andi	r24, 0x63	; 99
    4b68:	71 73       	andi	r23, 0x31	; 49
    4b6a:	7e 82       	std	Y+6, r7	; 0x06
    4b6c:	91 92       	st	Z+, r9
    4b6e:	8c 8a       	std	Y+20, r8	; 0x14
    4b70:	88 81       	ld	r24, Y
    4b72:	7b 7d       	andi	r23, 0xDB	; 219
    4b74:	77 74       	andi	r23, 0x47	; 71
    4b76:	77 7b       	andi	r23, 0xB7	; 183
    4b78:	7c 76       	andi	r23, 0x6C	; 108
    4b7a:	82 85       	ldd	r24, Z+10	; 0x0a
    4b7c:	80 80       	ld	r8, Z
    4b7e:	75 6d       	ori	r23, 0xD5	; 213
    4b80:	71 83       	std	Z+1, r23	; 0x01
    4b82:	87 93       	lat	Z, r24
    4b84:	8f 8f       	std	Y+31, r24	; 0x1f
    4b86:	8e 8c       	ldd	r8, Y+30	; 0x1e
    4b88:	87 80       	ldd	r8, Z+7	; 0x07
    4b8a:	81 7c       	andi	r24, 0xC1	; 193
    4b8c:	7b 7a       	andi	r23, 0xAB	; 171
    4b8e:	80 7d       	andi	r24, 0xD0	; 208
    4b90:	6f 7d       	andi	r22, 0xDF	; 223
    4b92:	81 80       	ldd	r8, Z+1	; 0x01
    4b94:	81 74       	andi	r24, 0x41	; 65
    4b96:	71 75       	andi	r23, 0x51	; 81
    4b98:	7b 81       	ldd	r23, Y+3	; 0x03
    4b9a:	8e 90       	ld	r8, -X
    4b9c:	8b 8c       	ldd	r8, Y+27	; 0x1b
    4b9e:	87 7e       	andi	r24, 0xE7	; 231
    4ba0:	7a 7e       	andi	r23, 0xEA	; 234
    4ba2:	76 73       	andi	r23, 0x36	; 54
    4ba4:	79 7b       	andi	r23, 0xB9	; 185
    4ba6:	7a 75       	andi	r23, 0x5A	; 90
    4ba8:	87 87       	std	Z+15, r24	; 0x0f
    4baa:	87 82       	std	Z+7, r8	; 0x07
    4bac:	72 6f       	ori	r23, 0xF2	; 242
    4bae:	74 82       	std	Z+4, r7	; 0x04
    4bb0:	88 91       	.word	0x9188	; ????
    4bb2:	8b 8a       	std	Y+19, r8	; 0x13
    4bb4:	8c 8a       	std	Y+20, r8	; 0x14
    4bb6:	84 7f       	andi	r24, 0xF4	; 244
    4bb8:	7d 76       	andi	r23, 0x6D	; 109
    4bba:	79 79       	andi	r23, 0x99	; 153
    4bbc:	7e 7a       	andi	r23, 0xAE	; 174
    4bbe:	6f 82       	std	Y+7, r6	; 0x07
    4bc0:	84 84       	ldd	r8, Z+12	; 0x0c
    4bc2:	83 75       	andi	r24, 0x53	; 83
    4bc4:	73 77       	andi	r23, 0x73	; 115
    4bc6:	80 87       	std	Z+8, r24	; 0x08
    4bc8:	93 91       	.word	0x9193	; ????
    4bca:	87 8b       	std	Z+23, r24	; 0x17
    4bcc:	88 7a       	andi	r24, 0xA8	; 168
    4bce:	78 7e       	andi	r23, 0xE8	; 232
    4bd0:	72 73       	andi	r23, 0x32	; 50
    4bd2:	7b 7c       	andi	r23, 0xCB	; 203
    4bd4:	79 76       	andi	r23, 0x69	; 105
    4bd6:	85 83       	std	Z+5, r24	; 0x05
    4bd8:	8b 7f       	andi	r24, 0xFB	; 251
    4bda:	6f 6f       	ori	r22, 0xFF	; 255
    4bdc:	76 83       	std	Z+6, r23	; 0x06
    4bde:	8a 95       	dec	r24
    4be0:	8b 8a       	std	Y+19, r8	; 0x13
    4be2:	8a 88       	ldd	r8, Y+18	; 0x12
    4be4:	82 81       	ldd	r24, Z+2	; 0x02
    4be6:	83 7a       	andi	r24, 0xA3	; 163
    4be8:	7b 79       	andi	r23, 0x9B	; 155
    4bea:	7f 78       	andi	r23, 0x8F	; 143
    4bec:	70 82       	st	Z, r7
    4bee:	7f 84       	ldd	r7, Y+15	; 0x0f
    4bf0:	7f 71       	andi	r23, 0x1F	; 31
    4bf2:	70 77       	andi	r23, 0x70	; 112
    4bf4:	7c 84       	ldd	r7, Y+12	; 0x0c
    4bf6:	91 8e       	std	Z+25, r9	; 0x19
    4bf8:	88 8b       	std	Y+16, r24	; 0x10
    4bfa:	87 79       	andi	r24, 0x97	; 151
    4bfc:	7b 82       	std	Y+3, r7	; 0x03
    4bfe:	75 77       	andi	r23, 0x75	; 117
    4c00:	7b 7c       	andi	r23, 0xCB	; 203
    4c02:	76 79       	andi	r23, 0x96	; 150
    4c04:	89 85       	ldd	r24, Y+9	; 0x09
    4c06:	8c 79       	andi	r24, 0x9C	; 156
    4c08:	6d 6e       	ori	r22, 0xED	; 237
    4c0a:	79 84       	ldd	r7, Y+9	; 0x09
    4c0c:	8b 95       	.word	0x958b	; ????
    4c0e:	88 8a       	std	Y+16, r8	; 0x10
    4c10:	8b 89       	ldd	r24, Y+19	; 0x13
    4c12:	82 7f       	andi	r24, 0xF2	; 242
    4c14:	7e 78       	andi	r23, 0x8E	; 142
    4c16:	7d 79       	andi	r23, 0x9D	; 157
    4c18:	7e 73       	andi	r23, 0x3E	; 62
    4c1a:	73 82       	std	Z+3, r7	; 0x03
    4c1c:	82 8a       	std	Z+18, r8	; 0x12
    4c1e:	81 72       	andi	r24, 0x21	; 33
    4c20:	73 7b       	andi	r23, 0xB3	; 179
    4c22:	81 8c       	ldd	r8, Z+25	; 0x19
    4c24:	97 8c       	ldd	r9, Z+31	; 0x1f
    4c26:	86 8a       	std	Z+22, r8	; 0x16
    4c28:	84 77       	andi	r24, 0x74	; 116
    4c2a:	7b 7c       	andi	r23, 0xCB	; 203
    4c2c:	70 77       	andi	r23, 0x70	; 112
    4c2e:	7b 7b       	andi	r23, 0xBB	; 187
    4c30:	73 7a       	andi	r23, 0xA3	; 163
    4c32:	85 83       	std	Z+5, r24	; 0x05
    4c34:	8b 77       	andi	r24, 0x7B	; 123
    4c36:	6d 71       	andi	r22, 0x1D	; 29
    4c38:	78 88       	ldd	r7, Y+16	; 0x10
    4c3a:	92 97       	sbiw	r26, 0x22	; 34
    4c3c:	89 8b       	std	Y+17, r24	; 0x11
    4c3e:	89 89       	ldd	r24, Y+17	; 0x11
    4c40:	81 82       	std	Z+1, r8	; 0x01
    4c42:	80 77       	andi	r24, 0x70	; 112
    4c44:	7c 7b       	andi	r23, 0xBC	; 188
    4c46:	7e 71       	andi	r23, 0x1E	; 30
    4c48:	77 80       	ldd	r7, Z+7	; 0x07
    4c4a:	81 88       	ldd	r8, Z+17	; 0x11
    4c4c:	7a 6f       	ori	r23, 0xFA	; 250
    4c4e:	73 78       	andi	r23, 0x83	; 131
    4c50:	7f 8f       	std	Y+31, r23	; 0x1f
    4c52:	92 88       	ldd	r9, Z+18	; 0x12
    4c54:	85 88       	ldd	r8, Z+21	; 0x15
    4c56:	80 74       	andi	r24, 0x40	; 64
    4c58:	7f 7d       	andi	r23, 0xDF	; 223
    4c5a:	73 79       	andi	r23, 0x93	; 147
    4c5c:	7c 7a       	andi	r23, 0xAC	; 172
    4c5e:	75 81       	ldd	r23, Z+5	; 0x05
    4c60:	87 88       	ldd	r8, Z+23	; 0x17
    4c62:	8d 73       	andi	r24, 0x3D	; 61
    4c64:	6e 71       	andi	r22, 0x1E	; 30
    4c66:	79 86       	std	Y+9, r7	; 0x09
    4c68:	91 93       	st	Z+, r25
    4c6a:	86 8a       	std	Z+22, r8	; 0x16
    4c6c:	8a 86       	std	Y+10, r8	; 0x0a
    4c6e:	7c 81       	ldd	r23, Y+4	; 0x04
    4c70:	7c 79       	andi	r23, 0x9C	; 156
    4c72:	7e 7c       	andi	r23, 0xCE	; 206
    4c74:	7c 72       	andi	r23, 0x2C	; 44
    4c76:	7a 80       	ldd	r7, Y+2	; 0x02
    4c78:	87 89       	ldd	r24, Z+23	; 0x17
    4c7a:	76 70       	andi	r23, 0x06	; 6
    4c7c:	73 7c       	andi	r23, 0xC3	; 195
    4c7e:	82 91       	ld	r24, -Z
    4c80:	91 86       	std	Z+9, r9	; 0x09
    4c82:	88 8b       	std	Y+16, r24	; 0x10
    4c84:	83 77       	andi	r24, 0x73	; 115
    4c86:	80 78       	andi	r24, 0x80	; 128
    4c88:	71 79       	andi	r23, 0x91	; 145
    4c8a:	7b 76       	andi	r23, 0x6B	; 107
    4c8c:	72 7d       	andi	r23, 0xD2	; 210
    4c8e:	83 8a       	std	Z+19, r8	; 0x13
    4c90:	88 71       	andi	r24, 0x18	; 24
    4c92:	70 71       	andi	r23, 0x10	; 16
    4c94:	7e 89       	ldd	r23, Y+22	; 0x16
    4c96:	96 95       	lsr	r25
    4c98:	86 8b       	std	Z+22, r24	; 0x16
    4c9a:	89 87       	std	Y+9, r24	; 0x09
    4c9c:	81 87       	std	Z+9, r24	; 0x09
    4c9e:	7c 78       	andi	r23, 0x8C	; 140
    4ca0:	7d 7c       	andi	r23, 0xCD	; 205
    4ca2:	78 73       	andi	r23, 0x38	; 56
    4ca4:	7a 7d       	andi	r23, 0xDA	; 218
    4ca6:	89 82       	std	Y+1, r8	; 0x01
    4ca8:	74 73       	andi	r23, 0x34	; 52
    4caa:	74 7c       	andi	r23, 0xC4	; 196
    4cac:	83 92       	.word	0x9283	; ????
    4cae:	8f 86       	std	Y+15, r8	; 0x0f
    4cb0:	85 87       	std	Z+13, r24	; 0x0d
    4cb2:	7e 77       	andi	r23, 0x7E	; 126
    4cb4:	7f 7a       	andi	r23, 0xAF	; 175
    4cb6:	72 7b       	andi	r23, 0xB2	; 178
    4cb8:	7e 77       	andi	r23, 0x7E	; 126
    4cba:	78 80       	ld	r7, Y
    4cbc:	84 8c       	ldd	r8, Z+28	; 0x1c
    4cbe:	82 6e       	ori	r24, 0xE2	; 226
    4cc0:	71 74       	andi	r23, 0x41	; 65
    4cc2:	7e 87       	std	Y+14, r23	; 0x0e
    4cc4:	96 8d       	ldd	r25, Z+30	; 0x1e
    4cc6:	84 8c       	ldd	r8, Z+28	; 0x1c
    4cc8:	89 83       	std	Y+1, r24	; 0x01
    4cca:	80 82       	st	Z, r8
    4ccc:	76 79       	andi	r23, 0x96	; 150
    4cce:	7e 79       	andi	r23, 0x9E	; 158
    4cd0:	77 76       	andi	r23, 0x67	; 103
    4cd2:	7b 84       	ldd	r7, Y+11	; 0x0b
    4cd4:	8d 7c       	andi	r24, 0xCD	; 205
    4cd6:	74 72       	andi	r23, 0x24	; 36
    4cd8:	76 82       	std	Z+6, r7	; 0x06
    4cda:	8a 94       	dec	r8
    4cdc:	8a 88       	ldd	r8, Y+18	; 0x12
    4cde:	88 8a       	std	Y+16, r8	; 0x10
    4ce0:	7f 7a       	andi	r23, 0xAF	; 175
    4ce2:	7c 73       	andi	r23, 0x3C	; 60
    4ce4:	71 7c       	andi	r23, 0xC1	; 193
    4ce6:	7d 72       	andi	r23, 0x2D	; 45
    4ce8:	77 7f       	andi	r23, 0xF7	; 247
    4cea:	87 8e       	std	Z+31, r8	; 0x1f
    4cec:	7d 6f       	ori	r23, 0xFD	; 253
    4cee:	6f 76       	andi	r22, 0x6F	; 111
    4cf0:	82 8f       	std	Z+26, r24	; 0x1a
    4cf2:	97 8c       	ldd	r9, Z+31	; 0x1f
    4cf4:	85 89       	ldd	r24, Z+21	; 0x15
    4cf6:	8a 84       	ldd	r8, Y+10	; 0x0a
    4cf8:	86 84       	ldd	r8, Z+14	; 0x0e
    4cfa:	79 7d       	andi	r23, 0xD9	; 217
    4cfc:	7f 7a       	andi	r23, 0xAF	; 175
    4cfe:	75 75       	andi	r23, 0x55	; 85
    4d00:	76 81       	ldd	r23, Z+6	; 0x06
    4d02:	88 79       	andi	r24, 0x98	; 152
    4d04:	78 71       	andi	r23, 0x18	; 24
    4d06:	76 80       	ldd	r7, Z+6	; 0x06
    4d08:	8a 94       	dec	r8
    4d0a:	8a 86       	std	Y+10, r8	; 0x0a
    4d0c:	83 86       	std	Z+11, r8	; 0x0b
    4d0e:	7a 7e       	andi	r23, 0xEA	; 234
    4d10:	7e 72       	andi	r23, 0x2E	; 46
    4d12:	75 7c       	andi	r23, 0xC5	; 197
    4d14:	78 72       	andi	r23, 0x28	; 40
    4d16:	7c 7f       	andi	r23, 0xFC	; 252
    4d18:	8a 8d       	ldd	r24, Y+26	; 0x1a
    4d1a:	79 72       	andi	r23, 0x29	; 41
    4d1c:	73 79       	andi	r23, 0x93	; 147
    4d1e:	84 92       	xch	Z, r8
    4d20:	94 87       	std	Z+12, r25	; 0x0c
    4d22:	86 88       	ldd	r8, Z+22	; 0x16
    4d24:	84 7f       	andi	r24, 0xF4	; 244
    4d26:	83 7d       	andi	r24, 0xD3	; 211
    4d28:	77 7e       	andi	r23, 0xE7	; 231
    4d2a:	7e 79       	andi	r23, 0x9E	; 158
    4d2c:	78 7a       	andi	r23, 0xA8	; 168
    4d2e:	7b 88       	ldd	r7, Y+19	; 0x13
    4d30:	88 77       	andi	r24, 0x78	; 120
    4d32:	78 73       	andi	r23, 0x38	; 56
    4d34:	7d 84       	ldd	r7, Y+13	; 0x0d
    4d36:	8d 93       	st	X+, r24
    4d38:	88 85       	ldd	r24, Y+8	; 0x08
    4d3a:	86 86       	std	Z+14, r8	; 0x0e
    4d3c:	79 7a       	andi	r23, 0xA9	; 169
    4d3e:	75 72       	andi	r23, 0x25	; 37
    4d40:	79 7c       	andi	r23, 0xC9	; 201
    4d42:	76 75       	andi	r23, 0x56	; 86
    4d44:	7e 7f       	andi	r23, 0xFE	; 254
    4d46:	8d 8b       	std	Y+21, r24	; 0x15
    4d48:	77 6e       	ori	r23, 0xE7	; 231
    4d4a:	6e 78       	andi	r22, 0x8E	; 142
    4d4c:	89 93       	st	Y+, r24
    4d4e:	91 88       	ldd	r9, Z+17	; 0x11
    4d50:	89 8c       	ldd	r8, Y+25	; 0x19
    4d52:	88 86       	std	Y+8, r8	; 0x08
    4d54:	87 7d       	andi	r24, 0xD7	; 215
    4d56:	78 7f       	andi	r23, 0xF8	; 248
    4d58:	7c 77       	andi	r23, 0x7C	; 124
    4d5a:	77 78       	andi	r23, 0x87	; 135
    4d5c:	79 89       	ldd	r23, Y+17	; 0x11
    4d5e:	84 77       	andi	r24, 0x74	; 116
    4d60:	78 70       	andi	r23, 0x08	; 8
    4d62:	7a 81       	ldd	r23, Y+2	; 0x02
    4d64:	8d 8c       	ldd	r8, Y+29	; 0x1d
    4d66:	85 85       	ldd	r24, Z+13	; 0x0d
    4d68:	85 88       	ldd	r8, Z+21	; 0x15
    4d6a:	7e 7e       	andi	r23, 0xEE	; 238
    4d6c:	75 74       	andi	r23, 0x45	; 69
    4d6e:	79 7b       	andi	r23, 0xB9	; 185
    4d70:	78 78       	andi	r23, 0x88	; 136
    4d72:	7c 7f       	andi	r23, 0xFC	; 252
    4d74:	8e 83       	std	Y+6, r24	; 0x06
    4d76:	79 73       	andi	r23, 0x39	; 57
    4d78:	73 7b       	andi	r23, 0xB3	; 179
    4d7a:	86 93       	lac	Z, r24
    4d7c:	8c 87       	std	Y+12, r24	; 0x0c
    4d7e:	88 86       	std	Y+8, r8	; 0x08
    4d80:	84 84       	ldd	r8, Z+12	; 0x0c
    4d82:	85 79       	andi	r24, 0x95	; 149
    4d84:	7d 81       	ldd	r23, Y+5	; 0x05
    4d86:	76 73       	andi	r23, 0x36	; 54
    4d88:	77 79       	andi	r23, 0x97	; 151
    4d8a:	7a 8a       	std	Y+18, r7	; 0x12
    4d8c:	7f 75       	andi	r23, 0x5F	; 95
    4d8e:	79 76       	andi	r23, 0x69	; 105
    4d90:	7f 8a       	std	Y+23, r7	; 0x17
    4d92:	93 8c       	ldd	r9, Z+27	; 0x1b
    4d94:	88 88       	ldd	r8, Y+16	; 0x10
    4d96:	86 81       	ldd	r24, Z+6	; 0x06
    4d98:	7a 7b       	andi	r23, 0xBA	; 186
    4d9a:	71 74       	andi	r23, 0x41	; 65
    4d9c:	79 78       	andi	r23, 0x89	; 137
    4d9e:	77 77       	andi	r23, 0x77	; 119
    4da0:	78 80       	ld	r7, Y
    4da2:	90 80       	ld	r9, Z
    4da4:	75 72       	andi	r23, 0x25	; 37
    4da6:	76 82       	std	Z+6, r7	; 0x06
    4da8:	8d 93       	st	X+, r24
    4daa:	8a 87       	std	Y+10, r24	; 0x0a
    4dac:	8b 88       	ldd	r8, Y+19	; 0x13
    4dae:	85 87       	std	Z+13, r24	; 0x0d
    4db0:	82 75       	andi	r24, 0x52	; 82
    4db2:	7a 80       	ldd	r7, Y+2	; 0x02
    4db4:	7a 78       	andi	r23, 0x8A	; 138
    4db6:	7a 7c       	andi	r23, 0xCA	; 202
    4db8:	7e 8a       	std	Y+22, r7	; 0x16
    4dba:	7c 79       	andi	r23, 0x9C	; 156
    4dbc:	7a 72       	andi	r23, 0x2A	; 42
    4dbe:	7b 87       	std	Y+11, r23	; 0x0b
    4dc0:	8f 85       	ldd	r24, Y+15	; 0x0f
    4dc2:	85 85       	ldd	r24, Z+13	; 0x0d
    4dc4:	86 84       	ldd	r8, Z+14	; 0x0e
    4dc6:	81 7b       	andi	r24, 0xB1	; 177
    4dc8:	70 77       	andi	r23, 0x70	; 112
    4dca:	79 7b       	andi	r23, 0xB9	; 185
    4dcc:	7b 79       	andi	r23, 0x9B	; 155
    4dce:	7c 83       	std	Y+4, r23	; 0x04
    4dd0:	8f 7c       	andi	r24, 0xCF	; 207
    4dd2:	7a 72       	andi	r23, 0x2A	; 42
    4dd4:	72 7f       	andi	r23, 0xF2	; 242
    4dd6:	8e 8f       	std	Y+30, r24	; 0x1e
    4dd8:	84 87       	std	Z+12, r24	; 0x0c
    4dda:	86 87       	std	Z+14, r24	; 0x0e
    4ddc:	84 88       	ldd	r8, Z+20	; 0x14
    4dde:	80 78       	andi	r24, 0x80	; 128
    4de0:	81 7d       	andi	r24, 0xD1	; 209
    4de2:	77 78       	andi	r23, 0x87	; 135
    4de4:	7a 7b       	andi	r23, 0xBA	; 186
    4de6:	81 89       	ldd	r24, Z+17	; 0x11
    4de8:	76 7b       	andi	r23, 0xB6	; 182
    4dea:	79 7a       	andi	r23, 0xA9	; 169
    4dec:	84 8b       	std	Z+20, r24	; 0x14
    4dee:	90 85       	ldd	r25, Z+8	; 0x08
    4df0:	85 85       	ldd	r24, Z+13	; 0x0d
    4df2:	86 84       	ldd	r8, Z+14	; 0x0e
    4df4:	83 77       	andi	r24, 0x73	; 115
    4df6:	6c 78       	andi	r22, 0x8C	; 140
    4df8:	77 75       	andi	r23, 0x57	; 87
    4dfa:	77 7a       	andi	r23, 0xA7	; 167
    4dfc:	78 83       	st	Y, r23
    4dfe:	8c 77       	andi	r24, 0x7C	; 124
    4e00:	79 74       	andi	r23, 0x49	; 73
    4e02:	7e 89       	ldd	r23, Y+22	; 0x16
    4e04:	97 8f       	std	Z+31, r25	; 0x1f
    4e06:	83 84       	ldd	r8, Z+11	; 0x0b
    4e08:	84 89       	ldd	r24, Z+20	; 0x14
    4e0a:	86 8b       	std	Z+22, r24	; 0x16
    4e0c:	7d 75       	andi	r23, 0x5D	; 93
    4e0e:	81 7d       	andi	r24, 0xD1	; 209
    4e10:	78 76       	andi	r23, 0x68	; 104
    4e12:	7d 77       	andi	r23, 0x7D	; 125
    4e14:	85 89       	ldd	r24, Z+21	; 0x15
    4e16:	74 76       	andi	r23, 0x64	; 100
    4e18:	70 79       	andi	r23, 0x90	; 144
    4e1a:	83 91       	.word	0x9183	; ????
    4e1c:	8c 86       	std	Y+12, r8	; 0x0c
    4e1e:	85 81       	ldd	r24, Z+5	; 0x05
    4e20:	85 82       	std	Z+5, r8	; 0x05
    4e22:	86 71       	andi	r24, 0x16	; 22
    4e24:	6d 77       	andi	r22, 0x7D	; 125
    4e26:	73 79       	andi	r23, 0x93	; 147
    4e28:	79 7c       	andi	r23, 0xC9	; 201
    4e2a:	7c 90       	ld	r7, X
    4e2c:	8a 7a       	andi	r24, 0xAA	; 170
    4e2e:	80 71       	andi	r24, 0x10	; 16
    4e30:	7b 85       	ldd	r23, Y+11	; 0x0b
    4e32:	94 89       	ldd	r25, Z+20	; 0x14
    4e34:	83 84       	ldd	r8, Z+11	; 0x0b
    4e36:	81 85       	ldd	r24, Z+9	; 0x09
    4e38:	86 89       	ldd	r24, Z+22	; 0x16
    4e3a:	79 7a       	andi	r23, 0xA9	; 169
    4e3c:	82 79       	andi	r24, 0x92	; 146
    4e3e:	79 7a       	andi	r23, 0xA9	; 169
    4e40:	7d 7a       	andi	r23, 0xAD	; 173
    4e42:	8a 83       	std	Y+2, r24	; 0x02
    4e44:	73 78       	andi	r23, 0x83	; 131
    4e46:	72 7f       	andi	r23, 0xF2	; 242
    4e48:	86 94       	lsr	r8
    4e4a:	8b 86       	std	Y+11, r8	; 0x0b
    4e4c:	84 80       	ldd	r8, Z+4	; 0x04
    4e4e:	87 85       	ldd	r24, Z+15	; 0x0f
    4e50:	84 72       	andi	r24, 0x24	; 36
    4e52:	70 76       	andi	r23, 0x60	; 96
    4e54:	75 75       	andi	r23, 0x55	; 85
    4e56:	73 79       	andi	r23, 0x93	; 147
    4e58:	79 8e       	std	Y+25, r7	; 0x19
    4e5a:	85 78       	andi	r24, 0x85	; 133
    4e5c:	78 73       	andi	r23, 0x38	; 56
    4e5e:	85 8a       	std	Z+21, r8	; 0x15
    4e60:	98 89       	ldd	r25, Y+16	; 0x10
    4e62:	82 84       	ldd	r8, Z+10	; 0x0a
    4e64:	85 8a       	std	Z+21, r8	; 0x15
    4e66:	89 89       	ldd	r24, Y+17	; 0x11
    4e68:	78 7d       	andi	r23, 0xD8	; 216
    4e6a:	82 7b       	andi	r24, 0xB2	; 178
    4e6c:	77 76       	andi	r23, 0x67	; 103
    4e6e:	79 77       	andi	r23, 0x79	; 121
    4e70:	8b 7d       	andi	r24, 0xDB	; 219
    4e72:	72 74       	andi	r23, 0x42	; 66
    4e74:	73 80       	ldd	r7, Z+3	; 0x03
    4e76:	88 96       	adiw	r24, 0x28	; 40
    4e78:	89 86       	std	Y+9, r8	; 0x09
    4e7a:	81 80       	ldd	r8, Z+1	; 0x01
    4e7c:	83 85       	ldd	r24, Z+11	; 0x0b
    4e7e:	80 6e       	ori	r24, 0xE0	; 224
    4e80:	72 77       	andi	r23, 0x72	; 114
    4e82:	76 78       	andi	r23, 0x86	; 134
    4e84:	7d 7e       	andi	r23, 0xED	; 237
    4e86:	7e 90       	ld	r7, -X
    4e88:	81 7a       	andi	r24, 0xA1	; 161
    4e8a:	79 75       	andi	r23, 0x59	; 89
    4e8c:	81 8c       	ldd	r8, Z+25	; 0x19
    4e8e:	94 87       	std	Z+12, r25	; 0x0c
    4e90:	86 80       	ldd	r8, Z+6	; 0x06
    4e92:	82 86       	std	Z+10, r8	; 0x0a
    4e94:	88 82       	st	Y, r8
    4e96:	76 7c       	andi	r23, 0xC6	; 198
    4e98:	7b 7a       	andi	r23, 0xAB	; 171
    4e9a:	79 7c       	andi	r23, 0xC9	; 201
    4e9c:	7c 7e       	andi	r23, 0xEC	; 236
    4e9e:	8e 7a       	andi	r24, 0xAE	; 174
    4ea0:	76 76       	andi	r23, 0x66	; 102
    4ea2:	76 82       	std	Z+6, r7	; 0x06
    4ea4:	8c 94 87 87 	jmp	0x210f0e	; 0x210f0e <__TEXT_REGION_LENGTH__+0x1f0f0e>
    4ea8:	81 80       	ldd	r8, Z+1	; 0x01
    4eaa:	83 85       	ldd	r24, Z+11	; 0x0b
    4eac:	7b 6d       	ori	r23, 0xDB	; 219
    4eae:	71 73       	andi	r23, 0x31	; 49
    4eb0:	79 79       	andi	r23, 0x99	; 153
    4eb2:	79 7a       	andi	r23, 0xA9	; 169
    4eb4:	83 8c       	ldd	r8, Z+27	; 0x1b
    4eb6:	79 7c       	andi	r23, 0xC9	; 201
    4eb8:	75 75       	andi	r23, 0x55	; 85
    4eba:	86 8f       	std	Z+30, r24	; 0x1e
    4ebc:	92 86       	std	Z+10, r9	; 0x0a
    4ebe:	85 7e       	andi	r24, 0xE5	; 229
    4ec0:	86 8e       	std	Z+30, r8	; 0x1e
    4ec2:	8d 83       	std	Y+5, r24	; 0x05
    4ec4:	7b 7e       	andi	r23, 0xEB	; 235
    4ec6:	7f 80       	ldd	r7, Y+7	; 0x07
    4ec8:	78 79       	andi	r23, 0x98	; 152
    4eca:	7a 7f       	andi	r23, 0xFA	; 250
    4ecc:	86 76       	andi	r24, 0x66	; 102
    4ece:	78 74       	andi	r23, 0x48	; 72
    4ed0:	76 81       	ldd	r23, Z+6	; 0x06
    4ed2:	8f 90       	pop	r8
    4ed4:	84 88       	ldd	r8, Z+20	; 0x14
    4ed6:	83 80       	ldd	r8, Z+3	; 0x03
    4ed8:	87 88       	ldd	r8, Z+23	; 0x17
    4eda:	79 6f       	ori	r23, 0xF9	; 249
    4edc:	74 76       	andi	r23, 0x64	; 100
    4ede:	7b 7e       	andi	r23, 0xEB	; 235
    4ee0:	7b 78       	andi	r23, 0x8B	; 139
    4ee2:	85 8a       	std	Z+21, r8	; 0x15
    4ee4:	7a 7c       	andi	r23, 0xCA	; 202
    4ee6:	73 77       	andi	r23, 0x73	; 115
    4ee8:	87 93       	lat	Z, r24
    4eea:	8f 88       	ldd	r8, Y+23	; 0x17
    4eec:	83 7d       	andi	r24, 0xD3	; 211
    4eee:	86 8a       	std	Z+22, r8	; 0x16
    4ef0:	89 7e       	andi	r24, 0xE9	; 233
    4ef2:	75 76       	andi	r23, 0x65	; 101
    4ef4:	7a 7c       	andi	r23, 0xCA	; 202
    4ef6:	78 7d       	andi	r23, 0xD8	; 216
    4ef8:	7e 84       	ldd	r7, Y+14	; 0x0e
    4efa:	83 76       	andi	r24, 0x63	; 99
    4efc:	7a 7a       	andi	r23, 0xAA	; 170
    4efe:	7f 84       	ldd	r7, Y+15	; 0x0f
    4f00:	90 8d       	ldd	r25, Z+24	; 0x18
    4f02:	84 86       	std	Z+12, r8	; 0x0c
    4f04:	7c 7c       	andi	r23, 0xCC	; 204
    4f06:	83 83       	std	Z+3, r24	; 0x03
    4f08:	75 72       	andi	r23, 0x25	; 37
    4f0a:	74 72       	andi	r23, 0x24	; 36
    4f0c:	7a 79       	andi	r23, 0x9A	; 154
    4f0e:	7a 7f       	andi	r23, 0xFA	; 250
    4f10:	88 83       	st	Y, r24
    4f12:	7b 7c       	andi	r23, 0xCB	; 203
    4f14:	75 7e       	andi	r23, 0xE5	; 229
    4f16:	8b 92       	.word	0x928b	; ????
    4f18:	88 87       	std	Y+8, r24	; 0x08
    4f1a:	86 82       	std	Z+6, r8	; 0x06
    4f1c:	8b 8e       	std	Y+27, r8	; 0x1b
    4f1e:	86 7c       	andi	r24, 0xC6	; 198
    4f20:	78 79       	andi	r23, 0x98	; 152
    4f22:	7d 7e       	andi	r23, 0xED	; 237
    4f24:	79 7d       	andi	r23, 0xD9	; 217
    4f26:	7d 83       	std	Y+5, r23	; 0x05
    4f28:	80 76       	andi	r24, 0x60	; 96
    4f2a:	79 79       	andi	r23, 0x99	; 153
    4f2c:	7e 87       	std	Y+14, r23	; 0x0e
    4f2e:	91 86       	std	Z+9, r9	; 0x09
    4f30:	81 7f       	andi	r24, 0xF1	; 241
    4f32:	79 7f       	andi	r23, 0xF9	; 249
    4f34:	89 84       	ldd	r8, Y+9	; 0x09
    4f36:	76 72       	andi	r23, 0x26	; 38
    4f38:	71 77       	andi	r23, 0x71	; 113
    4f3a:	7d 7b       	andi	r23, 0xBD	; 189
    4f3c:	7b 7f       	andi	r23, 0xFB	; 251
    4f3e:	8a 83       	std	Y+2, r24	; 0x02
    4f40:	79 77       	andi	r23, 0x79	; 121
    4f42:	72 7c       	andi	r23, 0xC2	; 194
    4f44:	89 95       	.word	0x9589	; ????
    4f46:	8e 87       	std	Y+14, r24	; 0x0e
    4f48:	85 7f       	andi	r24, 0xF5	; 245
    4f4a:	85 86       	std	Z+13, r8	; 0x0d
    4f4c:	7e 79       	andi	r23, 0x9E	; 158
    4f4e:	76 78       	andi	r23, 0x86	; 134
    4f50:	7d 7c       	andi	r23, 0xCD	; 205
    4f52:	7c 7f       	andi	r23, 0xFC	; 252
    4f54:	81 84       	ldd	r8, Z+9	; 0x09
    4f56:	7a 7a       	andi	r23, 0xAA	; 170
    4f58:	78 77       	andi	r23, 0x78	; 120
    4f5a:	85 92       	las	Z, r8
    4f5c:	93 8a       	std	Z+19, r9	; 0x13
    4f5e:	87 83       	std	Z+7, r24	; 0x07
    4f60:	7b 82       	std	Y+3, r7	; 0x03
    4f62:	86 7c       	andi	r24, 0xC6	; 198
    4f64:	74 70       	andi	r23, 0x04	; 4
    4f66:	6c 77       	andi	r22, 0x7C	; 124
    4f68:	80 7e       	andi	r24, 0xE0	; 224
    4f6a:	83 88       	ldd	r8, Z+19	; 0x13
    4f6c:	82 76       	andi	r24, 0x62	; 98
    4f6e:	7c 77       	andi	r23, 0x7C	; 124
    4f70:	79 82       	std	Y+1, r7	; 0x01
    4f72:	8d 91       	ld	r24, X+
    4f74:	85 87       	std	Z+13, r24	; 0x0d
    4f76:	84 81       	ldd	r24, Z+4	; 0x04
    4f78:	84 83       	std	Z+4, r24	; 0x04
    4f7a:	7b 79       	andi	r23, 0x9B	; 155
    4f7c:	76 75       	andi	r23, 0x56	; 86
    4f7e:	7d 7c       	andi	r23, 0xCD	; 205
    4f80:	7b 81       	ldd	r23, Y+3	; 0x03
    4f82:	87 88       	ldd	r8, Z+23	; 0x17
    4f84:	76 77       	andi	r23, 0x76	; 118
    4f86:	7c 7b       	andi	r23, 0xBC	; 188
    4f88:	84 8f       	std	Z+28, r24	; 0x1c
    4f8a:	8f 89       	ldd	r24, Y+23	; 0x17
    4f8c:	87 81       	ldd	r24, Z+7	; 0x07
    4f8e:	7a 82       	std	Y+2, r7	; 0x02
    4f90:	84 7b       	andi	r24, 0xB4	; 180
    4f92:	75 74       	andi	r23, 0x45	; 69
    4f94:	74 7b       	andi	r23, 0xB4	; 180
    4f96:	7e 7e       	andi	r23, 0xEE	; 238
    4f98:	83 8b       	std	Z+19, r24	; 0x13
    4f9a:	82 76       	andi	r24, 0x62	; 98
    4f9c:	79 75       	andi	r23, 0x59	; 89
    4f9e:	77 80       	ldd	r7, Z+7	; 0x07
    4fa0:	94 90       	lpm	r9, Z
    4fa2:	83 85       	ldd	r24, Z+11	; 0x0b
    4fa4:	81 81       	ldd	r24, Z+1	; 0x01
    4fa6:	82 85       	ldd	r24, Z+10	; 0x0a
    4fa8:	7f 7b       	andi	r23, 0xBF	; 191
    4faa:	76 77       	andi	r23, 0x76	; 118
    4fac:	81 7a       	andi	r24, 0xA1	; 161
    4fae:	7c 7e       	andi	r23, 0xEC	; 236
    4fb0:	86 7e       	andi	r24, 0xE6	; 230
    4fb2:	72 78       	andi	r23, 0x82	; 130
    4fb4:	7c 7d       	andi	r23, 0xDC	; 220
    4fb6:	87 94       	ror	r8
    4fb8:	90 87       	std	Z+8, r25	; 0x08
    4fba:	83 80       	ldd	r8, Z+3	; 0x03
    4fbc:	7d 83       	std	Y+5, r23	; 0x05
    4fbe:	81 7a       	andi	r24, 0xA1	; 161
    4fc0:	76 71       	andi	r23, 0x16	; 22
    4fc2:	74 7d       	andi	r23, 0xD4	; 212
    4fc4:	7b 7b       	andi	r23, 0xBB	; 187
    4fc6:	83 8b       	std	Z+19, r24	; 0x13
    4fc8:	7b 77       	andi	r23, 0x7B	; 123
    4fca:	79 73       	andi	r23, 0x39	; 57
    4fcc:	7d 82       	std	Y+5, r7	; 0x05
    4fce:	94 8e       	std	Z+28, r9	; 0x1c
    4fd0:	85 88       	ldd	r8, Z+21	; 0x15
    4fd2:	87 83       	std	Z+7, r24	; 0x07
    4fd4:	81 84       	ldd	r8, Z+9	; 0x09
    4fd6:	7a 7b       	andi	r23, 0xBA	; 186
    4fd8:	75 77       	andi	r23, 0x75	; 117
    4fda:	7e 7b       	andi	r23, 0xBE	; 190
    4fdc:	7c 80       	ldd	r7, Y+4	; 0x04
    4fde:	8b 7f       	andi	r24, 0xFB	; 251
    4fe0:	73 7b       	andi	r23, 0xB3	; 179
    4fe2:	7d 7e       	andi	r23, 0xED	; 237
    4fe4:	8b 97       	sbiw	r24, 0x2b	; 43
    4fe6:	8d 88       	ldd	r8, Y+21	; 0x15
    4fe8:	83 7f       	andi	r24, 0xF3	; 243
    4fea:	7d 81       	ldd	r23, Y+5	; 0x05
    4fec:	80 7f       	andi	r24, 0xF0	; 240
    4fee:	7a 6e       	ori	r23, 0xEA	; 234
    4ff0:	75 76       	andi	r23, 0x65	; 101
    4ff2:	75 7b       	andi	r23, 0xB5	; 181
    4ff4:	87 8f       	std	Z+31, r24	; 0x1f
    4ff6:	76 78       	andi	r23, 0x86	; 134
    4ff8:	79 77       	andi	r23, 0x79	; 121
    4ffa:	80 84       	ldd	r8, Z+8	; 0x08
    4ffc:	97 8c       	ldd	r9, Z+31	; 0x1f
    4ffe:	82 84       	ldd	r8, Z+10	; 0x0a
    5000:	88 83       	st	Y, r24
    5002:	7e 7f       	andi	r23, 0xFE	; 254
    5004:	79 79       	andi	r23, 0x99	; 153
    5006:	76 7f       	andi	r23, 0xF6	; 246
    5008:	83 7d       	andi	r24, 0xD3	; 211
    500a:	7c 84       	ldd	r7, Y+12	; 0x0c
    500c:	8f 7b       	andi	r24, 0xBF	; 191
    500e:	78 7b       	andi	r23, 0xB8	; 184
    5010:	79 7d       	andi	r23, 0xD9	; 217
    5012:	8c 95 89 85 	jmp	0x610b12	; 0x610b12 <__TEXT_REGION_LENGTH__+0x5f0b12>
    5016:	7e 7c       	andi	r23, 0xCE	; 206
    5018:	7d 7e       	andi	r23, 0xED	; 237
    501a:	7d 7d       	andi	r23, 0xDD	; 221
    501c:	74 70       	andi	r23, 0x04	; 4
    501e:	7b 79       	andi	r23, 0x9B	; 155
    5020:	77 81       	ldd	r23, Z+7	; 0x07
    5022:	89 86       	std	Y+9, r8	; 0x09
    5024:	74 7f       	andi	r23, 0xF4	; 244
    5026:	7a 7b       	andi	r23, 0xBA	; 186
    5028:	7e 86       	std	Y+14, r7	; 0x0e
    502a:	98 8a       	std	Y+16, r9	; 0x10
    502c:	86 84       	ldd	r8, Z+14	; 0x0e
    502e:	81 7c       	andi	r24, 0xC1	; 193
    5030:	7c 82       	std	Y+4, r7	; 0x04
    5032:	7c 7b       	andi	r23, 0xBC	; 188
    5034:	74 7a       	andi	r23, 0xA4	; 164
    5036:	7c 7a       	andi	r23, 0xAC	; 172
    5038:	7c 86       	std	Y+12, r7	; 0x0c
    503a:	87 73       	andi	r24, 0x37	; 55
    503c:	77 7a       	andi	r23, 0xA7	; 167
    503e:	7a 7b       	andi	r23, 0xBA	; 186
    5040:	90 92 8b 8f 	sts	0x8F8B, r9	; 0x808f8b <__bss_end+0x8e87>
    5044:	87 87       	std	Z+15, r24	; 0x0f
    5046:	7e 7e       	andi	r23, 0xEE	; 238
    5048:	81 7e       	andi	r24, 0xE1	; 225
    504a:	79 70       	andi	r23, 0x09	; 9
    504c:	76 6f       	ori	r23, 0xF6	; 246
    504e:	76 83       	std	Z+6, r23	; 0x06
    5050:	8e 86       	std	Y+14, r8	; 0x0e
    5052:	71 78       	andi	r23, 0x81	; 129
    5054:	74 7c       	andi	r23, 0xC4	; 196
    5056:	7f 8b       	std	Y+23, r23	; 0x17
    5058:	94 87       	std	Z+12, r25	; 0x0c
    505a:	86 84       	ldd	r8, Z+14	; 0x0e
    505c:	88 7c       	andi	r24, 0xC8	; 200
    505e:	7d 7d       	andi	r23, 0xDD	; 221
    5060:	79 7d       	andi	r23, 0xD9	; 217
    5062:	79 83       	std	Y+1, r23	; 0x01
    5064:	7c 7b       	andi	r23, 0xBC	; 188
    5066:	7f 8b       	std	Y+23, r23	; 0x17
    5068:	86 77       	andi	r24, 0x76	; 118
    506a:	76 75       	andi	r23, 0x56	; 86
    506c:	79 7f       	andi	r23, 0xF9	; 249
    506e:	94 92       	xch	Z, r9
    5070:	8d 83       	std	Y+5, r24	; 0x05
    5072:	7f 81       	ldd	r23, Y+7	; 0x07
    5074:	7d 81       	ldd	r23, Y+5	; 0x05
    5076:	7f 7a       	andi	r23, 0xAF	; 175
    5078:	71 73       	andi	r23, 0x31	; 49
    507a:	79 71       	andi	r23, 0x19	; 25
    507c:	7a 82       	std	Y+2, r7	; 0x02
    507e:	8a 82       	std	Y+2, r8	; 0x02
    5080:	79 81       	ldd	r23, Y+1	; 0x01
    5082:	7a 7c       	andi	r23, 0xCA	; 202
    5084:	7e 90       	ld	r7, -X
    5086:	94 8c       	ldd	r9, Z+28	; 0x1c
    5088:	83 7e       	andi	r24, 0xE3	; 227
    508a:	7f 78       	andi	r23, 0x8F	; 143
    508c:	81 7f       	andi	r24, 0xF1	; 241
    508e:	7d 7a       	andi	r23, 0xAD	; 173
    5090:	77 7d       	andi	r23, 0xD7	; 215
    5092:	79 7c       	andi	r23, 0xC9	; 201
    5094:	7f 89       	ldd	r23, Y+23	; 0x17
    5096:	7b 75       	andi	r23, 0x5B	; 91
    5098:	78 79       	andi	r23, 0x98	; 152
    509a:	7c 82       	std	Y+4, r7	; 0x04
    509c:	93 8f       	std	Z+27, r25	; 0x1b
    509e:	92 8b       	std	Z+18, r25	; 0x12
    50a0:	87 7f       	andi	r24, 0xF7	; 247
    50a2:	7a 80       	ldd	r7, Y+2	; 0x02
    50a4:	81 81       	ldd	r24, Z+1	; 0x01
    50a6:	72 75       	andi	r23, 0x52	; 82
    50a8:	74 6e       	ori	r23, 0xE4	; 228
    50aa:	7f 86       	std	Y+15, r7	; 0x0f
    50ac:	8f 7a       	andi	r24, 0xAF	; 175
    50ae:	71 75       	andi	r23, 0x51	; 81
    50b0:	76 7f       	andi	r23, 0xF6	; 246
    50b2:	7f 90       	pop	r7
    50b4:	8f 89       	ldd	r24, Y+23	; 0x17
    50b6:	82 84       	ldd	r8, Z+10	; 0x0a
    50b8:	85 7a       	andi	r24, 0xA5	; 165
    50ba:	7e 7f       	andi	r23, 0xFE	; 254
    50bc:	80 7c       	andi	r24, 0xC0	; 192
    50be:	7e 7d       	andi	r23, 0xDE	; 222
    50c0:	7b 7c       	andi	r23, 0xCB	; 203
    50c2:	84 8d       	ldd	r24, Z+28	; 0x1c
    50c4:	79 76       	andi	r23, 0x69	; 105
    50c6:	72 79       	andi	r23, 0x92	; 146
    50c8:	7b 87       	std	Y+11, r23	; 0x0b
    50ca:	98 8e       	std	Y+24, r9	; 0x18
    50cc:	8d 82       	std	Y+5, r8	; 0x05
    50ce:	81 7d       	andi	r24, 0xD1	; 209
    50d0:	76 7d       	andi	r23, 0xD6	; 214
    50d2:	7c 77       	andi	r23, 0x7C	; 124
    50d4:	70 77       	andi	r23, 0x70	; 112
    50d6:	74 72       	andi	r23, 0x24	; 36
    50d8:	80 87       	std	Z+8, r24	; 0x08
    50da:	90 7f       	andi	r25, 0xF0	; 240
    50dc:	7b 79       	andi	r23, 0x9B	; 155
    50de:	7b 7f       	andi	r23, 0xFB	; 251
    50e0:	83 95       	inc	r24
    50e2:	90 87       	std	Z+8, r25	; 0x08
    50e4:	7d 80       	ldd	r7, Y+5	; 0x05
    50e6:	7e 78       	andi	r23, 0x8E	; 142
    50e8:	81 7f       	andi	r24, 0xF1	; 241
    50ea:	7b 79       	andi	r23, 0x9B	; 155
    50ec:	7b 7a       	andi	r23, 0xAB	; 171
    50ee:	7e 7e       	andi	r23, 0xEE	; 238
    50f0:	87 89       	ldd	r24, Z+23	; 0x17
    50f2:	75 78       	andi	r23, 0x85	; 133
    50f4:	74 7d       	andi	r23, 0xD4	; 212
    50f6:	7a 89       	ldd	r23, Y+18	; 0x12
    50f8:	95 8e       	std	Z+29, r9	; 0x1d
    50fa:	90 82       	st	Z, r9
    50fc:	82 7b       	andi	r24, 0xB2	; 178
    50fe:	78 82       	st	Y, r7
    5100:	84 7e       	andi	r24, 0xE4	; 228
    5102:	72 78       	andi	r23, 0x82	; 130
    5104:	73 75       	andi	r23, 0x53	; 83
    5106:	83 8d       	ldd	r24, Z+27	; 0x1b
    5108:	8b 74       	andi	r24, 0x4B	; 75
    510a:	6f 70       	andi	r22, 0x0F	; 15
    510c:	7b 7e       	andi	r23, 0xEB	; 235
    510e:	84 91       	lpm	r24, Z
    5110:	90 86       	std	Z+8, r9	; 0x08
    5112:	83 8a       	std	Z+19, r8	; 0x13
    5114:	7f 7b       	andi	r23, 0xBF	; 191
    5116:	7f 7f       	andi	r23, 0xFF	; 255
    5118:	80 7d       	andi	r24, 0xD0	; 208
    511a:	7c 77       	andi	r23, 0x7C	; 124
    511c:	7c 7e       	andi	r23, 0xEC	; 236
    511e:	8b 89       	ldd	r24, Y+19	; 0x13
    5120:	72 74       	andi	r23, 0x42	; 66
    5122:	70 7a       	andi	r23, 0xA0	; 160
    5124:	7b 8f       	std	Y+27, r23	; 0x1b
    5126:	94 8c       	ldd	r9, Z+28	; 0x1c
    5128:	88 7f       	andi	r24, 0xF8	; 248
    512a:	83 79       	andi	r24, 0x93	; 147
    512c:	79 7c       	andi	r23, 0xC9	; 201
    512e:	7d 76       	andi	r23, 0x6D	; 109
    5130:	73 7a       	andi	r23, 0xA3	; 163
    5132:	72 78       	andi	r23, 0x82	; 130
    5134:	81 8d       	ldd	r24, Z+25	; 0x19
    5136:	8c 79       	andi	r24, 0x9C	; 156
    5138:	75 74       	andi	r23, 0x45	; 69
    513a:	7d 80       	ldd	r7, Y+5	; 0x05
    513c:	8b 97       	sbiw	r24, 0x2b	; 43
    513e:	91 82       	std	Z+1, r9	; 0x01
    5140:	81 82       	std	Z+1, r8	; 0x01
    5142:	7c 7d       	andi	r23, 0xDC	; 220
    5144:	7f 7d       	andi	r23, 0xDF	; 223
    5146:	77 78       	andi	r23, 0x87	; 135
    5148:	79 77       	andi	r23, 0x79	; 121
    514a:	7c 7d       	andi	r23, 0xDC	; 220
    514c:	8d 84       	ldd	r8, Y+13	; 0x0d
    514e:	74 7a       	andi	r23, 0xA4	; 164
    5150:	78 80       	ld	r7, Y
    5152:	7e 8f       	std	Y+30, r23	; 0x1e
    5154:	95 91       	lpm	r25, Z+
    5156:	89 82       	std	Y+1, r8	; 0x01
    5158:	81 7a       	andi	r24, 0xA1	; 161
    515a:	7c 83       	std	Y+4, r23	; 0x04
    515c:	80 73       	andi	r24, 0x30	; 48
    515e:	75 76       	andi	r23, 0x65	; 101
    5160:	72 7c       	andi	r23, 0xC2	; 194
    5162:	82 8e       	std	Z+26, r8	; 0x1a
    5164:	83 71       	andi	r24, 0x13	; 19
    5166:	71 77       	andi	r23, 0x71	; 113
    5168:	80 7e       	andi	r24, 0xE0	; 224
    516a:	8b 94       	des	8
    516c:	8b 82       	std	Y+3, r8	; 0x03
    516e:	87 83       	std	Z+7, r24	; 0x07
    5170:	7a 78       	andi	r23, 0x8A	; 138
    5172:	80 80       	ld	r8, Z
    5174:	7f 80       	ldd	r7, Y+7	; 0x07
    5176:	7b 7a       	andi	r23, 0xAB	; 171
    5178:	7f 82       	std	Y+7, r7	; 0x07
    517a:	93 7e       	andi	r25, 0xE3	; 227
    517c:	71 72       	andi	r23, 0x21	; 33
    517e:	76 83       	std	Z+6, r23	; 0x06
    5180:	7e 94 93 89 	call	0x1d1326	; 0x1d1326 <__TEXT_REGION_LENGTH__+0x1b1326>
    5184:	83 81       	ldd	r24, Z+3	; 0x03
    5186:	81 76       	andi	r24, 0x61	; 97
    5188:	78 7d       	andi	r23, 0xD8	; 216
    518a:	7c 76       	andi	r23, 0x6C	; 108
    518c:	7b 77       	andi	r23, 0x7B	; 123
    518e:	77 7a       	andi	r23, 0xA7	; 167
    5190:	81 94       	neg	r8
    5192:	81 74       	andi	r24, 0x41	; 65
    5194:	71 77       	andi	r23, 0x71	; 113
    5196:	7d 81       	ldd	r23, Y+5	; 0x05
    5198:	94 94       	.word	0x9494	; ????
    519a:	89 82       	std	Y+1, r8	; 0x01
    519c:	85 85       	ldd	r24, Z+13	; 0x0d
    519e:	7e 7b       	andi	r23, 0xBE	; 190
    51a0:	7e 7a       	andi	r23, 0xAE	; 174
    51a2:	77 79       	andi	r23, 0x97	; 151
    51a4:	78 7d       	andi	r23, 0xD8	; 216
    51a6:	7c 82       	std	Y+4, r7	; 0x04
    51a8:	90 79       	andi	r25, 0x90	; 144
    51aa:	78 76       	andi	r23, 0x68	; 104
    51ac:	7c 7f       	andi	r23, 0xFC	; 252
    51ae:	7d 97       	sbiw	r30, 0x1d	; 29
    51b0:	94 8e       	std	Z+28, r9	; 0x1c
    51b2:	87 82       	std	Z+7, r8	; 0x07
    51b4:	7f 78       	andi	r23, 0x8F	; 143
    51b6:	7e 7f       	andi	r23, 0xFE	; 254
    51b8:	78 73       	andi	r23, 0x38	; 56
    51ba:	74 73       	andi	r23, 0x34	; 52
    51bc:	77 7e       	andi	r23, 0xE7	; 231
    51be:	88 90       	.word	0x9088	; ????
    51c0:	7c 71       	andi	r23, 0x1C	; 28
    51c2:	70 7f       	andi	r23, 0xF0	; 240
    51c4:	7f 81       	ldd	r23, Y+7	; 0x07
    51c6:	8e 8e       	std	Y+30, r8	; 0x1e
    51c8:	87 82       	std	Z+7, r8	; 0x07
    51ca:	8a 82       	std	Y+2, r8	; 0x02
    51cc:	7a 7d       	andi	r23, 0xDA	; 218
    51ce:	81 7e       	andi	r24, 0xE1	; 225
    51d0:	7b 7e       	andi	r23, 0xEB	; 235
    51d2:	78 7f       	andi	r23, 0xF8	; 248
    51d4:	7f 89       	ldd	r23, Y+23	; 0x17
    51d6:	8d 76       	andi	r24, 0x6D	; 109
    51d8:	73 72       	andi	r23, 0x23	; 35
    51da:	80 82       	st	Z, r8
    51dc:	82 93       	st	-Z, r24
    51de:	8c 85       	ldd	r24, Y+12	; 0x0c
    51e0:	83 86       	std	Z+11, r8	; 0x0b
    51e2:	7d 76       	andi	r23, 0x6D	; 109
    51e4:	7a 7b       	andi	r23, 0xBA	; 186
    51e6:	7a 79       	andi	r23, 0x9A	; 154
    51e8:	79 74       	andi	r23, 0x49	; 73
    51ea:	78 7d       	andi	r23, 0xD8	; 216
    51ec:	8b 8f       	std	Y+27, r24	; 0x1b
    51ee:	7b 71       	andi	r23, 0x1B	; 27
    51f0:	71 7d       	andi	r23, 0xD1	; 209
    51f2:	80 89       	ldd	r24, Z+16	; 0x10
    51f4:	92 8c       	ldd	r9, Z+26	; 0x1a
    51f6:	84 82       	std	Z+4, r8	; 0x04
    51f8:	86 81       	ldd	r24, Z+6	; 0x06
    51fa:	7f 7b       	andi	r23, 0xBF	; 191
    51fc:	7e 78       	andi	r23, 0x8E	; 142
    51fe:	7a 7d       	andi	r23, 0xDA	; 218
    5200:	76 7f       	andi	r23, 0xF6	; 246
    5202:	7d 89       	ldd	r23, Y+21	; 0x15
    5204:	8a 75       	andi	r24, 0x5A	; 90
    5206:	74 73       	andi	r23, 0x34	; 52
    5208:	81 80       	ldd	r8, Z+1	; 0x01
    520a:	86 97       	sbiw	r24, 0x26	; 38
    520c:	8e 8a       	std	Y+22, r8	; 0x16
    520e:	87 85       	ldd	r24, Z+15	; 0x0f
    5210:	7d 7b       	andi	r23, 0xBD	; 189
    5212:	7e 7a       	andi	r23, 0xAE	; 174
    5214:	76 76       	andi	r23, 0x66	; 102
    5216:	73 75       	andi	r23, 0x53	; 83
    5218:	7f 7f       	andi	r23, 0xFF	; 255
    521a:	8c 87       	std	Y+12, r24	; 0x0c
    521c:	75 71       	andi	r23, 0x15	; 21
    521e:	72 80       	ldd	r7, Z+2	; 0x02
    5220:	7d 86       	std	Y+13, r7	; 0x0d
    5222:	8f 8d       	ldd	r24, Y+31	; 0x1f
    5224:	89 8a       	std	Y+17, r8	; 0x11
    5226:	88 7f       	andi	r24, 0xF8	; 248
    5228:	7c 7c       	andi	r23, 0xCC	; 204
    522a:	7e 7a       	andi	r23, 0xAE	; 174
    522c:	7b 79       	andi	r23, 0x9B	; 155
    522e:	76 80       	ldd	r7, Z+6	; 0x06
    5230:	81 8d       	ldd	r24, Z+25	; 0x19
    5232:	85 74       	andi	r24, 0x45	; 69
    5234:	74 75       	andi	r23, 0x54	; 84
    5236:	85 80       	ldd	r8, Z+5	; 0x05
    5238:	87 94       	ror	r8
    523a:	88 86       	std	Y+8, r8	; 0x08
    523c:	86 80       	ldd	r8, Z+6	; 0x06
    523e:	78 74       	andi	r23, 0x48	; 72
    5240:	79 78       	andi	r23, 0x89	; 137
    5242:	79 79       	andi	r23, 0x99	; 153
    5244:	72 76       	andi	r23, 0x62	; 98
    5246:	7c 7d       	andi	r23, 0xDC	; 220
    5248:	92 8b       	std	Z+18, r25	; 0x12
    524a:	7b 71       	andi	r23, 0x1B	; 27
    524c:	75 81       	ldd	r23, Z+5	; 0x05
    524e:	7e 8d       	ldd	r23, Y+30	; 0x1e
    5250:	8c 89       	ldd	r24, Y+20	; 0x14
    5252:	82 82       	std	Z+2, r8	; 0x02
    5254:	86 82       	std	Z+6, r8	; 0x06
    5256:	7e 7b       	andi	r23, 0xBE	; 190
    5258:	7a 78       	andi	r23, 0x8A	; 138
    525a:	7f 7b       	andi	r23, 0xBF	; 191
    525c:	7a 7e       	andi	r23, 0xEA	; 234
    525e:	7f 8d       	ldd	r23, Y+31	; 0x1f
    5260:	81 79       	andi	r24, 0x91	; 145
    5262:	74 79       	andi	r23, 0x94	; 148
    5264:	84 7e       	andi	r24, 0xE4	; 228
    5266:	8c 94 8a 89 	jmp	0x211314	; 0x211314 <__TEXT_REGION_LENGTH__+0x1f1314>
    526a:	88 83       	st	Y, r24
    526c:	7c 7b       	andi	r23, 0xBC	; 188
    526e:	7d 77       	andi	r23, 0x7D	; 125
    5270:	77 79       	andi	r23, 0x97	; 151
    5272:	74 7d       	andi	r23, 0xD4	; 212
    5274:	7e 80       	ldd	r7, Y+6	; 0x06
    5276:	8c 7f       	andi	r24, 0xFC	; 252
    5278:	78 6f       	ori	r23, 0xF8	; 248
    527a:	79 7d       	andi	r23, 0xD9	; 217
    527c:	7a 8b       	std	Y+18, r23	; 0x12
    527e:	8a 8d       	ldd	r24, Y+26	; 0x1a
    5280:	85 86       	std	Z+13, r8	; 0x0d
    5282:	85 7e       	andi	r24, 0xE5	; 229
    5284:	7f 7e       	andi	r23, 0xEF	; 239
    5286:	7e 7a       	andi	r23, 0xAE	; 174
    5288:	7e 78       	andi	r23, 0x8E	; 142
    528a:	7b 80       	ldd	r7, Y+3	; 0x03
    528c:	83 8b       	std	Z+19, r24	; 0x13
    528e:	7a 76       	andi	r23, 0x6A	; 106
    5290:	73 7d       	andi	r23, 0xD3	; 211
    5292:	84 80       	ldd	r8, Z+4	; 0x04
    5294:	8c 8c       	ldd	r8, Y+28	; 0x1c
    5296:	89 8a       	std	Y+17, r8	; 0x11
    5298:	89 7f       	andi	r24, 0xF9	; 249
    529a:	77 77       	andi	r23, 0x77	; 119
    529c:	75 76       	andi	r23, 0x65	; 101
    529e:	7b 77       	andi	r23, 0x7B	; 123
    52a0:	73 7d       	andi	r23, 0xD3	; 211
    52a2:	7a 81       	ldd	r23, Y+2	; 0x02
    52a4:	8e 83       	std	Y+6, r24	; 0x06
    52a6:	7b 70       	andi	r23, 0x0B	; 11
    52a8:	7c 7e       	andi	r23, 0xEC	; 236
    52aa:	86 8e       	std	Z+30, r8	; 0x1e
    52ac:	87 88       	ldd	r8, Z+23	; 0x17
    52ae:	85 88       	ldd	r8, Z+21	; 0x15
    52b0:	86 83       	std	Z+6, r24	; 0x06
    52b2:	7c 75       	andi	r23, 0x5C	; 92
    52b4:	79 7a       	andi	r23, 0xA9	; 169
    52b6:	7c 77       	andi	r23, 0x7C	; 124
    52b8:	7a 7a       	andi	r23, 0xAA	; 170
    52ba:	82 8b       	std	Z+18, r24	; 0x12
    52bc:	7e 79       	andi	r23, 0x9E	; 158
    52be:	72 7f       	andi	r23, 0xF2	; 242
    52c0:	85 86       	std	Z+13, r8	; 0x0d
    52c2:	92 91       	ld	r25, -Z
    52c4:	89 88       	ldd	r8, Y+17	; 0x11
    52c6:	87 7f       	andi	r24, 0xF7	; 247
    52c8:	7c 78       	andi	r23, 0x8C	; 140
    52ca:	77 72       	andi	r23, 0x27	; 39
    52cc:	77 74       	andi	r23, 0x47	; 71
    52ce:	75 80       	ldd	r7, Z+5	; 0x05
    52d0:	7b 85       	ldd	r23, Y+11	; 0x0b
    52d2:	89 81       	ldd	r24, Y+1	; 0x01
    52d4:	7b 71       	andi	r23, 0x1B	; 27
    52d6:	7a 7b       	andi	r23, 0xBA	; 186
    52d8:	82 89       	ldd	r24, Z+18	; 0x12
    52da:	87 8b       	std	Z+23, r24	; 0x17
    52dc:	86 86       	std	Z+14, r8	; 0x0e
    52de:	84 81       	ldd	r24, Z+4	; 0x04
    52e0:	7d 7f       	andi	r23, 0xFD	; 253
    52e2:	7e 7e       	andi	r23, 0xEE	; 238
    52e4:	7d 77       	andi	r23, 0x7D	; 125
    52e6:	7e 81       	ldd	r23, Y+6	; 0x06
    52e8:	88 83       	st	Y, r24
    52ea:	79 75       	andi	r23, 0x59	; 89
    52ec:	73 82       	std	Z+3, r7	; 0x03
    52ee:	83 84       	ldd	r8, Z+11	; 0x0b
    52f0:	8d 8b       	std	Y+21, r24	; 0x15
    52f2:	87 89       	ldd	r24, Z+23	; 0x17
    52f4:	86 7c       	andi	r24, 0xC6	; 198
    52f6:	79 79       	andi	r23, 0x99	; 153
    52f8:	78 76       	andi	r23, 0x68	; 104
    52fa:	7b 74       	andi	r23, 0x4B	; 75
    52fc:	76 7e       	andi	r23, 0xE6	; 230
    52fe:	7c 8e       	std	Y+28, r7	; 0x1c

00005300 <__ctors_end>:
    5300:	11 24       	eor	r1, r1
    5302:	1f be       	out	0x3f, r1	; 63
    5304:	cf ef       	ldi	r28, 0xFF	; 255
    5306:	d8 e0       	ldi	r29, 0x08	; 8
    5308:	de bf       	out	0x3e, r29	; 62
    530a:	cd bf       	out	0x3d, r28	; 61

0000530c <__do_copy_data>:
    530c:	11 e0       	ldi	r17, 0x01	; 1
    530e:	a0 e0       	ldi	r26, 0x00	; 0
    5310:	b1 e0       	ldi	r27, 0x01	; 1
    5312:	e4 e4       	ldi	r30, 0x44	; 68
    5314:	f4 e5       	ldi	r31, 0x54	; 84
    5316:	02 c0       	rjmp	.+4      	; 0x531c <__do_copy_data+0x10>
    5318:	05 90       	lpm	r0, Z+
    531a:	0d 92       	st	X+, r0
    531c:	a2 30       	cpi	r26, 0x02	; 2
    531e:	b1 07       	cpc	r27, r17
    5320:	d9 f7       	brne	.-10     	; 0x5318 <__do_copy_data+0xc>

00005322 <__do_clear_bss>:
    5322:	21 e0       	ldi	r18, 0x01	; 1
    5324:	a2 e0       	ldi	r26, 0x02	; 2
    5326:	b1 e0       	ldi	r27, 0x01	; 1
    5328:	01 c0       	rjmp	.+2      	; 0x532c <.do_clear_bss_start>

0000532a <.do_clear_bss_loop>:
    532a:	1d 92       	st	X+, r1

0000532c <.do_clear_bss_start>:
    532c:	a4 30       	cpi	r26, 0x04	; 4
    532e:	b2 07       	cpc	r27, r18
    5330:	e1 f7       	brne	.-8      	; 0x532a <.do_clear_bss_loop>
    5332:	0e 94 0b 2a 	call	0x5416	; 0x5416 <main>
    5336:	0c 94 20 2a 	jmp	0x5440	; 0x5440 <_exit>

0000533a <__bad_interrupt>:
    533a:	0c 94 00 00 	jmp	0	; 0x0 <__vectors>

0000533e <spi_init>:
#include <avr/pgmspace.h>
#include "sound.h"

void spi_init(){
    // ustaw piny MOSI, SCK i ~SS jako wyjcia
    DDRB |= _BV(DDB3) | _BV(DDB5) | _BV(DDB2);
    533e:	84 b1       	in	r24, 0x04	; 4
    5340:	8c 62       	ori	r24, 0x2C	; 44
    5342:	84 b9       	out	0x04, r24	; 4
    // wcz SPI w trybie master z zegarem 250 kHz
    SPCR = _BV(SPE) | _BV(MSTR) | _BV(SPR1);
    5344:	82 e5       	ldi	r24, 0x52	; 82
    5346:	8c bd       	out	0x2c, r24	; 44
    5348:	08 95       	ret

0000534a <spi_transfer>:
}

// transfer jednego bajtu
uint8_t spi_transfer(uint8_t data){
    // rozpocznij transmisj
    SPDR = data;
    534a:	8e bd       	out	0x2e, r24	; 46
    // czekaj na ukoczenie transmisji
    while (!(SPSR & _BV(SPIF)));
    534c:	0d b4       	in	r0, 0x2d	; 45
    534e:	07 fe       	sbrs	r0, 7
    5350:	fd cf       	rjmp	.-6      	; 0x534c <spi_transfer+0x2>
    // wyczy flag przerwania
    SPSR |= _BV(SPIF);
    5352:	8d b5       	in	r24, 0x2d	; 45
    5354:	80 68       	ori	r24, 0x80	; 128
    5356:	8d bd       	out	0x2d, r24	; 45
    // zwr otrzymane dane
    return 0;
}
    5358:	80 e0       	ldi	r24, 0x00	; 0
    535a:	08 95       	ret

0000535c <timer0_init>:

//Timer 0 init
void timer0_init(){
  OCR0A=124;
    535c:	8c e7       	ldi	r24, 0x7C	; 124
    535e:	87 bd       	out	0x27, r24	; 39
  TCCR0A |= _BV(WGM01);
    5360:	84 b5       	in	r24, 0x24	; 36
    5362:	82 60       	ori	r24, 0x02	; 2
    5364:	84 bd       	out	0x24, r24	; 36
  TIMSK0 |= _BV(OCIE0A);
    5366:	ee e6       	ldi	r30, 0x6E	; 110
    5368:	f0 e0       	ldi	r31, 0x00	; 0
    536a:	80 81       	ld	r24, Z
    536c:	82 60       	ori	r24, 0x02	; 2
    536e:	80 83       	st	Z, r24
  TCCR0B |= _BV(CS01);
    5370:	85 b5       	in	r24, 0x25	; 37
    5372:	82 60       	ori	r24, 0x02	; 2
    5374:	85 bd       	out	0x25, r24	; 37
    5376:	08 95       	ret

00005378 <__vector_14>:
}

volatile uint16_t i=0;

ISR(TIMER0_COMPA_vect){
    5378:	1f 92       	push	r1
    537a:	0f 92       	push	r0
    537c:	0f b6       	in	r0, 0x3f	; 63
    537e:	0f 92       	push	r0
    5380:	11 24       	eor	r1, r1
    5382:	2f 93       	push	r18
    5384:	3f 93       	push	r19
    5386:	8f 93       	push	r24
    5388:	9f 93       	push	r25
    538a:	ef 93       	push	r30
    538c:	ff 93       	push	r31
  if(i>=out_raw_len) i=0;
    538e:	20 91 02 01 	lds	r18, 0x0102	; 0x800102 <__data_end>
    5392:	30 91 03 01 	lds	r19, 0x0103	; 0x800103 <__data_end+0x1>
    5396:	80 91 00 01 	lds	r24, 0x0100	; 0x800100 <__data_start>
    539a:	90 91 01 01 	lds	r25, 0x0101	; 0x800101 <__data_start+0x1>
    539e:	28 17       	cp	r18, r24
    53a0:	39 07       	cpc	r19, r25
    53a2:	20 f0       	brcs	.+8      	; 0x53ac <__vector_14+0x34>
    53a4:	10 92 03 01 	sts	0x0103, r1	; 0x800103 <__data_end+0x1>
    53a8:	10 92 02 01 	sts	0x0102, r1	; 0x800102 <__data_end>
  uint8_t data=pgm_read_word(&out_raw[i]);
    53ac:	e0 91 02 01 	lds	r30, 0x0102	; 0x800102 <__data_end>
    53b0:	f0 91 03 01 	lds	r31, 0x0103	; 0x800103 <__data_end+0x1>
    53b4:	e8 59       	subi	r30, 0x98	; 152
    53b6:	ff 4f       	sbci	r31, 0xFF	; 255
    53b8:	85 91       	lpm	r24, Z+
    53ba:	94 91       	lpm	r25, Z
  i++;
    53bc:	20 91 02 01 	lds	r18, 0x0102	; 0x800102 <__data_end>
    53c0:	30 91 03 01 	lds	r19, 0x0103	; 0x800103 <__data_end+0x1>
    53c4:	2f 5f       	subi	r18, 0xFF	; 255
    53c6:	3f 4f       	sbci	r19, 0xFF	; 255
    53c8:	30 93 03 01 	sts	0x0103, r19	; 0x800103 <__data_end+0x1>
    53cc:	20 93 02 01 	sts	0x0102, r18	; 0x800102 <__data_end>
  PORTB &= ~_BV(DDB2);
    53d0:	2a 98       	cbi	0x05, 2	; 5
  spi_transfer(0b10110000|(data>>4));
    53d2:	28 2f       	mov	r18, r24
    53d4:	22 95       	swap	r18
    53d6:	2f 70       	andi	r18, 0x0F	; 15
    53d8:	20 6b       	ori	r18, 0xB0	; 176
}

// transfer jednego bajtu
uint8_t spi_transfer(uint8_t data){
    // rozpocznij transmisj
    SPDR = data;
    53da:	2e bd       	out	0x2e, r18	; 46
    // czekaj na ukoczenie transmisji
    while (!(SPSR & _BV(SPIF)));
    53dc:	0d b4       	in	r0, 0x2d	; 45
    53de:	07 fe       	sbrs	r0, 7
    53e0:	fd cf       	rjmp	.-6      	; 0x53dc <__vector_14+0x64>
    // wyczy flag przerwania
    SPSR |= _BV(SPIF);
    53e2:	9d b5       	in	r25, 0x2d	; 45
    53e4:	90 68       	ori	r25, 0x80	; 128
    53e6:	9d bd       	out	0x2d, r25	; 45
  if(i>=out_raw_len) i=0;
  uint8_t data=pgm_read_word(&out_raw[i]);
  i++;
  PORTB &= ~_BV(DDB2);
  spi_transfer(0b10110000|(data>>4));
  spi_transfer(data<<4);
    53e8:	82 95       	swap	r24
    53ea:	80 7f       	andi	r24, 0xF0	; 240
}

// transfer jednego bajtu
uint8_t spi_transfer(uint8_t data){
    // rozpocznij transmisj
    SPDR = data;
    53ec:	8e bd       	out	0x2e, r24	; 46
    // czekaj na ukoczenie transmisji
    while (!(SPSR & _BV(SPIF)));
    53ee:	0d b4       	in	r0, 0x2d	; 45
    53f0:	07 fe       	sbrs	r0, 7
    53f2:	fd cf       	rjmp	.-6      	; 0x53ee <__vector_14+0x76>
    // wyczy flag przerwania
    SPSR |= _BV(SPIF);
    53f4:	8d b5       	in	r24, 0x2d	; 45
    53f6:	80 68       	ori	r24, 0x80	; 128
    53f8:	8d bd       	out	0x2d, r24	; 45
  uint8_t data=pgm_read_word(&out_raw[i]);
  i++;
  PORTB &= ~_BV(DDB2);
  spi_transfer(0b10110000|(data>>4));
  spi_transfer(data<<4);
  PORTB |= ~_BV(DDB2);
    53fa:	85 b1       	in	r24, 0x05	; 5
    53fc:	8b 6f       	ori	r24, 0xFB	; 251
    53fe:	85 b9       	out	0x05, r24	; 5
}
    5400:	ff 91       	pop	r31
    5402:	ef 91       	pop	r30
    5404:	9f 91       	pop	r25
    5406:	8f 91       	pop	r24
    5408:	3f 91       	pop	r19
    540a:	2f 91       	pop	r18
    540c:	0f 90       	pop	r0
    540e:	0f be       	out	0x3f, r0	; 63
    5410:	0f 90       	pop	r0
    5412:	1f 90       	pop	r1
    5414:	18 95       	reti

00005416 <main>:

int main(){
  // zainicjalizuj SPI
  sei();
    5416:	78 94       	sei
#include <avr/pgmspace.h>
#include "sound.h"

void spi_init(){
    // ustaw piny MOSI, SCK i ~SS jako wyjcia
    DDRB |= _BV(DDB3) | _BV(DDB5) | _BV(DDB2);
    5418:	84 b1       	in	r24, 0x04	; 4
    541a:	8c 62       	ori	r24, 0x2C	; 44
    541c:	84 b9       	out	0x04, r24	; 4
    // wcz SPI w trybie master z zegarem 250 kHz
    SPCR = _BV(SPE) | _BV(MSTR) | _BV(SPR1);
    541e:	82 e5       	ldi	r24, 0x52	; 82
    5420:	8c bd       	out	0x2c, r24	; 44

int main(){
  // zainicjalizuj SPI
  sei();
  spi_init();
  PORTB |= _BV(DDB2);
    5422:	2a 9a       	sbi	0x05, 2	; 5
    return 0;
}

//Timer 0 init
void timer0_init(){
  OCR0A=124;
    5424:	8c e7       	ldi	r24, 0x7C	; 124
    5426:	87 bd       	out	0x27, r24	; 39
  TCCR0A |= _BV(WGM01);
    5428:	84 b5       	in	r24, 0x24	; 36
    542a:	82 60       	ori	r24, 0x02	; 2
    542c:	84 bd       	out	0x24, r24	; 36
  TIMSK0 |= _BV(OCIE0A);
    542e:	80 91 6e 00 	lds	r24, 0x006E	; 0x80006e <__TEXT_REGION_LENGTH__+0x7e006e>
    5432:	82 60       	ori	r24, 0x02	; 2
    5434:	80 93 6e 00 	sts	0x006E, r24	; 0x80006e <__TEXT_REGION_LENGTH__+0x7e006e>
  TCCR0B |= _BV(CS01);
    5438:	85 b5       	in	r24, 0x25	; 37
    543a:	82 60       	ori	r24, 0x02	; 2
    543c:	85 bd       	out	0x25, r24	; 37
    543e:	ff cf       	rjmp	.-2      	; 0x543e <main+0x28>

00005440 <_exit>:
    5440:	f8 94       	cli

00005442 <__stop_program>:
    5442:	ff cf       	rjmp	.-2      	; 0x5442 <__stop_program>
